ARM GAS  C:\Users\PIET~1.COU\AppData\Local\Temp\ccOjm301.s 			page 1


   1              		.syntax unified
   2              		.cpu cortex-m3
   3              		.fpu softvfp
   4              		.eabi_attribute 20, 1
   5              		.eabi_attribute 21, 1
   6              		.eabi_attribute 23, 3
   7              		.eabi_attribute 24, 1
   8              		.eabi_attribute 25, 1
   9              		.eabi_attribute 26, 1
  10              		.eabi_attribute 30, 4
  11              		.eabi_attribute 34, 1
  12              		.eabi_attribute 18, 4
  13              		.thumb
  14              		.file	"Clip.c"
  15              		.text
  16              	.Ltext0:
  17              		.cfi_sections	.debug_frame
  18              		.section	.text.Clip_Read,"ax",%progbits
  19              		.align	1
  20              		.global	Clip_Read
  21              		.thumb
  22              		.thumb_func
  23              		.type	Clip_Read, %function
  24              	Clip_Read:
  25              	.LFB0:
  26              		.file 1 ".\\Generated_Source\\PSoC5\\Clip.c"
   1:.\Generated_Source\PSoC5/Clip.c **** /*******************************************************************************
   2:.\Generated_Source\PSoC5/Clip.c **** * File Name: Clip.c  
   3:.\Generated_Source\PSoC5/Clip.c **** * Version 1.90
   4:.\Generated_Source\PSoC5/Clip.c **** *
   5:.\Generated_Source\PSoC5/Clip.c **** * Description:
   6:.\Generated_Source\PSoC5/Clip.c **** *  This file contains API to enable firmware to read the value of a Status 
   7:.\Generated_Source\PSoC5/Clip.c **** *  Register.
   8:.\Generated_Source\PSoC5/Clip.c **** *
   9:.\Generated_Source\PSoC5/Clip.c **** * Note:
  10:.\Generated_Source\PSoC5/Clip.c **** *
  11:.\Generated_Source\PSoC5/Clip.c **** ********************************************************************************
  12:.\Generated_Source\PSoC5/Clip.c **** * Copyright 2008-2015, Cypress Semiconductor Corporation.  All rights reserved.
  13:.\Generated_Source\PSoC5/Clip.c **** * You may use this file only in accordance with the license, terms, conditions, 
  14:.\Generated_Source\PSoC5/Clip.c **** * disclaimers, and limitations in the end user license agreement accompanying 
  15:.\Generated_Source\PSoC5/Clip.c **** * the software package with which this file was provided.
  16:.\Generated_Source\PSoC5/Clip.c **** *******************************************************************************/
  17:.\Generated_Source\PSoC5/Clip.c **** 
  18:.\Generated_Source\PSoC5/Clip.c **** #include "Clip.h"
  19:.\Generated_Source\PSoC5/Clip.c **** 
  20:.\Generated_Source\PSoC5/Clip.c **** #if !defined(Clip_sts_sts_reg__REMOVED) /* Check for removal by optimization */
  21:.\Generated_Source\PSoC5/Clip.c **** 
  22:.\Generated_Source\PSoC5/Clip.c **** 
  23:.\Generated_Source\PSoC5/Clip.c **** /*******************************************************************************
  24:.\Generated_Source\PSoC5/Clip.c **** * Function Name: Clip_Read
  25:.\Generated_Source\PSoC5/Clip.c **** ********************************************************************************
  26:.\Generated_Source\PSoC5/Clip.c **** *
  27:.\Generated_Source\PSoC5/Clip.c **** * Summary:
  28:.\Generated_Source\PSoC5/Clip.c **** *  Reads the current value assigned to the Status Register.
  29:.\Generated_Source\PSoC5/Clip.c **** *
  30:.\Generated_Source\PSoC5/Clip.c **** * Parameters:
  31:.\Generated_Source\PSoC5/Clip.c **** *  None.
ARM GAS  C:\Users\PIET~1.COU\AppData\Local\Temp\ccOjm301.s 			page 2


  32:.\Generated_Source\PSoC5/Clip.c **** *
  33:.\Generated_Source\PSoC5/Clip.c **** * Return:
  34:.\Generated_Source\PSoC5/Clip.c **** *  The current value in the Status Register.
  35:.\Generated_Source\PSoC5/Clip.c **** *
  36:.\Generated_Source\PSoC5/Clip.c **** *******************************************************************************/
  37:.\Generated_Source\PSoC5/Clip.c **** uint8 Clip_Read(void) 
  38:.\Generated_Source\PSoC5/Clip.c **** { 
  27              		.loc 1 38 0
  28              		.cfi_startproc
  29              		@ args = 0, pretend = 0, frame = 0
  30              		@ frame_needed = 0, uses_anonymous_args = 0
  31              		@ link register save eliminated.
  39:.\Generated_Source\PSoC5/Clip.c ****     return Clip_Status;
  32              		.loc 1 39 0
  33 0000 014B     		ldr	r3, .L2
  34 0002 1878     		ldrb	r0, [r3]	@ zero_extendqisi2
  40:.\Generated_Source\PSoC5/Clip.c **** }
  35              		.loc 1 40 0
  36 0004 7047     		bx	lr
  37              	.L3:
  38 0006 00BF     		.align	2
  39              	.L2:
  40 0008 67640040 		.word	1073767527
  41              		.cfi_endproc
  42              	.LFE0:
  43              		.size	Clip_Read, .-Clip_Read
  44              		.section	.text.Clip_InterruptEnable,"ax",%progbits
  45              		.align	1
  46              		.global	Clip_InterruptEnable
  47              		.thumb
  48              		.thumb_func
  49              		.type	Clip_InterruptEnable, %function
  50              	Clip_InterruptEnable:
  51              	.LFB1:
  41:.\Generated_Source\PSoC5/Clip.c **** 
  42:.\Generated_Source\PSoC5/Clip.c **** 
  43:.\Generated_Source\PSoC5/Clip.c **** /*******************************************************************************
  44:.\Generated_Source\PSoC5/Clip.c **** * Function Name: Clip_InterruptEnable
  45:.\Generated_Source\PSoC5/Clip.c **** ********************************************************************************
  46:.\Generated_Source\PSoC5/Clip.c **** *
  47:.\Generated_Source\PSoC5/Clip.c **** * Summary:
  48:.\Generated_Source\PSoC5/Clip.c **** *  Enables the Status Register interrupt.
  49:.\Generated_Source\PSoC5/Clip.c **** *
  50:.\Generated_Source\PSoC5/Clip.c **** * Parameters:
  51:.\Generated_Source\PSoC5/Clip.c **** *  None.
  52:.\Generated_Source\PSoC5/Clip.c **** *
  53:.\Generated_Source\PSoC5/Clip.c **** * Return:
  54:.\Generated_Source\PSoC5/Clip.c **** *  None.
  55:.\Generated_Source\PSoC5/Clip.c **** *
  56:.\Generated_Source\PSoC5/Clip.c **** *******************************************************************************/
  57:.\Generated_Source\PSoC5/Clip.c **** void Clip_InterruptEnable(void) 
  58:.\Generated_Source\PSoC5/Clip.c **** {
  52              		.loc 1 58 0
  53              		.cfi_startproc
  54              		@ args = 0, pretend = 0, frame = 0
  55              		@ frame_needed = 0, uses_anonymous_args = 0
  56 0000 08B5     		push	{r3, lr}
ARM GAS  C:\Users\PIET~1.COU\AppData\Local\Temp\ccOjm301.s 			page 3


  57              		.cfi_def_cfa_offset 8
  58              		.cfi_offset 3, -8
  59              		.cfi_offset 14, -4
  59:.\Generated_Source\PSoC5/Clip.c ****     uint8 interruptState;
  60:.\Generated_Source\PSoC5/Clip.c ****     interruptState = CyEnterCriticalSection();
  60              		.loc 1 60 0
  61 0002 FFF7FEFF 		bl	CyEnterCriticalSection
  62              	.LVL0:
  61:.\Generated_Source\PSoC5/Clip.c ****     Clip_Status_Aux_Ctrl |= Clip_STATUS_INTR_ENBL;
  63              		.loc 1 61 0
  64 0006 044A     		ldr	r2, .L5
  65 0008 1378     		ldrb	r3, [r2]	@ zero_extendqisi2
  66 000a 43F01003 		orr	r3, r3, #16
  67 000e 1370     		strb	r3, [r2]
  62:.\Generated_Source\PSoC5/Clip.c ****     CyExitCriticalSection(interruptState);
  63:.\Generated_Source\PSoC5/Clip.c **** }
  68              		.loc 1 63 0
  69 0010 BDE80840 		pop	{r3, lr}
  70              		.cfi_restore 14
  71              		.cfi_restore 3
  72              		.cfi_def_cfa_offset 0
  62:.\Generated_Source\PSoC5/Clip.c ****     CyExitCriticalSection(interruptState);
  73              		.loc 1 62 0
  74 0014 FFF7FEBF 		b	CyExitCriticalSection
  75              	.LVL1:
  76              	.L6:
  77              		.align	2
  78              	.L5:
  79 0018 97640040 		.word	1073767575
  80              		.cfi_endproc
  81              	.LFE1:
  82              		.size	Clip_InterruptEnable, .-Clip_InterruptEnable
  83              		.section	.text.Clip_InterruptDisable,"ax",%progbits
  84              		.align	1
  85              		.global	Clip_InterruptDisable
  86              		.thumb
  87              		.thumb_func
  88              		.type	Clip_InterruptDisable, %function
  89              	Clip_InterruptDisable:
  90              	.LFB2:
  64:.\Generated_Source\PSoC5/Clip.c **** 
  65:.\Generated_Source\PSoC5/Clip.c **** 
  66:.\Generated_Source\PSoC5/Clip.c **** /*******************************************************************************
  67:.\Generated_Source\PSoC5/Clip.c **** * Function Name: Clip_InterruptDisable
  68:.\Generated_Source\PSoC5/Clip.c **** ********************************************************************************
  69:.\Generated_Source\PSoC5/Clip.c **** *
  70:.\Generated_Source\PSoC5/Clip.c **** * Summary:
  71:.\Generated_Source\PSoC5/Clip.c **** *  Disables the Status Register interrupt.
  72:.\Generated_Source\PSoC5/Clip.c **** *
  73:.\Generated_Source\PSoC5/Clip.c **** * Parameters:
  74:.\Generated_Source\PSoC5/Clip.c **** *  None.
  75:.\Generated_Source\PSoC5/Clip.c **** *
  76:.\Generated_Source\PSoC5/Clip.c **** * Return:
  77:.\Generated_Source\PSoC5/Clip.c **** *  None.
  78:.\Generated_Source\PSoC5/Clip.c **** *
  79:.\Generated_Source\PSoC5/Clip.c **** *******************************************************************************/
  80:.\Generated_Source\PSoC5/Clip.c **** void Clip_InterruptDisable(void) 
ARM GAS  C:\Users\PIET~1.COU\AppData\Local\Temp\ccOjm301.s 			page 4


  81:.\Generated_Source\PSoC5/Clip.c **** {
  91              		.loc 1 81 0
  92              		.cfi_startproc
  93              		@ args = 0, pretend = 0, frame = 0
  94              		@ frame_needed = 0, uses_anonymous_args = 0
  95 0000 08B5     		push	{r3, lr}
  96              		.cfi_def_cfa_offset 8
  97              		.cfi_offset 3, -8
  98              		.cfi_offset 14, -4
  82:.\Generated_Source\PSoC5/Clip.c ****     uint8 interruptState;
  83:.\Generated_Source\PSoC5/Clip.c ****     interruptState = CyEnterCriticalSection();
  99              		.loc 1 83 0
 100 0002 FFF7FEFF 		bl	CyEnterCriticalSection
 101              	.LVL2:
  84:.\Generated_Source\PSoC5/Clip.c ****     Clip_Status_Aux_Ctrl &= (uint8)(~Clip_STATUS_INTR_ENBL);
 102              		.loc 1 84 0
 103 0006 044A     		ldr	r2, .L8
 104 0008 1378     		ldrb	r3, [r2]	@ zero_extendqisi2
 105 000a 03F0EF03 		and	r3, r3, #239
 106 000e 1370     		strb	r3, [r2]
  85:.\Generated_Source\PSoC5/Clip.c ****     CyExitCriticalSection(interruptState);
  86:.\Generated_Source\PSoC5/Clip.c **** }
 107              		.loc 1 86 0
 108 0010 BDE80840 		pop	{r3, lr}
 109              		.cfi_restore 14
 110              		.cfi_restore 3
 111              		.cfi_def_cfa_offset 0
  85:.\Generated_Source\PSoC5/Clip.c ****     CyExitCriticalSection(interruptState);
 112              		.loc 1 85 0
 113 0014 FFF7FEBF 		b	CyExitCriticalSection
 114              	.LVL3:
 115              	.L9:
 116              		.align	2
 117              	.L8:
 118 0018 97640040 		.word	1073767575
 119              		.cfi_endproc
 120              	.LFE2:
 121              		.size	Clip_InterruptDisable, .-Clip_InterruptDisable
 122              		.section	.text.Clip_WriteMask,"ax",%progbits
 123              		.align	1
 124              		.global	Clip_WriteMask
 125              		.thumb
 126              		.thumb_func
 127              		.type	Clip_WriteMask, %function
 128              	Clip_WriteMask:
 129              	.LFB3:
  87:.\Generated_Source\PSoC5/Clip.c **** 
  88:.\Generated_Source\PSoC5/Clip.c **** 
  89:.\Generated_Source\PSoC5/Clip.c **** /*******************************************************************************
  90:.\Generated_Source\PSoC5/Clip.c **** * Function Name: Clip_WriteMask
  91:.\Generated_Source\PSoC5/Clip.c **** ********************************************************************************
  92:.\Generated_Source\PSoC5/Clip.c **** *
  93:.\Generated_Source\PSoC5/Clip.c **** * Summary:
  94:.\Generated_Source\PSoC5/Clip.c **** *  Writes the current mask value assigned to the Status Register.
  95:.\Generated_Source\PSoC5/Clip.c **** *
  96:.\Generated_Source\PSoC5/Clip.c **** * Parameters:
  97:.\Generated_Source\PSoC5/Clip.c **** *  mask:  Value to write into the mask register.
ARM GAS  C:\Users\PIET~1.COU\AppData\Local\Temp\ccOjm301.s 			page 5


  98:.\Generated_Source\PSoC5/Clip.c **** *
  99:.\Generated_Source\PSoC5/Clip.c **** * Return:
 100:.\Generated_Source\PSoC5/Clip.c **** *  None.
 101:.\Generated_Source\PSoC5/Clip.c **** *
 102:.\Generated_Source\PSoC5/Clip.c **** *******************************************************************************/
 103:.\Generated_Source\PSoC5/Clip.c **** void Clip_WriteMask(uint8 mask) 
 104:.\Generated_Source\PSoC5/Clip.c **** {
 130              		.loc 1 104 0
 131              		.cfi_startproc
 132              		@ args = 0, pretend = 0, frame = 0
 133              		@ frame_needed = 0, uses_anonymous_args = 0
 134              		@ link register save eliminated.
 135              	.LVL4:
 105:.\Generated_Source\PSoC5/Clip.c ****     #if(Clip_INPUTS < 8u)
 106:.\Generated_Source\PSoC5/Clip.c ****     	mask &= ((uint8)(1u << Clip_INPUTS) - 1u);
 107:.\Generated_Source\PSoC5/Clip.c **** 	#endif /* End Clip_INPUTS < 8u */
 108:.\Generated_Source\PSoC5/Clip.c ****     Clip_Status_Mask = mask;
 136              		.loc 1 108 0
 137 0000 024B     		ldr	r3, .L11
 106:.\Generated_Source\PSoC5/Clip.c **** 	#endif /* End Clip_INPUTS < 8u */
 138              		.loc 1 106 0
 139 0002 00F00100 		and	r0, r0, #1
 140              	.LVL5:
 141              		.loc 1 108 0
 142 0006 1870     		strb	r0, [r3]
 143 0008 7047     		bx	lr
 144              	.L12:
 145 000a 00BF     		.align	2
 146              	.L11:
 147 000c 87640040 		.word	1073767559
 148              		.cfi_endproc
 149              	.LFE3:
 150              		.size	Clip_WriteMask, .-Clip_WriteMask
 151              		.section	.text.Clip_ReadMask,"ax",%progbits
 152              		.align	1
 153              		.global	Clip_ReadMask
 154              		.thumb
 155              		.thumb_func
 156              		.type	Clip_ReadMask, %function
 157              	Clip_ReadMask:
 158              	.LFB4:
 109:.\Generated_Source\PSoC5/Clip.c **** }
 110:.\Generated_Source\PSoC5/Clip.c **** 
 111:.\Generated_Source\PSoC5/Clip.c **** 
 112:.\Generated_Source\PSoC5/Clip.c **** /*******************************************************************************
 113:.\Generated_Source\PSoC5/Clip.c **** * Function Name: Clip_ReadMask
 114:.\Generated_Source\PSoC5/Clip.c **** ********************************************************************************
 115:.\Generated_Source\PSoC5/Clip.c **** *
 116:.\Generated_Source\PSoC5/Clip.c **** * Summary:
 117:.\Generated_Source\PSoC5/Clip.c **** *  Reads the current interrupt mask assigned to the Status Register.
 118:.\Generated_Source\PSoC5/Clip.c **** *
 119:.\Generated_Source\PSoC5/Clip.c **** * Parameters:
 120:.\Generated_Source\PSoC5/Clip.c **** *  None.
 121:.\Generated_Source\PSoC5/Clip.c **** *
 122:.\Generated_Source\PSoC5/Clip.c **** * Return:
 123:.\Generated_Source\PSoC5/Clip.c **** *  The value of the interrupt mask of the Status Register.
 124:.\Generated_Source\PSoC5/Clip.c **** *
ARM GAS  C:\Users\PIET~1.COU\AppData\Local\Temp\ccOjm301.s 			page 6


 125:.\Generated_Source\PSoC5/Clip.c **** *******************************************************************************/
 126:.\Generated_Source\PSoC5/Clip.c **** uint8 Clip_ReadMask(void) 
 127:.\Generated_Source\PSoC5/Clip.c **** {
 159              		.loc 1 127 0
 160              		.cfi_startproc
 161              		@ args = 0, pretend = 0, frame = 0
 162              		@ frame_needed = 0, uses_anonymous_args = 0
 163              		@ link register save eliminated.
 128:.\Generated_Source\PSoC5/Clip.c ****     return Clip_Status_Mask;
 164              		.loc 1 128 0
 165 0000 014B     		ldr	r3, .L14
 166 0002 1878     		ldrb	r0, [r3]	@ zero_extendqisi2
 129:.\Generated_Source\PSoC5/Clip.c **** }
 167              		.loc 1 129 0
 168 0004 7047     		bx	lr
 169              	.L15:
 170 0006 00BF     		.align	2
 171              	.L14:
 172 0008 87640040 		.word	1073767559
 173              		.cfi_endproc
 174              	.LFE4:
 175              		.size	Clip_ReadMask, .-Clip_ReadMask
 176              		.text
 177              	.Letext0:
 178              		.file 2 ".\\Generated_Source\\PSoC5\\cytypes.h"
 179              		.file 3 ".\\Generated_Source\\PSoC5\\CyLib.h"