ARM GAS  C:\Users\PIET~1.COU\AppData\Local\Temp\ccUpISSh.s 			page 1


   1              		.syntax unified
   2              		.cpu cortex-m3
   3              		.fpu softvfp
   4              		.eabi_attribute 20, 1
   5              		.eabi_attribute 21, 1
   6              		.eabi_attribute 23, 3
   7              		.eabi_attribute 24, 1
   8              		.eabi_attribute 25, 1
   9              		.eabi_attribute 26, 1
  10              		.eabi_attribute 30, 4
  11              		.eabi_attribute 34, 1
  12              		.eabi_attribute 18, 4
  13              		.thumb
  14              		.file	"cyPm.c"
  15              		.text
  16              	.Ltext0:
  17              		.cfi_sections	.debug_frame
  18              		.section	.text.CyPmHibSlpSaveSet,"ax",%progbits
  19              		.align	1
  20              		.thumb
  21              		.thumb_func
  22              		.type	CyPmHibSlpSaveSet, %function
  23              	CyPmHibSlpSaveSet:
  24              	.LFB75:
  25              		.file 1 ".\\Generated_Source\\PSoC5\\cyPm.c"
   1:.\Generated_Source\PSoC5/cyPm.c **** /*******************************************************************************
   2:.\Generated_Source\PSoC5/cyPm.c **** * File Name: cyPm.c
   3:.\Generated_Source\PSoC5/cyPm.c **** * Version 5.20
   4:.\Generated_Source\PSoC5/cyPm.c **** *
   5:.\Generated_Source\PSoC5/cyPm.c **** * Description:
   6:.\Generated_Source\PSoC5/cyPm.c **** *  Provides an API for the power management.
   7:.\Generated_Source\PSoC5/cyPm.c **** *
   8:.\Generated_Source\PSoC5/cyPm.c **** * Note:
   9:.\Generated_Source\PSoC5/cyPm.c **** *  Documentation of the API's in this file is located in the
  10:.\Generated_Source\PSoC5/cyPm.c **** *  System Reference Guide provided with PSoC Creator.
  11:.\Generated_Source\PSoC5/cyPm.c **** *
  12:.\Generated_Source\PSoC5/cyPm.c **** ********************************************************************************
  13:.\Generated_Source\PSoC5/cyPm.c **** * Copyright 2008-2015, Cypress Semiconductor Corporation.  All rights reserved.
  14:.\Generated_Source\PSoC5/cyPm.c **** * You may use this file only in accordance with the license, terms, conditions,
  15:.\Generated_Source\PSoC5/cyPm.c **** * disclaimers, and limitations in the end user license agreement accompanying
  16:.\Generated_Source\PSoC5/cyPm.c **** * the software package with which this file was provided.
  17:.\Generated_Source\PSoC5/cyPm.c **** *******************************************************************************/
  18:.\Generated_Source\PSoC5/cyPm.c **** 
  19:.\Generated_Source\PSoC5/cyPm.c **** #include "cyPm.h"
  20:.\Generated_Source\PSoC5/cyPm.c **** #include "cyapicallbacks.h"
  21:.\Generated_Source\PSoC5/cyPm.c **** 
  22:.\Generated_Source\PSoC5/cyPm.c **** 
  23:.\Generated_Source\PSoC5/cyPm.c **** /*******************************************************************
  24:.\Generated_Source\PSoC5/cyPm.c **** * Place your includes, defines, and code here. Do not use the merge
  25:.\Generated_Source\PSoC5/cyPm.c **** * region below unless any component datasheet suggests doing so.
  26:.\Generated_Source\PSoC5/cyPm.c **** *******************************************************************/
  27:.\Generated_Source\PSoC5/cyPm.c **** /* `#START CY_PM_HEADER_INCLUDE` */
  28:.\Generated_Source\PSoC5/cyPm.c **** 
  29:.\Generated_Source\PSoC5/cyPm.c **** /* `#END` */
  30:.\Generated_Source\PSoC5/cyPm.c **** 
  31:.\Generated_Source\PSoC5/cyPm.c **** 
  32:.\Generated_Source\PSoC5/cyPm.c **** static CY_PM_BACKUP_STRUCT          cyPmBackup;
ARM GAS  C:\Users\PIET~1.COU\AppData\Local\Temp\ccUpISSh.s 			page 2


  33:.\Generated_Source\PSoC5/cyPm.c **** static CY_PM_CLOCK_BACKUP_STRUCT    cyPmClockBackup;
  34:.\Generated_Source\PSoC5/cyPm.c **** 
  35:.\Generated_Source\PSoC5/cyPm.c **** /* Convertion table between register's values and frequency in MHz  */
  36:.\Generated_Source\PSoC5/cyPm.c **** static const uint8 CYCODE cyPmImoFreqReg2Mhz[7u] = {12u, 6u, 24u, 3u, 48u, 62u, 74u};
  37:.\Generated_Source\PSoC5/cyPm.c **** 
  38:.\Generated_Source\PSoC5/cyPm.c **** /* Function Prototypes */
  39:.\Generated_Source\PSoC5/cyPm.c **** static void CyPmHibSaveSet(void);
  40:.\Generated_Source\PSoC5/cyPm.c **** static void CyPmHibRestore(void) ;
  41:.\Generated_Source\PSoC5/cyPm.c **** 
  42:.\Generated_Source\PSoC5/cyPm.c **** static void CyPmHibSlpSaveSet(void) ;
  43:.\Generated_Source\PSoC5/cyPm.c **** static void CyPmHibSlpRestore(void) ;
  44:.\Generated_Source\PSoC5/cyPm.c **** 
  45:.\Generated_Source\PSoC5/cyPm.c **** static void CyPmHviLviSaveDisable(void) ;
  46:.\Generated_Source\PSoC5/cyPm.c **** static void CyPmHviLviRestore(void) ;
  47:.\Generated_Source\PSoC5/cyPm.c **** 
  48:.\Generated_Source\PSoC5/cyPm.c **** 
  49:.\Generated_Source\PSoC5/cyPm.c **** /*******************************************************************************
  50:.\Generated_Source\PSoC5/cyPm.c **** * Function Name: CyPmSaveClocks
  51:.\Generated_Source\PSoC5/cyPm.c **** ********************************************************************************
  52:.\Generated_Source\PSoC5/cyPm.c **** *
  53:.\Generated_Source\PSoC5/cyPm.c **** * Summary:
  54:.\Generated_Source\PSoC5/cyPm.c **** *  This function is called in preparation for entering sleep or hibernate low
  55:.\Generated_Source\PSoC5/cyPm.c **** *  power modes. Saves all the states of the clocking system that do not persist
  56:.\Generated_Source\PSoC5/cyPm.c **** *  during sleep/hibernate or that need to be altered in preparation for
  57:.\Generated_Source\PSoC5/cyPm.c **** *  sleep/hibernate. Shutdowns all the digital and analog clock dividers for the
  58:.\Generated_Source\PSoC5/cyPm.c **** *  active power mode configuration.
  59:.\Generated_Source\PSoC5/cyPm.c **** *
  60:.\Generated_Source\PSoC5/cyPm.c **** *  Switches the master clock over to the IMO and shuts down the PLL and MHz
  61:.\Generated_Source\PSoC5/cyPm.c **** *  Crystal. The IMO frequency is set to either 12 MHz or 48 MHz to match the
  62:.\Generated_Source\PSoC5/cyPm.c **** *  Design-Wide Resources System Editor "Enable Fast IMO During Startup" setting.
  63:.\Generated_Source\PSoC5/cyPm.c **** *  The ILO and 32 KHz oscillators are not impacted. The current Flash wait state
  64:.\Generated_Source\PSoC5/cyPm.c **** *  setting is saved and the Flash wait state setting is set for the current IMO
  65:.\Generated_Source\PSoC5/cyPm.c **** *  speed.
  66:.\Generated_Source\PSoC5/cyPm.c **** *
  67:.\Generated_Source\PSoC5/cyPm.c **** *  Note If the Master Clock source is routed through the DSI inputs, then it
  68:.\Generated_Source\PSoC5/cyPm.c **** *  must be set manually to another source before using the
  69:.\Generated_Source\PSoC5/cyPm.c **** *  CyPmSaveClocks()/CyPmRestoreClocks() functions.
  70:.\Generated_Source\PSoC5/cyPm.c **** *
  71:.\Generated_Source\PSoC5/cyPm.c **** * Parameters:
  72:.\Generated_Source\PSoC5/cyPm.c **** *  None
  73:.\Generated_Source\PSoC5/cyPm.c **** *
  74:.\Generated_Source\PSoC5/cyPm.c **** * Return:
  75:.\Generated_Source\PSoC5/cyPm.c **** *  None
  76:.\Generated_Source\PSoC5/cyPm.c **** *
  77:.\Generated_Source\PSoC5/cyPm.c **** * Side Effects:
  78:.\Generated_Source\PSoC5/cyPm.c **** *  All peripheral clocks are going to be off after this API method call.
  79:.\Generated_Source\PSoC5/cyPm.c **** *
  80:.\Generated_Source\PSoC5/cyPm.c **** *******************************************************************************/
  81:.\Generated_Source\PSoC5/cyPm.c **** void CyPmSaveClocks(void) 
  82:.\Generated_Source\PSoC5/cyPm.c **** {
  83:.\Generated_Source\PSoC5/cyPm.c ****     /* Digital and analog clocks - save enable state and disable them all */
  84:.\Generated_Source\PSoC5/cyPm.c ****     cyPmClockBackup.enClkA = CY_PM_ACT_CFG1_REG & CY_PM_ACT_EN_CLK_A_MASK;
  85:.\Generated_Source\PSoC5/cyPm.c ****     cyPmClockBackup.enClkD = CY_PM_ACT_CFG2_REG;
  86:.\Generated_Source\PSoC5/cyPm.c ****     CY_PM_ACT_CFG1_REG &= ((uint8)(~CY_PM_ACT_EN_CLK_A_MASK));
  87:.\Generated_Source\PSoC5/cyPm.c ****     CY_PM_ACT_CFG2_REG &= ((uint8)(~CY_PM_ACT_EN_CLK_D_MASK));
  88:.\Generated_Source\PSoC5/cyPm.c **** 
  89:.\Generated_Source\PSoC5/cyPm.c ****     /* Save current flash wait cycles and set the maximum value */
ARM GAS  C:\Users\PIET~1.COU\AppData\Local\Temp\ccUpISSh.s 			page 3


  90:.\Generated_Source\PSoC5/cyPm.c ****     cyPmClockBackup.flashWaitCycles = CY_PM_CACHE_CR_CYCLES_MASK & CY_PM_CACHE_CR_REG;
  91:.\Generated_Source\PSoC5/cyPm.c ****     CyFlash_SetWaitCycles(CY_PM_MAX_FLASH_WAIT_CYCLES);
  92:.\Generated_Source\PSoC5/cyPm.c **** 
  93:.\Generated_Source\PSoC5/cyPm.c ****     /* IMO - save current IMO MHz OSC frequency and USB mode is on bit */
  94:.\Generated_Source\PSoC5/cyPm.c ****     cyPmClockBackup.imoFreq = CY_PM_FASTCLK_IMO_CR_REG & CY_PM_FASTCLK_IMO_CR_FREQ_MASK;
  95:.\Generated_Source\PSoC5/cyPm.c ****     cyPmClockBackup.imoUsbClk = CY_PM_FASTCLK_IMO_CR_REG & CY_PM_FASTCLK_IMO_CR_USB;
  96:.\Generated_Source\PSoC5/cyPm.c **** 
  97:.\Generated_Source\PSoC5/cyPm.c ****     /* IMO doubler - save enable state */
  98:.\Generated_Source\PSoC5/cyPm.c ****     if(0u != (CY_PM_FASTCLK_IMO_CR_REG & CY_PM_FASTCLK_IMO_CR_F2XON))
  99:.\Generated_Source\PSoC5/cyPm.c ****     {
 100:.\Generated_Source\PSoC5/cyPm.c ****         /* IMO doubler enabled - save and disable */
 101:.\Generated_Source\PSoC5/cyPm.c ****         cyPmClockBackup.imo2x = CY_PM_ENABLED;
 102:.\Generated_Source\PSoC5/cyPm.c ****     }
 103:.\Generated_Source\PSoC5/cyPm.c ****     else
 104:.\Generated_Source\PSoC5/cyPm.c ****     {
 105:.\Generated_Source\PSoC5/cyPm.c ****         /* IMO doubler disabled */
 106:.\Generated_Source\PSoC5/cyPm.c ****         cyPmClockBackup.imo2x = CY_PM_DISABLED;
 107:.\Generated_Source\PSoC5/cyPm.c ****     }
 108:.\Generated_Source\PSoC5/cyPm.c **** 
 109:.\Generated_Source\PSoC5/cyPm.c ****     /* Master clock - save source */
 110:.\Generated_Source\PSoC5/cyPm.c ****     cyPmClockBackup.masterClkSrc = CY_PM_CLKDIST_MSTR1_REG & CY_PM_MASTER_CLK_SRC_MASK;
 111:.\Generated_Source\PSoC5/cyPm.c **** 
 112:.\Generated_Source\PSoC5/cyPm.c ****     /* Switch Master clock's source from PLL's output to PLL's source */
 113:.\Generated_Source\PSoC5/cyPm.c ****     if(CY_MASTER_SOURCE_PLL == cyPmClockBackup.masterClkSrc)
 114:.\Generated_Source\PSoC5/cyPm.c ****     {
 115:.\Generated_Source\PSoC5/cyPm.c ****         switch (CY_PM_CLKDIST_CR_REG & CY_PM_CLKDIST_PLL_SRC_MASK)
 116:.\Generated_Source\PSoC5/cyPm.c ****         {
 117:.\Generated_Source\PSoC5/cyPm.c ****         case CY_PM_CLKDIST_PLL_SRC_IMO:
 118:.\Generated_Source\PSoC5/cyPm.c ****             CyMasterClk_SetSource(CY_MASTER_SOURCE_IMO);
 119:.\Generated_Source\PSoC5/cyPm.c ****             break;
 120:.\Generated_Source\PSoC5/cyPm.c **** 
 121:.\Generated_Source\PSoC5/cyPm.c ****         case CY_PM_CLKDIST_PLL_SRC_XTAL:
 122:.\Generated_Source\PSoC5/cyPm.c ****             CyMasterClk_SetSource(CY_MASTER_SOURCE_XTAL);
 123:.\Generated_Source\PSoC5/cyPm.c ****             break;
 124:.\Generated_Source\PSoC5/cyPm.c **** 
 125:.\Generated_Source\PSoC5/cyPm.c ****         case CY_PM_CLKDIST_PLL_SRC_DSI:
 126:.\Generated_Source\PSoC5/cyPm.c ****             CyMasterClk_SetSource(CY_MASTER_SOURCE_DSI);
 127:.\Generated_Source\PSoC5/cyPm.c ****             break;
 128:.\Generated_Source\PSoC5/cyPm.c **** 
 129:.\Generated_Source\PSoC5/cyPm.c ****         default:
 130:.\Generated_Source\PSoC5/cyPm.c ****             CYASSERT(0u != 0u);
 131:.\Generated_Source\PSoC5/cyPm.c ****             break;
 132:.\Generated_Source\PSoC5/cyPm.c ****         }
 133:.\Generated_Source\PSoC5/cyPm.c ****     }
 134:.\Generated_Source\PSoC5/cyPm.c **** 
 135:.\Generated_Source\PSoC5/cyPm.c ****     /* PLL - check enable state, disable if needed */
 136:.\Generated_Source\PSoC5/cyPm.c ****     if(0u != (CY_PM_FASTCLK_PLL_CFG0_REG & CY_PM_PLL_CFG0_ENABLE))
 137:.\Generated_Source\PSoC5/cyPm.c ****     {
 138:.\Generated_Source\PSoC5/cyPm.c ****         /* PLL is enabled - save state and disable */
 139:.\Generated_Source\PSoC5/cyPm.c ****         cyPmClockBackup.pllEnableState = CY_PM_ENABLED;
 140:.\Generated_Source\PSoC5/cyPm.c ****         CyPLL_OUT_Stop();
 141:.\Generated_Source\PSoC5/cyPm.c ****     }
 142:.\Generated_Source\PSoC5/cyPm.c ****     else
 143:.\Generated_Source\PSoC5/cyPm.c ****     {
 144:.\Generated_Source\PSoC5/cyPm.c ****         /* PLL is disabled - save state */
 145:.\Generated_Source\PSoC5/cyPm.c ****         cyPmClockBackup.pllEnableState = CY_PM_DISABLED;
 146:.\Generated_Source\PSoC5/cyPm.c ****     }
ARM GAS  C:\Users\PIET~1.COU\AppData\Local\Temp\ccUpISSh.s 			page 4


 147:.\Generated_Source\PSoC5/cyPm.c **** 
 148:.\Generated_Source\PSoC5/cyPm.c ****     /* IMO - set appropriate frequency for LPM */
 149:.\Generated_Source\PSoC5/cyPm.c ****     CyIMO_SetFreq(CY_PM_IMO_FREQ_LPM);
 150:.\Generated_Source\PSoC5/cyPm.c **** 
 151:.\Generated_Source\PSoC5/cyPm.c ****     /* IMO - save enable state and enable without wait to settle */
 152:.\Generated_Source\PSoC5/cyPm.c ****     if(0u != (CY_PM_ACT_CFG0_IMO & CY_PM_ACT_CFG0_REG))
 153:.\Generated_Source\PSoC5/cyPm.c ****     {
 154:.\Generated_Source\PSoC5/cyPm.c ****         /* IMO - save enabled state */
 155:.\Generated_Source\PSoC5/cyPm.c ****         cyPmClockBackup.imoEnable = CY_PM_ENABLED;
 156:.\Generated_Source\PSoC5/cyPm.c ****     }
 157:.\Generated_Source\PSoC5/cyPm.c ****     else
 158:.\Generated_Source\PSoC5/cyPm.c ****     {
 159:.\Generated_Source\PSoC5/cyPm.c ****         /* IMO - save disabled state */
 160:.\Generated_Source\PSoC5/cyPm.c ****         cyPmClockBackup.imoEnable = CY_PM_DISABLED;
 161:.\Generated_Source\PSoC5/cyPm.c **** 
 162:.\Generated_Source\PSoC5/cyPm.c ****         /* Enable the IMO. Use software delay instead of the FTW-based inside */
 163:.\Generated_Source\PSoC5/cyPm.c ****         CyIMO_Start(CY_PM_IMO_NO_WAIT_TO_SETTLE);
 164:.\Generated_Source\PSoC5/cyPm.c **** 
 165:.\Generated_Source\PSoC5/cyPm.c ****         /* Settling time of the IMO is of the order of less than 6us */
 166:.\Generated_Source\PSoC5/cyPm.c ****         CyDelayUs(6u);
 167:.\Generated_Source\PSoC5/cyPm.c ****     }
 168:.\Generated_Source\PSoC5/cyPm.c **** 
 169:.\Generated_Source\PSoC5/cyPm.c ****     /* IMO - save the current IMOCLK source and set to IMO if not yet */
 170:.\Generated_Source\PSoC5/cyPm.c ****     if(0u != (CY_PM_FASTCLK_IMO_CR_REG & CY_PM_FASTCLK_IMO_CR_XCLKEN))
 171:.\Generated_Source\PSoC5/cyPm.c ****     {
 172:.\Generated_Source\PSoC5/cyPm.c ****         /* DSI or XTAL CLK */
 173:.\Generated_Source\PSoC5/cyPm.c ****         cyPmClockBackup.imoClkSrc =
 174:.\Generated_Source\PSoC5/cyPm.c ****             (0u == (CY_PM_CLKDIST_CR_REG & CY_PM_CLKDIST_IMO2X_SRC)) ? CY_IMO_SOURCE_DSI : CY_IMO_S
 175:.\Generated_Source\PSoC5/cyPm.c **** 
 176:.\Generated_Source\PSoC5/cyPm.c ****         /* IMO -  set IMOCLK source to IMO */
 177:.\Generated_Source\PSoC5/cyPm.c ****         CyIMO_SetSource(CY_IMO_SOURCE_IMO);
 178:.\Generated_Source\PSoC5/cyPm.c ****     }
 179:.\Generated_Source\PSoC5/cyPm.c ****     else
 180:.\Generated_Source\PSoC5/cyPm.c ****     {
 181:.\Generated_Source\PSoC5/cyPm.c ****         /* IMO */
 182:.\Generated_Source\PSoC5/cyPm.c ****         cyPmClockBackup.imoClkSrc = CY_IMO_SOURCE_IMO;
 183:.\Generated_Source\PSoC5/cyPm.c ****     }
 184:.\Generated_Source\PSoC5/cyPm.c **** 
 185:.\Generated_Source\PSoC5/cyPm.c ****     /* Save clk_imo source */
 186:.\Generated_Source\PSoC5/cyPm.c ****     cyPmClockBackup.clkImoSrc = CY_PM_CLKDIST_CR_REG & CY_PM_CLKDIST_IMO_OUT_MASK;
 187:.\Generated_Source\PSoC5/cyPm.c **** 
 188:.\Generated_Source\PSoC5/cyPm.c ****     /* If IMOCLK2X or SPC OSC is source for clk_imo, set it to IMOCLK */
 189:.\Generated_Source\PSoC5/cyPm.c ****     if(CY_PM_CLKDIST_IMO_OUT_IMO != cyPmClockBackup.clkImoSrc)
 190:.\Generated_Source\PSoC5/cyPm.c ****     {
 191:.\Generated_Source\PSoC5/cyPm.c ****         /* Set IMOCLK to source for clk_imo */
 192:.\Generated_Source\PSoC5/cyPm.c ****         CY_PM_CLKDIST_CR_REG = (CY_PM_CLKDIST_CR_REG & ((uint8)(~CY_PM_CLKDIST_IMO_OUT_MASK))) |
 193:.\Generated_Source\PSoC5/cyPm.c ****                                 CY_PM_CLKDIST_IMO_OUT_IMO;
 194:.\Generated_Source\PSoC5/cyPm.c ****     }    /* Need to change nothing if IMOCLK is source clk_imo */
 195:.\Generated_Source\PSoC5/cyPm.c **** 
 196:.\Generated_Source\PSoC5/cyPm.c ****     /* IMO doubler - disable it (saved above) */
 197:.\Generated_Source\PSoC5/cyPm.c ****     if(0u != (CY_PM_FASTCLK_IMO_CR_REG & CY_PM_FASTCLK_IMO_CR_F2XON))
 198:.\Generated_Source\PSoC5/cyPm.c ****     {
 199:.\Generated_Source\PSoC5/cyPm.c ****         CyIMO_DisableDoubler();
 200:.\Generated_Source\PSoC5/cyPm.c ****     }
 201:.\Generated_Source\PSoC5/cyPm.c **** 
 202:.\Generated_Source\PSoC5/cyPm.c ****     /* Master clock - save divider and set it to divide-by-one (if no yet) */
 203:.\Generated_Source\PSoC5/cyPm.c ****     cyPmClockBackup.clkSyncDiv = CY_PM_CLKDIST_MSTR0_REG;
ARM GAS  C:\Users\PIET~1.COU\AppData\Local\Temp\ccUpISSh.s 			page 5


 204:.\Generated_Source\PSoC5/cyPm.c ****     if(CY_PM_DIV_BY_ONE != cyPmClockBackup.clkSyncDiv)
 205:.\Generated_Source\PSoC5/cyPm.c ****     {
 206:.\Generated_Source\PSoC5/cyPm.c ****         CyMasterClk_SetDivider(CY_PM_DIV_BY_ONE);
 207:.\Generated_Source\PSoC5/cyPm.c ****     }    /* No change if master clock divider is 1 */
 208:.\Generated_Source\PSoC5/cyPm.c **** 
 209:.\Generated_Source\PSoC5/cyPm.c ****     /* Master clock source - set it to IMO if not yet. */
 210:.\Generated_Source\PSoC5/cyPm.c ****     if(CY_MASTER_SOURCE_IMO != cyPmClockBackup.masterClkSrc)
 211:.\Generated_Source\PSoC5/cyPm.c ****     {
 212:.\Generated_Source\PSoC5/cyPm.c ****         CyMasterClk_SetSource(CY_MASTER_SOURCE_IMO);
 213:.\Generated_Source\PSoC5/cyPm.c ****     }    /* No change if master clock source is IMO */
 214:.\Generated_Source\PSoC5/cyPm.c **** 
 215:.\Generated_Source\PSoC5/cyPm.c ****     /* Bus clock - save divider and set it, if needed, to divide-by-one */
 216:.\Generated_Source\PSoC5/cyPm.c ****     cyPmClockBackup.clkBusDiv = (uint16) ((uint16) CY_PM_CLK_BUS_MSB_DIV_REG << 8u);
 217:.\Generated_Source\PSoC5/cyPm.c ****     cyPmClockBackup.clkBusDiv |= CY_PM_CLK_BUS_LSB_DIV_REG;
 218:.\Generated_Source\PSoC5/cyPm.c ****     if(CY_PM_BUS_CLK_DIV_BY_ONE != cyPmClockBackup.clkBusDiv)
 219:.\Generated_Source\PSoC5/cyPm.c ****     {
 220:.\Generated_Source\PSoC5/cyPm.c ****         CyBusClk_SetDivider(CY_PM_BUS_CLK_DIV_BY_ONE);
 221:.\Generated_Source\PSoC5/cyPm.c ****     }    /* Do nothing if saved and actual values are equal */
 222:.\Generated_Source\PSoC5/cyPm.c **** 
 223:.\Generated_Source\PSoC5/cyPm.c ****     /* Set number of wait cycles for flash according to CPU frequency in MHz */
 224:.\Generated_Source\PSoC5/cyPm.c ****     CyFlash_SetWaitCycles((uint8)CY_PM_GET_CPU_FREQ_MHZ);
 225:.\Generated_Source\PSoC5/cyPm.c **** 
 226:.\Generated_Source\PSoC5/cyPm.c ****     /* MHz ECO - check enable state and disable if needed */
 227:.\Generated_Source\PSoC5/cyPm.c ****     if(0u != (CY_PM_FASTCLK_XMHZ_CSR_REG & CY_PM_XMHZ_CSR_ENABLE))
 228:.\Generated_Source\PSoC5/cyPm.c ****     {
 229:.\Generated_Source\PSoC5/cyPm.c ****         /* MHz ECO is enabled - save state and disable */
 230:.\Generated_Source\PSoC5/cyPm.c ****         cyPmClockBackup.xmhzEnableState = CY_PM_ENABLED;
 231:.\Generated_Source\PSoC5/cyPm.c ****         CyXTAL_Stop();
 232:.\Generated_Source\PSoC5/cyPm.c ****     }
 233:.\Generated_Source\PSoC5/cyPm.c ****     else
 234:.\Generated_Source\PSoC5/cyPm.c ****     {
 235:.\Generated_Source\PSoC5/cyPm.c ****         /* MHz ECO is disabled - save state */
 236:.\Generated_Source\PSoC5/cyPm.c ****         cyPmClockBackup.xmhzEnableState = CY_PM_DISABLED;
 237:.\Generated_Source\PSoC5/cyPm.c ****     }
 238:.\Generated_Source\PSoC5/cyPm.c **** 
 239:.\Generated_Source\PSoC5/cyPm.c **** 
 240:.\Generated_Source\PSoC5/cyPm.c ****     /***************************************************************************
 241:.\Generated_Source\PSoC5/cyPm.c ****     * Save the enable state of delay between the system bus clock and each of the
 242:.\Generated_Source\PSoC5/cyPm.c ****     * 4 individual analog clocks. This bit non-retention and its value should
 243:.\Generated_Source\PSoC5/cyPm.c ****     * be restored on wakeup.
 244:.\Generated_Source\PSoC5/cyPm.c ****     ***************************************************************************/
 245:.\Generated_Source\PSoC5/cyPm.c ****     if(0u != (CY_PM_CLKDIST_DELAY_REG & CY_PM_CLKDIST_DELAY_EN))
 246:.\Generated_Source\PSoC5/cyPm.c ****     {
 247:.\Generated_Source\PSoC5/cyPm.c ****         cyPmClockBackup.clkDistDelay = CY_PM_ENABLED;
 248:.\Generated_Source\PSoC5/cyPm.c ****     }
 249:.\Generated_Source\PSoC5/cyPm.c ****     else
 250:.\Generated_Source\PSoC5/cyPm.c ****     {
 251:.\Generated_Source\PSoC5/cyPm.c ****         cyPmClockBackup.clkDistDelay = CY_PM_DISABLED;
 252:.\Generated_Source\PSoC5/cyPm.c ****     }
 253:.\Generated_Source\PSoC5/cyPm.c **** }
 254:.\Generated_Source\PSoC5/cyPm.c **** 
 255:.\Generated_Source\PSoC5/cyPm.c **** 
 256:.\Generated_Source\PSoC5/cyPm.c **** /*******************************************************************************
 257:.\Generated_Source\PSoC5/cyPm.c **** * Function Name: CyPmRestoreClocks
 258:.\Generated_Source\PSoC5/cyPm.c **** ********************************************************************************
 259:.\Generated_Source\PSoC5/cyPm.c **** *
 260:.\Generated_Source\PSoC5/cyPm.c **** * Summary:
ARM GAS  C:\Users\PIET~1.COU\AppData\Local\Temp\ccUpISSh.s 			page 6


 261:.\Generated_Source\PSoC5/cyPm.c **** *  Restores any state that was preserved by the last call to CyPmSaveClocks().
 262:.\Generated_Source\PSoC5/cyPm.c **** *  The Flash wait state setting is also restored.
 263:.\Generated_Source\PSoC5/cyPm.c **** *
 264:.\Generated_Source\PSoC5/cyPm.c **** *  Note If the Master Clock source is routed through the DSI inputs, then it
 265:.\Generated_Source\PSoC5/cyPm.c **** *  must be set manually to another source before using the
 266:.\Generated_Source\PSoC5/cyPm.c **** *  CyPmSaveClocks()/CyPmRestoreClocks() functions.
 267:.\Generated_Source\PSoC5/cyPm.c **** *
 268:.\Generated_Source\PSoC5/cyPm.c **** *  PSoC 3 and PSoC 5LP:
 269:.\Generated_Source\PSoC5/cyPm.c **** *  The merge region could be used to process state when the megahertz crystal is
 270:.\Generated_Source\PSoC5/cyPm.c **** *  not ready after a hold-off timeout.
 271:.\Generated_Source\PSoC5/cyPm.c **** *
 272:.\Generated_Source\PSoC5/cyPm.c **** *  PSoC 5:
 273:.\Generated_Source\PSoC5/cyPm.c **** *  The 130 ms is given for the megahertz crystal to stabilize. Its readiness is
 274:.\Generated_Source\PSoC5/cyPm.c **** *  not verified after a hold-off timeout.
 275:.\Generated_Source\PSoC5/cyPm.c **** *
 276:.\Generated_Source\PSoC5/cyPm.c **** * Parameters:
 277:.\Generated_Source\PSoC5/cyPm.c **** *  None
 278:.\Generated_Source\PSoC5/cyPm.c **** *
 279:.\Generated_Source\PSoC5/cyPm.c **** * Return:
 280:.\Generated_Source\PSoC5/cyPm.c **** *  None
 281:.\Generated_Source\PSoC5/cyPm.c **** *
 282:.\Generated_Source\PSoC5/cyPm.c **** *******************************************************************************/
 283:.\Generated_Source\PSoC5/cyPm.c **** void CyPmRestoreClocks(void) 
 284:.\Generated_Source\PSoC5/cyPm.c **** {
 285:.\Generated_Source\PSoC5/cyPm.c ****     cystatus status = CYRET_TIMEOUT;
 286:.\Generated_Source\PSoC5/cyPm.c ****     uint16 i;
 287:.\Generated_Source\PSoC5/cyPm.c ****     uint16 clkBusDivTmp;
 288:.\Generated_Source\PSoC5/cyPm.c **** 
 289:.\Generated_Source\PSoC5/cyPm.c **** 
 290:.\Generated_Source\PSoC5/cyPm.c ****     /* Convertion table between CyIMO_SetFreq() parameters and register's value */
 291:.\Generated_Source\PSoC5/cyPm.c ****     const uint8 CYCODE cyPmImoFreqMhz2Reg[7u] = {
 292:.\Generated_Source\PSoC5/cyPm.c ****         CY_IMO_FREQ_12MHZ, CY_IMO_FREQ_6MHZ,  CY_IMO_FREQ_24MHZ, CY_IMO_FREQ_3MHZ,
 293:.\Generated_Source\PSoC5/cyPm.c ****         CY_IMO_FREQ_48MHZ, 5u, 6u};
 294:.\Generated_Source\PSoC5/cyPm.c **** 
 295:.\Generated_Source\PSoC5/cyPm.c ****     /* Restore enable state of delay between system bus clock and ACLKs. */
 296:.\Generated_Source\PSoC5/cyPm.c ****     if(CY_PM_ENABLED == cyPmClockBackup.clkDistDelay)
 297:.\Generated_Source\PSoC5/cyPm.c ****     {
 298:.\Generated_Source\PSoC5/cyPm.c ****         /* Delay for both bandgap and delay line to settle out */
 299:.\Generated_Source\PSoC5/cyPm.c ****         CyDelayCycles((uint32)(CY_PM_CLK_DELAY_BANDGAP_SETTLE_US + CY_PM_CLK_DELAY_BIAS_SETTLE_US) 
 300:.\Generated_Source\PSoC5/cyPm.c ****                         CY_PM_GET_CPU_FREQ_MHZ);
 301:.\Generated_Source\PSoC5/cyPm.c **** 
 302:.\Generated_Source\PSoC5/cyPm.c ****         CY_PM_CLKDIST_DELAY_REG |= CY_PM_CLKDIST_DELAY_EN;
 303:.\Generated_Source\PSoC5/cyPm.c ****     }
 304:.\Generated_Source\PSoC5/cyPm.c **** 
 305:.\Generated_Source\PSoC5/cyPm.c ****     /* MHz ECO restore state */
 306:.\Generated_Source\PSoC5/cyPm.c ****     if(CY_PM_ENABLED == cyPmClockBackup.xmhzEnableState)
 307:.\Generated_Source\PSoC5/cyPm.c ****     {
 308:.\Generated_Source\PSoC5/cyPm.c ****         /***********************************************************************
 309:.\Generated_Source\PSoC5/cyPm.c ****         * Enabling XMHZ XTAL. The actual CyXTAL_Start() with a non zero wait
 310:.\Generated_Source\PSoC5/cyPm.c ****         * period uses FTW for period measurement. This could cause a problem
 311:.\Generated_Source\PSoC5/cyPm.c ****         * if CTW/FTW is used as a wake up time in the low power modes APIs.
 312:.\Generated_Source\PSoC5/cyPm.c ****         * So, the XTAL wait procedure is implemented with a software delay.
 313:.\Generated_Source\PSoC5/cyPm.c ****         ***********************************************************************/
 314:.\Generated_Source\PSoC5/cyPm.c **** 
 315:.\Generated_Source\PSoC5/cyPm.c ****         /* Enable XMHZ XTAL with no wait */
 316:.\Generated_Source\PSoC5/cyPm.c ****         (void) CyXTAL_Start(CY_PM_XTAL_MHZ_NO_WAIT);
 317:.\Generated_Source\PSoC5/cyPm.c **** 
ARM GAS  C:\Users\PIET~1.COU\AppData\Local\Temp\ccUpISSh.s 			page 7


 318:.\Generated_Source\PSoC5/cyPm.c ****         /* Read XERR bit to clear it */
 319:.\Generated_Source\PSoC5/cyPm.c ****         (void) CY_PM_FASTCLK_XMHZ_CSR_REG;
 320:.\Generated_Source\PSoC5/cyPm.c **** 
 321:.\Generated_Source\PSoC5/cyPm.c ****         /* Wait */
 322:.\Generated_Source\PSoC5/cyPm.c ****         for(i = CY_PM_MHZ_XTAL_WAIT_NUM_OF_200_US; i > 0u; i--)
 323:.\Generated_Source\PSoC5/cyPm.c ****         {
 324:.\Generated_Source\PSoC5/cyPm.c ****             /* Make a 200 microseconds delay */
 325:.\Generated_Source\PSoC5/cyPm.c ****             CyDelayCycles((uint32)CY_PM_WAIT_200_US * CY_PM_GET_CPU_FREQ_MHZ);
 326:.\Generated_Source\PSoC5/cyPm.c **** 
 327:.\Generated_Source\PSoC5/cyPm.c ****             /* High output indicates oscillator failure */
 328:.\Generated_Source\PSoC5/cyPm.c ****             if(0u == (CY_PM_FASTCLK_XMHZ_CSR_REG & CY_PM_XMHZ_CSR_XERR))
 329:.\Generated_Source\PSoC5/cyPm.c ****             {
 330:.\Generated_Source\PSoC5/cyPm.c ****                 status = CYRET_SUCCESS;
 331:.\Generated_Source\PSoC5/cyPm.c ****                 break;
 332:.\Generated_Source\PSoC5/cyPm.c ****             }
 333:.\Generated_Source\PSoC5/cyPm.c ****         }
 334:.\Generated_Source\PSoC5/cyPm.c **** 
 335:.\Generated_Source\PSoC5/cyPm.c ****         if(CYRET_TIMEOUT == status)
 336:.\Generated_Source\PSoC5/cyPm.c ****         {
 337:.\Generated_Source\PSoC5/cyPm.c ****             /*******************************************************************
 338:.\Generated_Source\PSoC5/cyPm.c ****             * Process the situation when megahertz crystal is not ready.
 339:.\Generated_Source\PSoC5/cyPm.c ****             * Time to stabilize the value is crystal specific.
 340:.\Generated_Source\PSoC5/cyPm.c ****             *******************************************************************/
 341:.\Generated_Source\PSoC5/cyPm.c ****            /* `#START_MHZ_ECO_TIMEOUT` */
 342:.\Generated_Source\PSoC5/cyPm.c **** 
 343:.\Generated_Source\PSoC5/cyPm.c ****            /* `#END` */
 344:.\Generated_Source\PSoC5/cyPm.c **** 
 345:.\Generated_Source\PSoC5/cyPm.c ****         #ifdef CY_BOOT_CY_PM_RESTORE_CLOCKS_ECO_TIMEOUT_CALLBACK
 346:.\Generated_Source\PSoC5/cyPm.c ****             CyBoot_CyPmRestoreClocks_EcoTimeout_Callback();
 347:.\Generated_Source\PSoC5/cyPm.c ****         #endif /* CY_BOOT_CY_PM_RESTORE_CLOCKS_ECO_TIMEOUT_CALLBACK */
 348:.\Generated_Source\PSoC5/cyPm.c ****         }
 349:.\Generated_Source\PSoC5/cyPm.c ****     }   /* (CY_PM_ENABLED == cyPmClockBackup.xmhzEnableState) */
 350:.\Generated_Source\PSoC5/cyPm.c **** 
 351:.\Generated_Source\PSoC5/cyPm.c **** 
 352:.\Generated_Source\PSoC5/cyPm.c ****     /* Temporary set maximum flash wait cycles */
 353:.\Generated_Source\PSoC5/cyPm.c ****     CyFlash_SetWaitCycles(CY_PM_MAX_FLASH_WAIT_CYCLES);
 354:.\Generated_Source\PSoC5/cyPm.c **** 
 355:.\Generated_Source\PSoC5/cyPm.c ****     /* XTAL and DSI clocks are ready to be source for Master clock. */
 356:.\Generated_Source\PSoC5/cyPm.c ****     if((CY_PM_MASTER_CLK_SRC_XTAL == cyPmClockBackup.masterClkSrc) ||
 357:.\Generated_Source\PSoC5/cyPm.c ****        (CY_PM_MASTER_CLK_SRC_DSI  == cyPmClockBackup.masterClkSrc))
 358:.\Generated_Source\PSoC5/cyPm.c ****     {
 359:.\Generated_Source\PSoC5/cyPm.c ****         /* Restore Master clock's divider */
 360:.\Generated_Source\PSoC5/cyPm.c ****         if(CY_PM_CLKDIST_MSTR0_REG != cyPmClockBackup.clkSyncDiv)
 361:.\Generated_Source\PSoC5/cyPm.c ****         {
 362:.\Generated_Source\PSoC5/cyPm.c ****             /* Restore Master clock divider */
 363:.\Generated_Source\PSoC5/cyPm.c ****             CyMasterClk_SetDivider(cyPmClockBackup.clkSyncDiv);
 364:.\Generated_Source\PSoC5/cyPm.c ****         }
 365:.\Generated_Source\PSoC5/cyPm.c **** 
 366:.\Generated_Source\PSoC5/cyPm.c ****         /* Restore Master clock source */
 367:.\Generated_Source\PSoC5/cyPm.c ****         CyMasterClk_SetSource(cyPmClockBackup.masterClkSrc);
 368:.\Generated_Source\PSoC5/cyPm.c ****     }
 369:.\Generated_Source\PSoC5/cyPm.c **** 
 370:.\Generated_Source\PSoC5/cyPm.c ****     /* IMO - restore IMO frequency */
 371:.\Generated_Source\PSoC5/cyPm.c ****     if((0u != (cyPmClockBackup.imoUsbClk & CY_PM_FASTCLK_IMO_CR_USB)) &&
 372:.\Generated_Source\PSoC5/cyPm.c ****         (CY_IMO_FREQ_24MHZ == cyPmImoFreqMhz2Reg[cyPmClockBackup.imoFreq]))
 373:.\Generated_Source\PSoC5/cyPm.c ****     {
 374:.\Generated_Source\PSoC5/cyPm.c ****         /* Restore IMO frequency (24 MHz) and trim it for USB */
ARM GAS  C:\Users\PIET~1.COU\AppData\Local\Temp\ccUpISSh.s 			page 8


 375:.\Generated_Source\PSoC5/cyPm.c ****         CyIMO_SetFreq(CY_IMO_FREQ_USB);
 376:.\Generated_Source\PSoC5/cyPm.c ****     }
 377:.\Generated_Source\PSoC5/cyPm.c ****     else
 378:.\Generated_Source\PSoC5/cyPm.c ****     {
 379:.\Generated_Source\PSoC5/cyPm.c ****         /* Restore IMO frequency */
 380:.\Generated_Source\PSoC5/cyPm.c ****         CyIMO_SetFreq(cyPmImoFreqMhz2Reg[cyPmClockBackup.imoFreq]);
 381:.\Generated_Source\PSoC5/cyPm.c **** 
 382:.\Generated_Source\PSoC5/cyPm.c ****         if(0u != (cyPmClockBackup.imoUsbClk & CY_PM_FASTCLK_IMO_CR_USB))
 383:.\Generated_Source\PSoC5/cyPm.c ****         {
 384:.\Generated_Source\PSoC5/cyPm.c ****             CY_PM_FASTCLK_IMO_CR_REG |= CY_PM_FASTCLK_IMO_CR_USB;
 385:.\Generated_Source\PSoC5/cyPm.c ****         }
 386:.\Generated_Source\PSoC5/cyPm.c ****         else
 387:.\Generated_Source\PSoC5/cyPm.c ****         {
 388:.\Generated_Source\PSoC5/cyPm.c ****             CY_PM_FASTCLK_IMO_CR_REG &= ((uint8)(~CY_PM_FASTCLK_IMO_CR_USB));
 389:.\Generated_Source\PSoC5/cyPm.c ****         }
 390:.\Generated_Source\PSoC5/cyPm.c ****     }
 391:.\Generated_Source\PSoC5/cyPm.c **** 
 392:.\Generated_Source\PSoC5/cyPm.c ****     /* IMO - restore enable state if needed */
 393:.\Generated_Source\PSoC5/cyPm.c ****     if((CY_PM_ENABLED == cyPmClockBackup.imoEnable) &&
 394:.\Generated_Source\PSoC5/cyPm.c ****        (0u == (CY_PM_ACT_CFG0_IMO & CY_PM_ACT_CFG0_REG)))
 395:.\Generated_Source\PSoC5/cyPm.c ****     {
 396:.\Generated_Source\PSoC5/cyPm.c ****         /* IMO - restore enabled state */
 397:.\Generated_Source\PSoC5/cyPm.c ****         CyIMO_Start(CY_PM_IMO_NO_WAIT_TO_SETTLE);
 398:.\Generated_Source\PSoC5/cyPm.c ****     }
 399:.\Generated_Source\PSoC5/cyPm.c **** 
 400:.\Generated_Source\PSoC5/cyPm.c ****     /* IMO - restore IMOCLK source */
 401:.\Generated_Source\PSoC5/cyPm.c ****     CyIMO_SetSource(cyPmClockBackup.imoClkSrc);
 402:.\Generated_Source\PSoC5/cyPm.c **** 
 403:.\Generated_Source\PSoC5/cyPm.c ****     /* Restore IMO doubler enable state (turned off by CyPmSaveClocks()) */
 404:.\Generated_Source\PSoC5/cyPm.c ****     if(CY_PM_ENABLED == cyPmClockBackup.imo2x)
 405:.\Generated_Source\PSoC5/cyPm.c ****     {
 406:.\Generated_Source\PSoC5/cyPm.c ****         CyIMO_EnableDoubler();
 407:.\Generated_Source\PSoC5/cyPm.c ****     }
 408:.\Generated_Source\PSoC5/cyPm.c **** 
 409:.\Generated_Source\PSoC5/cyPm.c ****     /* IMO - restore clk_imo source, if needed */
 410:.\Generated_Source\PSoC5/cyPm.c ****     if(cyPmClockBackup.clkImoSrc != (CY_PM_CLKDIST_CR_REG & CY_PM_CLKDIST_IMO_OUT_MASK))
 411:.\Generated_Source\PSoC5/cyPm.c ****     {
 412:.\Generated_Source\PSoC5/cyPm.c ****         CY_PM_CLKDIST_CR_REG = (CY_PM_CLKDIST_CR_REG & ((uint8)(~CY_PM_CLKDIST_IMO_OUT_MASK))) |
 413:.\Generated_Source\PSoC5/cyPm.c ****                                 cyPmClockBackup.clkImoSrc;
 414:.\Generated_Source\PSoC5/cyPm.c ****     }
 415:.\Generated_Source\PSoC5/cyPm.c **** 
 416:.\Generated_Source\PSoC5/cyPm.c **** 
 417:.\Generated_Source\PSoC5/cyPm.c ****     /* PLL restore state */
 418:.\Generated_Source\PSoC5/cyPm.c ****     if(CY_PM_ENABLED == cyPmClockBackup.pllEnableState)
 419:.\Generated_Source\PSoC5/cyPm.c ****     {
 420:.\Generated_Source\PSoC5/cyPm.c ****         /***********************************************************************
 421:.\Generated_Source\PSoC5/cyPm.c ****         * Enable PLL. The actual CyPLL_OUT_Start() without wait period uses FTW
 422:.\Generated_Source\PSoC5/cyPm.c ****         * for period measurement. This could cause a problem if CTW/FTW is used
 423:.\Generated_Source\PSoC5/cyPm.c ****         * as a wakeup time in the low power modes APIs. To omit this issue PLL
 424:.\Generated_Source\PSoC5/cyPm.c ****         * wait procedure is implemented with a software delay.
 425:.\Generated_Source\PSoC5/cyPm.c ****         ***********************************************************************/
 426:.\Generated_Source\PSoC5/cyPm.c ****         status = CYRET_TIMEOUT;
 427:.\Generated_Source\PSoC5/cyPm.c **** 
 428:.\Generated_Source\PSoC5/cyPm.c ****         /* Enable PLL */
 429:.\Generated_Source\PSoC5/cyPm.c ****         (void) CyPLL_OUT_Start(CY_PM_PLL_OUT_NO_WAIT);
 430:.\Generated_Source\PSoC5/cyPm.c **** 
 431:.\Generated_Source\PSoC5/cyPm.c ****         /* Read to clear lock status after delay */
ARM GAS  C:\Users\PIET~1.COU\AppData\Local\Temp\ccUpISSh.s 			page 9


 432:.\Generated_Source\PSoC5/cyPm.c ****         CyDelayUs((uint32)80u);
 433:.\Generated_Source\PSoC5/cyPm.c ****         (void) CY_PM_FASTCLK_PLL_SR_REG;
 434:.\Generated_Source\PSoC5/cyPm.c **** 
 435:.\Generated_Source\PSoC5/cyPm.c ****         /* It should take 250 us lock: 251-80 = 171 */
 436:.\Generated_Source\PSoC5/cyPm.c ****         for(i = 171u; i > 0u; i--)
 437:.\Generated_Source\PSoC5/cyPm.c ****         {
 438:.\Generated_Source\PSoC5/cyPm.c ****             CyDelayUs((uint32)1u);
 439:.\Generated_Source\PSoC5/cyPm.c **** 
 440:.\Generated_Source\PSoC5/cyPm.c ****             /* Accept PLL is OK after two consecutive polls indicate PLL lock */
 441:.\Generated_Source\PSoC5/cyPm.c ****             if((0u != (CY_PM_FASTCLK_PLL_SR_REG & CY_PM_FASTCLK_PLL_LOCKED)) &&
 442:.\Generated_Source\PSoC5/cyPm.c ****                (0u != (CY_PM_FASTCLK_PLL_SR_REG & CY_PM_FASTCLK_PLL_LOCKED)))
 443:.\Generated_Source\PSoC5/cyPm.c ****             {
 444:.\Generated_Source\PSoC5/cyPm.c ****                 status = CYRET_SUCCESS;
 445:.\Generated_Source\PSoC5/cyPm.c ****                 break;
 446:.\Generated_Source\PSoC5/cyPm.c ****             }
 447:.\Generated_Source\PSoC5/cyPm.c ****         }
 448:.\Generated_Source\PSoC5/cyPm.c **** 
 449:.\Generated_Source\PSoC5/cyPm.c ****         if(CYRET_TIMEOUT == status)
 450:.\Generated_Source\PSoC5/cyPm.c ****         {
 451:.\Generated_Source\PSoC5/cyPm.c ****             /*******************************************************************
 452:.\Generated_Source\PSoC5/cyPm.c ****             * Process the situation when PLL is not ready.
 453:.\Generated_Source\PSoC5/cyPm.c ****             *******************************************************************/
 454:.\Generated_Source\PSoC5/cyPm.c ****            /* `#START_PLL_TIMEOUT` */
 455:.\Generated_Source\PSoC5/cyPm.c **** 
 456:.\Generated_Source\PSoC5/cyPm.c ****            /* `#END` */
 457:.\Generated_Source\PSoC5/cyPm.c **** 
 458:.\Generated_Source\PSoC5/cyPm.c ****         #ifdef CY_BOOT_CY_PM_RESTORE_CLOCKS_PLL_TIMEOUT_CALLBACK
 459:.\Generated_Source\PSoC5/cyPm.c ****             CyBoot_CyPmRestoreClocks_PllTimeout_Callback();
 460:.\Generated_Source\PSoC5/cyPm.c ****         #endif /* CY_BOOT_CY_PM_RESTORE_CLOCKS_PLL_TIMEOUT_CALLBACK */
 461:.\Generated_Source\PSoC5/cyPm.c ****         }
 462:.\Generated_Source\PSoC5/cyPm.c ****     }   /* (CY_PM_ENABLED == cyPmClockBackup.pllEnableState) */
 463:.\Generated_Source\PSoC5/cyPm.c **** 
 464:.\Generated_Source\PSoC5/cyPm.c **** 
 465:.\Generated_Source\PSoC5/cyPm.c ****     /* PLL and IMO is ready to be source for Master clock */
 466:.\Generated_Source\PSoC5/cyPm.c ****     if((CY_PM_MASTER_CLK_SRC_IMO == cyPmClockBackup.masterClkSrc) ||
 467:.\Generated_Source\PSoC5/cyPm.c ****        (CY_PM_MASTER_CLK_SRC_PLL == cyPmClockBackup.masterClkSrc))
 468:.\Generated_Source\PSoC5/cyPm.c ****     {
 469:.\Generated_Source\PSoC5/cyPm.c ****         /* Restore Master clock divider */
 470:.\Generated_Source\PSoC5/cyPm.c ****         if(CY_PM_CLKDIST_MSTR0_REG != cyPmClockBackup.clkSyncDiv)
 471:.\Generated_Source\PSoC5/cyPm.c ****         {
 472:.\Generated_Source\PSoC5/cyPm.c ****             CyMasterClk_SetDivider(cyPmClockBackup.clkSyncDiv);
 473:.\Generated_Source\PSoC5/cyPm.c ****         }
 474:.\Generated_Source\PSoC5/cyPm.c **** 
 475:.\Generated_Source\PSoC5/cyPm.c ****         /* Restore Master clock source */
 476:.\Generated_Source\PSoC5/cyPm.c ****         CyMasterClk_SetSource(cyPmClockBackup.masterClkSrc);
 477:.\Generated_Source\PSoC5/cyPm.c ****     }
 478:.\Generated_Source\PSoC5/cyPm.c **** 
 479:.\Generated_Source\PSoC5/cyPm.c ****     /* IMO - disable if it was originally disabled */
 480:.\Generated_Source\PSoC5/cyPm.c ****     if((CY_PM_DISABLED == cyPmClockBackup.imoEnable) &&
 481:.\Generated_Source\PSoC5/cyPm.c ****        (0u != (CY_PM_ACT_CFG0_IMO & CY_PM_ACT_CFG0_REG)))
 482:.\Generated_Source\PSoC5/cyPm.c ****     {
 483:.\Generated_Source\PSoC5/cyPm.c ****         CyIMO_Stop();
 484:.\Generated_Source\PSoC5/cyPm.c ****     }
 485:.\Generated_Source\PSoC5/cyPm.c **** 
 486:.\Generated_Source\PSoC5/cyPm.c ****     /* Bus clock - restore divider, if needed */
 487:.\Generated_Source\PSoC5/cyPm.c ****     clkBusDivTmp = (uint16) ((uint16)CY_PM_CLK_BUS_MSB_DIV_REG << 8u);
 488:.\Generated_Source\PSoC5/cyPm.c ****     clkBusDivTmp |= CY_PM_CLK_BUS_LSB_DIV_REG;
ARM GAS  C:\Users\PIET~1.COU\AppData\Local\Temp\ccUpISSh.s 			page 10


 489:.\Generated_Source\PSoC5/cyPm.c ****     if(cyPmClockBackup.clkBusDiv != clkBusDivTmp)
 490:.\Generated_Source\PSoC5/cyPm.c ****     {
 491:.\Generated_Source\PSoC5/cyPm.c ****         CyBusClk_SetDivider(cyPmClockBackup.clkBusDiv);
 492:.\Generated_Source\PSoC5/cyPm.c ****     }
 493:.\Generated_Source\PSoC5/cyPm.c **** 
 494:.\Generated_Source\PSoC5/cyPm.c ****     /* Restore flash wait cycles */
 495:.\Generated_Source\PSoC5/cyPm.c ****     CY_PM_CACHE_CR_REG = ((CY_PM_CACHE_CR_REG & ((uint8)(~CY_PM_CACHE_CR_CYCLES_MASK))) |
 496:.\Generated_Source\PSoC5/cyPm.c ****                            cyPmClockBackup.flashWaitCycles);
 497:.\Generated_Source\PSoC5/cyPm.c **** 
 498:.\Generated_Source\PSoC5/cyPm.c ****     /* Digital and analog clocks - restore state */
 499:.\Generated_Source\PSoC5/cyPm.c ****     CY_PM_ACT_CFG1_REG = cyPmClockBackup.enClkA;
 500:.\Generated_Source\PSoC5/cyPm.c ****     CY_PM_ACT_CFG2_REG = cyPmClockBackup.enClkD;
 501:.\Generated_Source\PSoC5/cyPm.c **** }
 502:.\Generated_Source\PSoC5/cyPm.c **** 
 503:.\Generated_Source\PSoC5/cyPm.c **** 
 504:.\Generated_Source\PSoC5/cyPm.c **** /*******************************************************************************
 505:.\Generated_Source\PSoC5/cyPm.c **** * Function Name: CyPmAltAct
 506:.\Generated_Source\PSoC5/cyPm.c **** ********************************************************************************
 507:.\Generated_Source\PSoC5/cyPm.c **** *
 508:.\Generated_Source\PSoC5/cyPm.c **** * Summary:
 509:.\Generated_Source\PSoC5/cyPm.c **** *  Puts the part into the Alternate Active (Standby) state. The Alternate Active
 510:.\Generated_Source\PSoC5/cyPm.c **** *  state can allow for any of the capabilities of the device to be active, but
 511:.\Generated_Source\PSoC5/cyPm.c **** *  the operation of this function is dependent on the CPU being disabled during
 512:.\Generated_Source\PSoC5/cyPm.c **** *  the Alternate Active state. The configuration code and the component APIs
 513:.\Generated_Source\PSoC5/cyPm.c **** *  will configure the template for the Alternate Active state to be the same as
 514:.\Generated_Source\PSoC5/cyPm.c **** *  the Active state with the exception that the CPU will be disabled during
 515:.\Generated_Source\PSoC5/cyPm.c **** *  Alternate Active.
 516:.\Generated_Source\PSoC5/cyPm.c **** *
 517:.\Generated_Source\PSoC5/cyPm.c **** *  Note Before calling this function, you must manually configure the power mode
 518:.\Generated_Source\PSoC5/cyPm.c **** *  of the source clocks for the timer that is used as the wakeup timer.
 519:.\Generated_Source\PSoC5/cyPm.c **** *
 520:.\Generated_Source\PSoC5/cyPm.c **** *  PSoC 3:
 521:.\Generated_Source\PSoC5/cyPm.c **** *  Before switching to Alternate Active, if a wakeupTime other than NONE is
 522:.\Generated_Source\PSoC5/cyPm.c **** *  specified, then the appropriate timer state is configured as specified with
 523:.\Generated_Source\PSoC5/cyPm.c **** *  the interrupt for that timer disabled.  The wakeup source will be the
 524:.\Generated_Source\PSoC5/cyPm.c **** *  combination of the values specified in the wakeupSource and any timer
 525:.\Generated_Source\PSoC5/cyPm.c **** *  specified in the wakeupTime argument.  Once the wakeup condition is
 526:.\Generated_Source\PSoC5/cyPm.c **** *  satisfied, then all saved state is restored and the function returns in the
 527:.\Generated_Source\PSoC5/cyPm.c **** *  Active state.
 528:.\Generated_Source\PSoC5/cyPm.c **** *
 529:.\Generated_Source\PSoC5/cyPm.c **** *  Note that if the wakeupTime is made with a different value, the period before
 530:.\Generated_Source\PSoC5/cyPm.c **** *  the wakeup occurs can be significantly shorter than the specified time.  If
 531:.\Generated_Source\PSoC5/cyPm.c **** *  the next call is made with the same wakeupTime value, then the wakeup will
 532:.\Generated_Source\PSoC5/cyPm.c **** *  occur the specified period after the previous wakeup occurred.
 533:.\Generated_Source\PSoC5/cyPm.c **** *
 534:.\Generated_Source\PSoC5/cyPm.c **** *  If a wakeupTime other than NONE is specified, then upon exit the state of the
 535:.\Generated_Source\PSoC5/cyPm.c **** *  specified timer will be left as specified by wakeupTime with the timer
 536:.\Generated_Source\PSoC5/cyPm.c **** *  enabled and the interrupt disabled.  If the CTW, FTW or One PPS is already
 537:.\Generated_Source\PSoC5/cyPm.c **** *  configured for wakeup, for example with the SleepTimer or RTC components,
 538:.\Generated_Source\PSoC5/cyPm.c **** *  then specify NONE for the wakeupTime and include the appropriate source for
 539:.\Generated_Source\PSoC5/cyPm.c **** *  wakeupSource.
 540:.\Generated_Source\PSoC5/cyPm.c **** *
 541:.\Generated_Source\PSoC5/cyPm.c **** *  PSoC 5LP:
 542:.\Generated_Source\PSoC5/cyPm.c **** *  This function is used to both enter the Alternate Active mode and halt the
 543:.\Generated_Source\PSoC5/cyPm.c **** *  processor.  For PSoC 3 these two actions must be paired together.  With PSoC
 544:.\Generated_Source\PSoC5/cyPm.c **** *  5LP the processor can be halted independently with the __WFI() function from
 545:.\Generated_Source\PSoC5/cyPm.c **** *  the CMSIS library that is included in Creator.  This function should be used
ARM GAS  C:\Users\PIET~1.COU\AppData\Local\Temp\ccUpISSh.s 			page 11


 546:.\Generated_Source\PSoC5/cyPm.c **** *  instead when the action required is just to halt the processor until an
 547:.\Generated_Source\PSoC5/cyPm.c **** *  enabled interrupt occurs.
 548:.\Generated_Source\PSoC5/cyPm.c **** *
 549:.\Generated_Source\PSoC5/cyPm.c **** *  The wakeupTime parameter is not used for this device. It must be set to zero
 550:.\Generated_Source\PSoC5/cyPm.c **** *  (PM_ALT_ACT_TIME_NONE). The wake up time configuration can be done by a
 551:.\Generated_Source\PSoC5/cyPm.c **** *  separate component: the CTW wakeup interval should be configured with the
 552:.\Generated_Source\PSoC5/cyPm.c **** *  Sleep Timer component and one second interval should be configured with the
 553:.\Generated_Source\PSoC5/cyPm.c **** *  RTC component.
 554:.\Generated_Source\PSoC5/cyPm.c **** *
 555:.\Generated_Source\PSoC5/cyPm.c **** *  The wakeup behavior depends on the wakeupSource parameter in the following
 556:.\Generated_Source\PSoC5/cyPm.c **** *  manner: upon function execution the device will be switched from Active to
 557:.\Generated_Source\PSoC5/cyPm.c **** *  Alternate Active mode and then the CPU will be halted. When an enabled wakeup
 558:.\Generated_Source\PSoC5/cyPm.c **** *  event occurs the device will return to Active mode.  Similarly when an
 559:.\Generated_Source\PSoC5/cyPm.c **** *  enabled interrupt occurs the CPU will be started. These two actions will
 560:.\Generated_Source\PSoC5/cyPm.c **** *  occur together provided that the event that occurs is an enabled wakeup
 561:.\Generated_Source\PSoC5/cyPm.c **** *  source and also generates an interrupt. If just the wakeup event occurs then
 562:.\Generated_Source\PSoC5/cyPm.c **** *  the device will be in Active mode, but the CPU will remain halted waiting for
 563:.\Generated_Source\PSoC5/cyPm.c **** *  an interrupt. If an interrupt occurs from something other than a wakeup
 564:.\Generated_Source\PSoC5/cyPm.c **** *  source, then the CPU will restart with the device in Alternate Active mode
 565:.\Generated_Source\PSoC5/cyPm.c **** *  until a wakeup event occurs.
 566:.\Generated_Source\PSoC5/cyPm.c **** *
 567:.\Generated_Source\PSoC5/cyPm.c **** *  For example, if CyPmAltAct(PM_ALT_ACT_TIME_NONE, PM_ALT_ACT_SRC_PICU) is
 568:.\Generated_Source\PSoC5/cyPm.c **** *  called and PICU interrupt occurs, the CPU will be started and device will be
 569:.\Generated_Source\PSoC5/cyPm.c **** *  switched into Active mode. And if CyPmAltAct(PM_ALT_ACT_TIME_NONE,
 570:.\Generated_Source\PSoC5/cyPm.c **** *  PM_ALT_ACT_SRC_NONE) is called and PICU interrupt occurs, the CPU will be
 571:.\Generated_Source\PSoC5/cyPm.c **** *  started while device remains in Alternate Active mode.
 572:.\Generated_Source\PSoC5/cyPm.c **** *
 573:.\Generated_Source\PSoC5/cyPm.c **** * Parameters:
 574:.\Generated_Source\PSoC5/cyPm.c **** *  wakeupTime: Specifies a timer wakeup source and the frequency of that
 575:.\Generated_Source\PSoC5/cyPm.c **** *              source. For PSoC 5LP this parameter is ignored.
 576:.\Generated_Source\PSoC5/cyPm.c **** *
 577:.\Generated_Source\PSoC5/cyPm.c **** *           Define                      Time
 578:.\Generated_Source\PSoC5/cyPm.c **** *  PM_ALT_ACT_TIME_NONE             None
 579:.\Generated_Source\PSoC5/cyPm.c **** *  PM_ALT_ACT_TIME_ONE_PPS          One PPS: 1 second
 580:.\Generated_Source\PSoC5/cyPm.c **** *  PM_ALT_ACT_TIME_CTW_2MS          CTW: 2 ms
 581:.\Generated_Source\PSoC5/cyPm.c **** *  PM_ALT_ACT_TIME_CTW_4MS          CTW: 4 ms
 582:.\Generated_Source\PSoC5/cyPm.c **** *  PM_ALT_ACT_TIME_CTW_8MS          CTW: 8 ms
 583:.\Generated_Source\PSoC5/cyPm.c **** *  PM_ALT_ACT_TIME_CTW_16MS         CTW: 16 ms
 584:.\Generated_Source\PSoC5/cyPm.c **** *  PM_ALT_ACT_TIME_CTW_32MS         CTW: 32 ms
 585:.\Generated_Source\PSoC5/cyPm.c **** *  PM_ALT_ACT_TIME_CTW_64MS         CTW: 64 ms
 586:.\Generated_Source\PSoC5/cyPm.c **** *  PM_ALT_ACT_TIME_CTW_128MS        CTW: 128 ms
 587:.\Generated_Source\PSoC5/cyPm.c **** *  PM_ALT_ACT_TIME_CTW_256MS        CTW: 256 ms
 588:.\Generated_Source\PSoC5/cyPm.c **** *  PM_ALT_ACT_TIME_CTW_512MS        CTW: 512 ms
 589:.\Generated_Source\PSoC5/cyPm.c **** *  PM_ALT_ACT_TIME_CTW_1024MS       CTW: 1024 ms
 590:.\Generated_Source\PSoC5/cyPm.c **** *  PM_ALT_ACT_TIME_CTW_2048MS       CTW: 2048 ms
 591:.\Generated_Source\PSoC5/cyPm.c **** *  PM_ALT_ACT_TIME_CTW_4096MS       CTW: 4096 ms
 592:.\Generated_Source\PSoC5/cyPm.c **** *  PM_ALT_ACT_TIME_FTW(1-256)*       FTW: 10us to 2.56 ms
 593:.\Generated_Source\PSoC5/cyPm.c **** *
 594:.\Generated_Source\PSoC5/cyPm.c **** *  *Note:   PM_ALT_ACT_TIME_FTW() is a macro that takes an argument that
 595:.\Generated_Source\PSoC5/cyPm.c **** *           specifies how many increments of 10 us to delay.
 596:.\Generated_Source\PSoC5/cyPm.c ****             For PSoC 3 silicon the valid range of  values is 1 to 256.
 597:.\Generated_Source\PSoC5/cyPm.c **** *
 598:.\Generated_Source\PSoC5/cyPm.c **** *  wakeUpSource:    Specifies a bitwise mask of wakeup sources. In addition, if
 599:.\Generated_Source\PSoC5/cyPm.c **** *                   a wakeupTime has been specified, the associated timer will
 600:.\Generated_Source\PSoC5/cyPm.c **** *                   be included as a wakeup source.
 601:.\Generated_Source\PSoC5/cyPm.c **** *
 602:.\Generated_Source\PSoC5/cyPm.c **** *           Define                      Source
ARM GAS  C:\Users\PIET~1.COU\AppData\Local\Temp\ccUpISSh.s 			page 12


 603:.\Generated_Source\PSoC5/cyPm.c **** *  PM_ALT_ACT_SRC_NONE              None
 604:.\Generated_Source\PSoC5/cyPm.c **** *  PM_ALT_ACT_SRC_COMPARATOR0       Comparator 0
 605:.\Generated_Source\PSoC5/cyPm.c **** *  PM_ALT_ACT_SRC_COMPARATOR1       Comparator 1
 606:.\Generated_Source\PSoC5/cyPm.c **** *  PM_ALT_ACT_SRC_COMPARATOR2       Comparator 2
 607:.\Generated_Source\PSoC5/cyPm.c **** *  PM_ALT_ACT_SRC_COMPARATOR3       Comparator 3
 608:.\Generated_Source\PSoC5/cyPm.c **** *  PM_ALT_ACT_SRC_INTERRUPT         Interrupt
 609:.\Generated_Source\PSoC5/cyPm.c **** *  PM_ALT_ACT_SRC_PICU              PICU
 610:.\Generated_Source\PSoC5/cyPm.c **** *  PM_ALT_ACT_SRC_I2C               I2C
 611:.\Generated_Source\PSoC5/cyPm.c **** *  PM_ALT_ACT_SRC_BOOSTCONVERTER    Boost Converter
 612:.\Generated_Source\PSoC5/cyPm.c **** *  PM_ALT_ACT_SRC_FTW               Fast Timewheel*
 613:.\Generated_Source\PSoC5/cyPm.c **** *  PM_ALT_ACT_SRC_VD                High and Low Voltage Detection (HVI, LVI)*
 614:.\Generated_Source\PSoC5/cyPm.c **** *  PM_ALT_ACT_SRC_CTW               Central Timewheel**
 615:.\Generated_Source\PSoC5/cyPm.c **** *  PM_ALT_ACT_SRC_ONE_PPS           One PPS**
 616:.\Generated_Source\PSoC5/cyPm.c **** *  PM_ALT_ACT_SRC_LCD               LCD
 617:.\Generated_Source\PSoC5/cyPm.c **** *
 618:.\Generated_Source\PSoC5/cyPm.c **** *  *Note : FTW and HVI/LVI wakeup signals are in the same mask bit.
 619:.\Generated_Source\PSoC5/cyPm.c **** *  **Note: CTW and One PPS wakeup signals are in the same mask bit.
 620:.\Generated_Source\PSoC5/cyPm.c **** *
 621:.\Generated_Source\PSoC5/cyPm.c **** *  When specifying a Comparator as the wakeupSource, an instance specific define
 622:.\Generated_Source\PSoC5/cyPm.c **** *  that will track with the specific comparator that the instance
 623:.\Generated_Source\PSoC5/cyPm.c **** *  is placed into should be used. As an example, for a Comparator instance named
 624:.\Generated_Source\PSoC5/cyPm.c **** *  MyComp the value to OR into the mask is: MyComp_ctComp__CMP_MASK.
 625:.\Generated_Source\PSoC5/cyPm.c **** *
 626:.\Generated_Source\PSoC5/cyPm.c **** *  When CTW, FTW or One PPS is used as a wakeup source, the CyPmReadStatus()
 627:.\Generated_Source\PSoC5/cyPm.c **** *  function must be called upon wakeup with a corresponding parameter. Please
 628:.\Generated_Source\PSoC5/cyPm.c **** *  refer to the CyPmReadStatus() API in the System Reference Guide for more
 629:.\Generated_Source\PSoC5/cyPm.c **** *  information.
 630:.\Generated_Source\PSoC5/cyPm.c **** *
 631:.\Generated_Source\PSoC5/cyPm.c **** * Return:
 632:.\Generated_Source\PSoC5/cyPm.c **** *  None
 633:.\Generated_Source\PSoC5/cyPm.c **** *
 634:.\Generated_Source\PSoC5/cyPm.c **** * Reentrant:
 635:.\Generated_Source\PSoC5/cyPm.c **** *  No
 636:.\Generated_Source\PSoC5/cyPm.c **** *
 637:.\Generated_Source\PSoC5/cyPm.c **** * Side Effects:
 638:.\Generated_Source\PSoC5/cyPm.c **** *  If a wakeupTime other than NONE is specified, then upon exit the state of the
 639:.\Generated_Source\PSoC5/cyPm.c **** *  specified timer will be left as specified by wakeupTime with the timer
 640:.\Generated_Source\PSoC5/cyPm.c **** *  enabled and the interrupt disabled.  Also, the ILO 1 KHz (if CTW timer is
 641:.\Generated_Source\PSoC5/cyPm.c **** *  used as wakeup time) or ILO 100 KHz (if the FTW timer is used as wakeup time)
 642:.\Generated_Source\PSoC5/cyPm.c **** *  will be left started.
 643:.\Generated_Source\PSoC5/cyPm.c **** *
 644:.\Generated_Source\PSoC5/cyPm.c **** *******************************************************************************/
 645:.\Generated_Source\PSoC5/cyPm.c **** void CyPmAltAct(uint16 wakeupTime, uint16 wakeupSource) 
 646:.\Generated_Source\PSoC5/cyPm.c **** {
 647:.\Generated_Source\PSoC5/cyPm.c ****     #if(CY_PSOC5)
 648:.\Generated_Source\PSoC5/cyPm.c **** 
 649:.\Generated_Source\PSoC5/cyPm.c ****         /* Arguments expected to be 0 */
 650:.\Generated_Source\PSoC5/cyPm.c ****         CYASSERT(PM_ALT_ACT_TIME_NONE == wakeupTime);
 651:.\Generated_Source\PSoC5/cyPm.c **** 
 652:.\Generated_Source\PSoC5/cyPm.c ****         if(0u != wakeupTime)
 653:.\Generated_Source\PSoC5/cyPm.c ****         {
 654:.\Generated_Source\PSoC5/cyPm.c ****             /* To remove unreferenced local variable warning */
 655:.\Generated_Source\PSoC5/cyPm.c ****         }
 656:.\Generated_Source\PSoC5/cyPm.c **** 
 657:.\Generated_Source\PSoC5/cyPm.c ****     #endif /* (CY_PSOC5) */
 658:.\Generated_Source\PSoC5/cyPm.c **** 
 659:.\Generated_Source\PSoC5/cyPm.c **** 
ARM GAS  C:\Users\PIET~1.COU\AppData\Local\Temp\ccUpISSh.s 			page 13


 660:.\Generated_Source\PSoC5/cyPm.c ****     #if(CY_PSOC3)
 661:.\Generated_Source\PSoC5/cyPm.c **** 
 662:.\Generated_Source\PSoC5/cyPm.c ****         /* FTW - save current and set new configuration */
 663:.\Generated_Source\PSoC5/cyPm.c ****         if((wakeupTime >= PM_ALT_ACT_TIME_FTW(1u)) && (wakeupTime <= PM_ALT_ACT_TIME_FTW(256u)))
 664:.\Generated_Source\PSoC5/cyPm.c ****         {
 665:.\Generated_Source\PSoC5/cyPm.c ****             CyPmFtwSetInterval(PM_ALT_ACT_FTW_INTERVAL(wakeupTime));
 666:.\Generated_Source\PSoC5/cyPm.c **** 
 667:.\Generated_Source\PSoC5/cyPm.c ****             /* Include associated timer to wakeupSource */
 668:.\Generated_Source\PSoC5/cyPm.c ****             wakeupSource |= PM_ALT_ACT_SRC_FTW;
 669:.\Generated_Source\PSoC5/cyPm.c ****         }
 670:.\Generated_Source\PSoC5/cyPm.c **** 
 671:.\Generated_Source\PSoC5/cyPm.c ****         /* CTW - save current and set new configuration */
 672:.\Generated_Source\PSoC5/cyPm.c ****         if((wakeupTime >= PM_ALT_ACT_TIME_CTW_2MS) && (wakeupTime <= PM_ALT_ACT_TIME_CTW_4096MS))
 673:.\Generated_Source\PSoC5/cyPm.c ****         {
 674:.\Generated_Source\PSoC5/cyPm.c ****             /* Save current CTW configuration and set new one */
 675:.\Generated_Source\PSoC5/cyPm.c ****             CyPmCtwSetInterval((uint8)(wakeupTime - 1u));
 676:.\Generated_Source\PSoC5/cyPm.c **** 
 677:.\Generated_Source\PSoC5/cyPm.c ****             /* Include associated timer to wakeupSource */
 678:.\Generated_Source\PSoC5/cyPm.c ****             wakeupSource |= PM_ALT_ACT_SRC_CTW;
 679:.\Generated_Source\PSoC5/cyPm.c ****         }
 680:.\Generated_Source\PSoC5/cyPm.c **** 
 681:.\Generated_Source\PSoC5/cyPm.c ****         /* 1PPS - save current and set new configuration */
 682:.\Generated_Source\PSoC5/cyPm.c ****         if(PM_ALT_ACT_TIME_ONE_PPS == wakeupTime)
 683:.\Generated_Source\PSoC5/cyPm.c ****         {
 684:.\Generated_Source\PSoC5/cyPm.c ****             /* Save current 1PPS configuration and set new one */
 685:.\Generated_Source\PSoC5/cyPm.c ****             CyPmOppsSet();
 686:.\Generated_Source\PSoC5/cyPm.c **** 
 687:.\Generated_Source\PSoC5/cyPm.c ****             /* Include associated timer to wakeupSource */
 688:.\Generated_Source\PSoC5/cyPm.c ****             wakeupSource |= PM_ALT_ACT_SRC_ONE_PPS;
 689:.\Generated_Source\PSoC5/cyPm.c ****         }
 690:.\Generated_Source\PSoC5/cyPm.c **** 
 691:.\Generated_Source\PSoC5/cyPm.c ****     #endif /* (CY_PSOC3) */
 692:.\Generated_Source\PSoC5/cyPm.c **** 
 693:.\Generated_Source\PSoC5/cyPm.c **** 
 694:.\Generated_Source\PSoC5/cyPm.c ****     /* Save and set new wake up configuration */
 695:.\Generated_Source\PSoC5/cyPm.c **** 
 696:.\Generated_Source\PSoC5/cyPm.c ****     /* Interrupt, PICU, I2C, Boost converter, CTW/1PPS */
 697:.\Generated_Source\PSoC5/cyPm.c ****     cyPmBackup.wakeupCfg0 = CY_PM_WAKEUP_CFG0_REG;
 698:.\Generated_Source\PSoC5/cyPm.c ****     CY_PM_WAKEUP_CFG0_REG = (uint8) (wakeupSource >> 4u);
 699:.\Generated_Source\PSoC5/cyPm.c **** 
 700:.\Generated_Source\PSoC5/cyPm.c ****     /* Comparators */
 701:.\Generated_Source\PSoC5/cyPm.c ****     cyPmBackup.wakeupCfg1 = CY_PM_WAKEUP_CFG1_REG;
 702:.\Generated_Source\PSoC5/cyPm.c ****     CY_PM_WAKEUP_CFG1_REG = (((uint8) wakeupSource) & CY_PM_WAKEUP_SRC_CMPS_MASK);
 703:.\Generated_Source\PSoC5/cyPm.c **** 
 704:.\Generated_Source\PSoC5/cyPm.c ****     /* LCD */
 705:.\Generated_Source\PSoC5/cyPm.c ****     cyPmBackup.wakeupCfg2 = CY_PM_WAKEUP_CFG2_REG;
 706:.\Generated_Source\PSoC5/cyPm.c ****     CY_PM_WAKEUP_CFG2_REG = ((uint8) ((wakeupSource >> 12u) & 0x01u));
 707:.\Generated_Source\PSoC5/cyPm.c **** 
 708:.\Generated_Source\PSoC5/cyPm.c **** 
 709:.\Generated_Source\PSoC5/cyPm.c ****     /* Switch to the Alternate Active mode */
 710:.\Generated_Source\PSoC5/cyPm.c ****     CY_PM_MODE_CSR_REG = ((CY_PM_MODE_CSR_REG & ((uint8)(~CY_PM_MODE_CSR_MASK))) | CY_PM_MODE_CSR_A
 711:.\Generated_Source\PSoC5/cyPm.c **** 
 712:.\Generated_Source\PSoC5/cyPm.c ****     /* Recommended readback. */
 713:.\Generated_Source\PSoC5/cyPm.c ****     (void) CY_PM_MODE_CSR_REG;
 714:.\Generated_Source\PSoC5/cyPm.c **** 
 715:.\Generated_Source\PSoC5/cyPm.c ****     /* Two recommended NOPs to get into the mode. */
 716:.\Generated_Source\PSoC5/cyPm.c ****     CY_NOP;
ARM GAS  C:\Users\PIET~1.COU\AppData\Local\Temp\ccUpISSh.s 			page 14


 717:.\Generated_Source\PSoC5/cyPm.c ****     CY_NOP;
 718:.\Generated_Source\PSoC5/cyPm.c **** 
 719:.\Generated_Source\PSoC5/cyPm.c ****     /* Execute WFI instruction (for ARM-based devices only) */
 720:.\Generated_Source\PSoC5/cyPm.c ****     CY_PM_WFI;
 721:.\Generated_Source\PSoC5/cyPm.c **** 
 722:.\Generated_Source\PSoC5/cyPm.c ****     /* Point of return from Alternate Active Mode */
 723:.\Generated_Source\PSoC5/cyPm.c **** 
 724:.\Generated_Source\PSoC5/cyPm.c ****     /* Restore wake up configuration */
 725:.\Generated_Source\PSoC5/cyPm.c ****     CY_PM_WAKEUP_CFG0_REG = cyPmBackup.wakeupCfg0;
 726:.\Generated_Source\PSoC5/cyPm.c ****     CY_PM_WAKEUP_CFG1_REG = cyPmBackup.wakeupCfg1;
 727:.\Generated_Source\PSoC5/cyPm.c ****     CY_PM_WAKEUP_CFG2_REG = cyPmBackup.wakeupCfg2;
 728:.\Generated_Source\PSoC5/cyPm.c **** }
 729:.\Generated_Source\PSoC5/cyPm.c **** 
 730:.\Generated_Source\PSoC5/cyPm.c **** 
 731:.\Generated_Source\PSoC5/cyPm.c **** /*******************************************************************************
 732:.\Generated_Source\PSoC5/cyPm.c **** * Function Name: CyPmSleep
 733:.\Generated_Source\PSoC5/cyPm.c **** ********************************************************************************
 734:.\Generated_Source\PSoC5/cyPm.c **** *
 735:.\Generated_Source\PSoC5/cyPm.c **** * Summary:
 736:.\Generated_Source\PSoC5/cyPm.c **** *  Puts the part into the Sleep state.
 737:.\Generated_Source\PSoC5/cyPm.c **** *
 738:.\Generated_Source\PSoC5/cyPm.c **** *  Note Before calling this function, you must manually configure the power
 739:.\Generated_Source\PSoC5/cyPm.c **** *  mode of the source clocks for the timer that is used as the wakeup timer.
 740:.\Generated_Source\PSoC5/cyPm.c **** *
 741:.\Generated_Source\PSoC5/cyPm.c **** *  Note Before calling this function, you must prepare clock tree configuration
 742:.\Generated_Source\PSoC5/cyPm.c **** *  for the low power mode by calling CyPmSaveClocks(). And restore clock
 743:.\Generated_Source\PSoC5/cyPm.c **** *  configuration after CyPmSleep() execution by calling CyPmRestoreClocks(). See
 744:.\Generated_Source\PSoC5/cyPm.c **** *  Power Management section, Clock Configuration subsection of the System
 745:.\Generated_Source\PSoC5/cyPm.c **** *  Reference Guide for more information.
 746:.\Generated_Source\PSoC5/cyPm.c **** *
 747:.\Generated_Source\PSoC5/cyPm.c **** *  PSoC 3:
 748:.\Generated_Source\PSoC5/cyPm.c **** *  Before switching to Sleep, if a wakeupTime other than NONE is specified,
 749:.\Generated_Source\PSoC5/cyPm.c **** *  then the appropriate timer state is configured as specified with the
 750:.\Generated_Source\PSoC5/cyPm.c **** *  interrupt for that timer disabled.  The wakeup source will be a combination
 751:.\Generated_Source\PSoC5/cyPm.c **** *  of the values specified in the wakeupSource and any timer specified in the
 752:.\Generated_Source\PSoC5/cyPm.c **** *  wakeupTime argument.  Once the wakeup condition is satisfied, then all saved
 753:.\Generated_Source\PSoC5/cyPm.c **** *  state is restored and the function returns in the Active state.
 754:.\Generated_Source\PSoC5/cyPm.c **** *
 755:.\Generated_Source\PSoC5/cyPm.c **** *  Note that if the wakeupTime is made with a different value, the period before
 756:.\Generated_Source\PSoC5/cyPm.c **** *  the wakeup occurs can be significantly shorter than the specified time.  If
 757:.\Generated_Source\PSoC5/cyPm.c **** *  the next call is made with the same wakeupTime value, then the wakeup will
 758:.\Generated_Source\PSoC5/cyPm.c **** *  occur the specified period after the previous wakeup occurred.
 759:.\Generated_Source\PSoC5/cyPm.c **** *
 760:.\Generated_Source\PSoC5/cyPm.c **** *  If a wakeupTime other than NONE is specified, then upon exit the state of the
 761:.\Generated_Source\PSoC5/cyPm.c **** *  specified timer will be left as specified by wakeupTime with the timer
 762:.\Generated_Source\PSoC5/cyPm.c **** *  enabled and the interrupt disabled.  If the CTW or One PPS is already
 763:.\Generated_Source\PSoC5/cyPm.c **** *  configured for wakeup, for example with the SleepTimer or RTC components,
 764:.\Generated_Source\PSoC5/cyPm.c **** *  then specify NONE for the wakeupTime and include the appropriate source for
 765:.\Generated_Source\PSoC5/cyPm.c **** *  wakeupSource.
 766:.\Generated_Source\PSoC5/cyPm.c **** *
 767:.\Generated_Source\PSoC5/cyPm.c **** *  PSoC 5LP:
 768:.\Generated_Source\PSoC5/cyPm.c **** *  The wakeupTime parameter is not used and the only NONE can be specified.
 769:.\Generated_Source\PSoC5/cyPm.c **** *  The wakeup time must be configured with the component, SleepTimer for CTW
 770:.\Generated_Source\PSoC5/cyPm.c **** *  intervals and RTC for 1PPS interval. The component must be configured to
 771:.\Generated_Source\PSoC5/cyPm.c **** *  generate interrupt.
 772:.\Generated_Source\PSoC5/cyPm.c **** *
 773:.\Generated_Source\PSoC5/cyPm.c **** * Parameters:
ARM GAS  C:\Users\PIET~1.COU\AppData\Local\Temp\ccUpISSh.s 			page 15


 774:.\Generated_Source\PSoC5/cyPm.c **** *  wakeupTime:      Specifies a timer wakeup source and the frequency of that
 775:.\Generated_Source\PSoC5/cyPm.c **** *                   source. For PSoC 5LP, this parameter is ignored.
 776:.\Generated_Source\PSoC5/cyPm.c **** *
 777:.\Generated_Source\PSoC5/cyPm.c **** *           Define                      Time
 778:.\Generated_Source\PSoC5/cyPm.c **** *  PM_SLEEP_TIME_NONE               None
 779:.\Generated_Source\PSoC5/cyPm.c **** *  PM_SLEEP_TIME_ONE_PPS            One PPS: 1 second
 780:.\Generated_Source\PSoC5/cyPm.c **** *  PM_SLEEP_TIME_CTW_2MS            CTW: 2 ms
 781:.\Generated_Source\PSoC5/cyPm.c **** *  PM_SLEEP_TIME_CTW_4MS            CTW: 4 ms
 782:.\Generated_Source\PSoC5/cyPm.c **** *  PM_SLEEP_TIME_CTW_8MS            CTW: 8 ms
 783:.\Generated_Source\PSoC5/cyPm.c **** *  PM_SLEEP_TIME_CTW_16MS           CTW: 16 ms
 784:.\Generated_Source\PSoC5/cyPm.c **** *  PM_SLEEP_TIME_CTW_32MS           CTW: 32 ms
 785:.\Generated_Source\PSoC5/cyPm.c **** *  PM_SLEEP_TIME_CTW_64MS           CTW: 64 ms
 786:.\Generated_Source\PSoC5/cyPm.c **** *  PM_SLEEP_TIME_CTW_128MS          CTW: 128 ms
 787:.\Generated_Source\PSoC5/cyPm.c **** *  PM_SLEEP_TIME_CTW_256MS          CTW: 256 ms
 788:.\Generated_Source\PSoC5/cyPm.c **** *  PM_SLEEP_TIME_CTW_512MS          CTW: 512 ms
 789:.\Generated_Source\PSoC5/cyPm.c **** *  PM_SLEEP_TIME_CTW_1024MS         CTW: 1024 ms
 790:.\Generated_Source\PSoC5/cyPm.c **** *  PM_SLEEP_TIME_CTW_2048MS         CTW: 2048 ms
 791:.\Generated_Source\PSoC5/cyPm.c **** *  PM_SLEEP_TIME_CTW_4096MS         CTW: 4096 ms
 792:.\Generated_Source\PSoC5/cyPm.c **** *
 793:.\Generated_Source\PSoC5/cyPm.c **** *  wakeUpSource:    Specifies a bitwise mask of wakeup sources. In addition, if
 794:.\Generated_Source\PSoC5/cyPm.c **** *                   a wakeupTime has been specified the associated timer will be
 795:.\Generated_Source\PSoC5/cyPm.c **** *                   included as a wakeup source.
 796:.\Generated_Source\PSoC5/cyPm.c **** *
 797:.\Generated_Source\PSoC5/cyPm.c **** *           Define                      Source
 798:.\Generated_Source\PSoC5/cyPm.c **** *  PM_SLEEP_SRC_NONE                None
 799:.\Generated_Source\PSoC5/cyPm.c **** *  PM_SLEEP_SRC_COMPARATOR0         Comparator 0
 800:.\Generated_Source\PSoC5/cyPm.c **** *  PM_SLEEP_SRC_COMPARATOR1         Comparator 1
 801:.\Generated_Source\PSoC5/cyPm.c **** *  PM_SLEEP_SRC_COMPARATOR2         Comparator 2
 802:.\Generated_Source\PSoC5/cyPm.c **** *  PM_SLEEP_SRC_COMPARATOR3         Comparator 3
 803:.\Generated_Source\PSoC5/cyPm.c **** *  PM_SLEEP_SRC_PICU                PICU
 804:.\Generated_Source\PSoC5/cyPm.c **** *  PM_SLEEP_SRC_I2C                 I2C
 805:.\Generated_Source\PSoC5/cyPm.c **** *  PM_SLEEP_SRC_BOOSTCONVERTER      Boost Converter
 806:.\Generated_Source\PSoC5/cyPm.c **** *  PM_SLEEP_SRC_VD                  High and Low Voltage Detection (HVI, LVI)
 807:.\Generated_Source\PSoC5/cyPm.c **** *  PM_SLEEP_SRC_CTW                 Central Timewheel*
 808:.\Generated_Source\PSoC5/cyPm.c **** *  PM_SLEEP_SRC_ONE_PPS             One PPS*
 809:.\Generated_Source\PSoC5/cyPm.c **** *  PM_SLEEP_SRC_LCD                 LCD
 810:.\Generated_Source\PSoC5/cyPm.c **** *
 811:.\Generated_Source\PSoC5/cyPm.c **** *  *Note:   CTW and One PPS wakeup signals are in the same mask bit.
 812:.\Generated_Source\PSoC5/cyPm.c **** *
 813:.\Generated_Source\PSoC5/cyPm.c **** *  When specifying a Comparator as the wakeupSource an instance specific define
 814:.\Generated_Source\PSoC5/cyPm.c **** *  should be used that will track with the specific comparator that the instance
 815:.\Generated_Source\PSoC5/cyPm.c **** *  is placed into. As an example for a Comparator instance named MyComp the
 816:.\Generated_Source\PSoC5/cyPm.c **** *  value to OR into the mask is: MyComp_ctComp__CMP_MASK.
 817:.\Generated_Source\PSoC5/cyPm.c **** *
 818:.\Generated_Source\PSoC5/cyPm.c **** *  When CTW or One PPS is used as a wakeup source, the CyPmReadStatus()
 819:.\Generated_Source\PSoC5/cyPm.c **** *  function must be called upon wakeup with corresponding parameter. Please
 820:.\Generated_Source\PSoC5/cyPm.c **** *  refer to the CyPmReadStatus() API in the System Reference Guide for more
 821:.\Generated_Source\PSoC5/cyPm.c **** *  information.
 822:.\Generated_Source\PSoC5/cyPm.c **** *
 823:.\Generated_Source\PSoC5/cyPm.c **** * Return:
 824:.\Generated_Source\PSoC5/cyPm.c **** *  None
 825:.\Generated_Source\PSoC5/cyPm.c **** *
 826:.\Generated_Source\PSoC5/cyPm.c **** * Reentrant:
 827:.\Generated_Source\PSoC5/cyPm.c **** *  No
 828:.\Generated_Source\PSoC5/cyPm.c **** *
 829:.\Generated_Source\PSoC5/cyPm.c **** * Side Effects and Restrictions:
 830:.\Generated_Source\PSoC5/cyPm.c **** *  If a wakeupTime other than NONE is specified, then upon exit the state of the
ARM GAS  C:\Users\PIET~1.COU\AppData\Local\Temp\ccUpISSh.s 			page 16


 831:.\Generated_Source\PSoC5/cyPm.c **** *  specified timer will be left as specified by wakeupTime with the timer
 832:.\Generated_Source\PSoC5/cyPm.c **** *  enabled and the interrupt disabled. Also, the ILO 1 KHz (if CTW timer is
 833:.\Generated_Source\PSoC5/cyPm.c **** *  used as wake up time) will be left started.
 834:.\Generated_Source\PSoC5/cyPm.c **** *
 835:.\Generated_Source\PSoC5/cyPm.c **** *  The 1 kHz ILO clock is expected to be enabled for PSoC 3 and PSoC 5LP to
 836:.\Generated_Source\PSoC5/cyPm.c **** *  measure Hibernate/Sleep regulator settling time after a reset. The holdoff
 837:.\Generated_Source\PSoC5/cyPm.c **** *  delay is measured using rising edges of the 1 kHz ILO.
 838:.\Generated_Source\PSoC5/cyPm.c **** *
 839:.\Generated_Source\PSoC5/cyPm.c **** *  For PSoC 3 silicon hardware buzz should be disabled before entering a sleep
 840:.\Generated_Source\PSoC5/cyPm.c **** *  power mode. It is disabled by PSoC Creator during startup.
 841:.\Generated_Source\PSoC5/cyPm.c **** *  If a Low Voltage Interrupt (LVI), High Voltage Interrupt (HVI) or Brown Out
 842:.\Generated_Source\PSoC5/cyPm.c **** *  detect (power supply supervising capabilities) are required in a design
 843:.\Generated_Source\PSoC5/cyPm.c **** *  during sleep, use the Central Time Wheel (CTW) to periodically wake the
 844:.\Generated_Source\PSoC5/cyPm.c **** *  device, perform software buzz, and refresh the supervisory services. If LVI,
 845:.\Generated_Source\PSoC5/cyPm.c **** *  HVI, or Brown Out is not required, then CTW is not required.
 846:.\Generated_Source\PSoC5/cyPm.c **** *  Refer to the device errata for more information.
 847:.\Generated_Source\PSoC5/cyPm.c **** *
 848:.\Generated_Source\PSoC5/cyPm.c **** *******************************************************************************/
 849:.\Generated_Source\PSoC5/cyPm.c **** void CyPmSleep(uint8 wakeupTime, uint16 wakeupSource) 
 850:.\Generated_Source\PSoC5/cyPm.c **** {
 851:.\Generated_Source\PSoC5/cyPm.c ****     uint8 interruptState;
 852:.\Generated_Source\PSoC5/cyPm.c **** 
 853:.\Generated_Source\PSoC5/cyPm.c ****     /* Save current global interrupt enable and disable it */
 854:.\Generated_Source\PSoC5/cyPm.c ****     interruptState = CyEnterCriticalSection();
 855:.\Generated_Source\PSoC5/cyPm.c **** 
 856:.\Generated_Source\PSoC5/cyPm.c **** 
 857:.\Generated_Source\PSoC5/cyPm.c ****     /***********************************************************************
 858:.\Generated_Source\PSoC5/cyPm.c ****     * The Hibernate/Sleep regulator has a settling time after a reset.
 859:.\Generated_Source\PSoC5/cyPm.c ****     * During this time, the system ignores requests to enter Sleep and
 860:.\Generated_Source\PSoC5/cyPm.c ****     * Hibernate modes. The holdoff delay is measured using rising edges of
 861:.\Generated_Source\PSoC5/cyPm.c ****     * the 1 kHz ILO.
 862:.\Generated_Source\PSoC5/cyPm.c ****     ***********************************************************************/
 863:.\Generated_Source\PSoC5/cyPm.c ****     if(0u == (CY_PM_MODE_CSR_REG & CY_PM_MODE_CSR_PWRUP_PULSE_Q))
 864:.\Generated_Source\PSoC5/cyPm.c ****     {
 865:.\Generated_Source\PSoC5/cyPm.c ****         /* Disable hold off - no action on restore */
 866:.\Generated_Source\PSoC5/cyPm.c ****         CY_PM_PWRSYS_SLP_TR_REG &= CY_PM_PWRSYS_SLP_TR_HIBSLP_HOLDOFF_MASK;
 867:.\Generated_Source\PSoC5/cyPm.c ****     }
 868:.\Generated_Source\PSoC5/cyPm.c ****     else
 869:.\Generated_Source\PSoC5/cyPm.c ****     {
 870:.\Generated_Source\PSoC5/cyPm.c ****         /* Abort, device is not ready for low power mode entry */
 871:.\Generated_Source\PSoC5/cyPm.c **** 
 872:.\Generated_Source\PSoC5/cyPm.c ****         /* Restore global interrupt enable state */
 873:.\Generated_Source\PSoC5/cyPm.c ****         CyExitCriticalSection(interruptState);
 874:.\Generated_Source\PSoC5/cyPm.c **** 
 875:.\Generated_Source\PSoC5/cyPm.c ****         return;
 876:.\Generated_Source\PSoC5/cyPm.c ****     }
 877:.\Generated_Source\PSoC5/cyPm.c **** 
 878:.\Generated_Source\PSoC5/cyPm.c **** 
 879:.\Generated_Source\PSoC5/cyPm.c ****     /***********************************************************************
 880:.\Generated_Source\PSoC5/cyPm.c ****     * PSoC3 < TO6:
 881:.\Generated_Source\PSoC5/cyPm.c ****     * - Hardware buzz must be disabled before the sleep mode entry.
 882:.\Generated_Source\PSoC5/cyPm.c ****     * - Voltage supervision (HVI/LVI) requires hardware buzz, so they must
 883:.\Generated_Source\PSoC5/cyPm.c ****     *   be also disabled.
 884:.\Generated_Source\PSoC5/cyPm.c ****     *
 885:.\Generated_Source\PSoC5/cyPm.c ****     * PSoC3 >= TO6:
 886:.\Generated_Source\PSoC5/cyPm.c ****     * - Voltage supervision (HVI/LVI) requires hardware buzz, so hardware
 887:.\Generated_Source\PSoC5/cyPm.c ****     *   buzz must be enabled before the sleep mode entry and restored on
ARM GAS  C:\Users\PIET~1.COU\AppData\Local\Temp\ccUpISSh.s 			page 17


 888:.\Generated_Source\PSoC5/cyPm.c ****     *   the wakeup.
 889:.\Generated_Source\PSoC5/cyPm.c ****     ***********************************************************************/
 890:.\Generated_Source\PSoC5/cyPm.c ****     #if(CY_PSOC3)
 891:.\Generated_Source\PSoC5/cyPm.c **** 
 892:.\Generated_Source\PSoC5/cyPm.c ****         /* Silicon Revision ID is below TO6 */
 893:.\Generated_Source\PSoC5/cyPm.c ****         if(CYDEV_CHIP_REV_ACTUAL < 5u)
 894:.\Generated_Source\PSoC5/cyPm.c ****         {
 895:.\Generated_Source\PSoC5/cyPm.c ****             /* Hardware buzz expected to be disabled in Sleep mode */
 896:.\Generated_Source\PSoC5/cyPm.c ****             CYASSERT(0u == (CY_PM_PWRSYS_WAKE_TR2_REG & CY_PM_PWRSYS_WAKE_TR2_EN_BUZZ));
 897:.\Generated_Source\PSoC5/cyPm.c ****         }
 898:.\Generated_Source\PSoC5/cyPm.c **** 
 899:.\Generated_Source\PSoC5/cyPm.c **** 
 900:.\Generated_Source\PSoC5/cyPm.c ****         if(0u != (CY_PM_RESET_CR1_REG & (CY_PM_RESET_CR1_HVIA_EN |
 901:.\Generated_Source\PSoC5/cyPm.c ****             CY_PM_RESET_CR1_LVIA_EN | CY_PM_RESET_CR1_LVID_EN)))
 902:.\Generated_Source\PSoC5/cyPm.c ****         {
 903:.\Generated_Source\PSoC5/cyPm.c ****             if(CYDEV_CHIP_REV_ACTUAL < 5u)
 904:.\Generated_Source\PSoC5/cyPm.c ****             {
 905:.\Generated_Source\PSoC5/cyPm.c ****                 /* LVI/HVI requires hardware buzz to be enabled */
 906:.\Generated_Source\PSoC5/cyPm.c ****                 CYASSERT(0u != 0u);
 907:.\Generated_Source\PSoC5/cyPm.c ****             }
 908:.\Generated_Source\PSoC5/cyPm.c ****             else
 909:.\Generated_Source\PSoC5/cyPm.c ****             {
 910:.\Generated_Source\PSoC5/cyPm.c ****                 if (0u == (CY_PM_PWRSYS_WAKE_TR2_REG & CY_PM_PWRSYS_WAKE_TR2_EN_BUZZ))
 911:.\Generated_Source\PSoC5/cyPm.c ****                 {
 912:.\Generated_Source\PSoC5/cyPm.c ****                     cyPmBackup.hardwareBuzz = CY_PM_DISABLED;
 913:.\Generated_Source\PSoC5/cyPm.c ****                     CY_PM_PWRSYS_WAKE_TR2_REG |= CY_PM_PWRSYS_WAKE_TR2_EN_BUZZ;
 914:.\Generated_Source\PSoC5/cyPm.c ****                 }
 915:.\Generated_Source\PSoC5/cyPm.c ****                 else
 916:.\Generated_Source\PSoC5/cyPm.c ****                 {
 917:.\Generated_Source\PSoC5/cyPm.c ****                     cyPmBackup.hardwareBuzz = CY_PM_ENABLED;
 918:.\Generated_Source\PSoC5/cyPm.c ****                 }
 919:.\Generated_Source\PSoC5/cyPm.c ****             }
 920:.\Generated_Source\PSoC5/cyPm.c ****         }
 921:.\Generated_Source\PSoC5/cyPm.c **** 
 922:.\Generated_Source\PSoC5/cyPm.c ****     #endif /* (CY_PSOC3) */
 923:.\Generated_Source\PSoC5/cyPm.c **** 
 924:.\Generated_Source\PSoC5/cyPm.c **** 
 925:.\Generated_Source\PSoC5/cyPm.c ****     /*******************************************************************************
 926:.\Generated_Source\PSoC5/cyPm.c ****     * For ARM-based devices,interrupt is required for the CPU to wake up. The
 927:.\Generated_Source\PSoC5/cyPm.c ****     * Power Management implementation assumes that wakeup time is configured with a
 928:.\Generated_Source\PSoC5/cyPm.c ****     * separate component (component-based wakeup time configuration) for
 929:.\Generated_Source\PSoC5/cyPm.c ****     * interrupt to be issued on terminal count. For more information, refer to the
 930:.\Generated_Source\PSoC5/cyPm.c ****     * Wakeup Time Configuration section of System Reference Guide.
 931:.\Generated_Source\PSoC5/cyPm.c ****     *******************************************************************************/
 932:.\Generated_Source\PSoC5/cyPm.c ****     #if(CY_PSOC5)
 933:.\Generated_Source\PSoC5/cyPm.c **** 
 934:.\Generated_Source\PSoC5/cyPm.c ****         /* Arguments expected to be 0 */
 935:.\Generated_Source\PSoC5/cyPm.c ****         CYASSERT(PM_SLEEP_TIME_NONE == wakeupTime);
 936:.\Generated_Source\PSoC5/cyPm.c **** 
 937:.\Generated_Source\PSoC5/cyPm.c ****         if(0u != wakeupTime)
 938:.\Generated_Source\PSoC5/cyPm.c ****         {
 939:.\Generated_Source\PSoC5/cyPm.c ****             /* To remove unreferenced local variable warning */
 940:.\Generated_Source\PSoC5/cyPm.c ****         }
 941:.\Generated_Source\PSoC5/cyPm.c **** 
 942:.\Generated_Source\PSoC5/cyPm.c ****     #endif /* (CY_PSOC5) */
 943:.\Generated_Source\PSoC5/cyPm.c **** 
 944:.\Generated_Source\PSoC5/cyPm.c **** 
ARM GAS  C:\Users\PIET~1.COU\AppData\Local\Temp\ccUpISSh.s 			page 18


 945:.\Generated_Source\PSoC5/cyPm.c ****     CyPmHibSlpSaveSet();
 946:.\Generated_Source\PSoC5/cyPm.c **** 
 947:.\Generated_Source\PSoC5/cyPm.c **** 
 948:.\Generated_Source\PSoC5/cyPm.c ****     #if(CY_PSOC3)
 949:.\Generated_Source\PSoC5/cyPm.c **** 
 950:.\Generated_Source\PSoC5/cyPm.c ****         /* CTW - save current and set new configuration */
 951:.\Generated_Source\PSoC5/cyPm.c ****         if((wakeupTime >= PM_SLEEP_TIME_CTW_2MS) && (wakeupTime <= PM_SLEEP_TIME_CTW_4096MS))
 952:.\Generated_Source\PSoC5/cyPm.c ****         {
 953:.\Generated_Source\PSoC5/cyPm.c ****             /* Save current and set new configuration of CTW */
 954:.\Generated_Source\PSoC5/cyPm.c ****             CyPmCtwSetInterval((uint8)(wakeupTime - 1u));
 955:.\Generated_Source\PSoC5/cyPm.c **** 
 956:.\Generated_Source\PSoC5/cyPm.c ****             /* Include associated timer to wakeupSource */
 957:.\Generated_Source\PSoC5/cyPm.c ****             wakeupSource |= PM_SLEEP_SRC_CTW;
 958:.\Generated_Source\PSoC5/cyPm.c ****         }
 959:.\Generated_Source\PSoC5/cyPm.c **** 
 960:.\Generated_Source\PSoC5/cyPm.c ****         /* 1PPS - save current and set new configuration */
 961:.\Generated_Source\PSoC5/cyPm.c ****         if(PM_SLEEP_TIME_ONE_PPS == wakeupTime)
 962:.\Generated_Source\PSoC5/cyPm.c ****         {
 963:.\Generated_Source\PSoC5/cyPm.c ****             /* Save current and set new configuration of the 1PPS */
 964:.\Generated_Source\PSoC5/cyPm.c ****             CyPmOppsSet();
 965:.\Generated_Source\PSoC5/cyPm.c **** 
 966:.\Generated_Source\PSoC5/cyPm.c ****             /* Include associated timer to wakeupSource */
 967:.\Generated_Source\PSoC5/cyPm.c ****             wakeupSource |= PM_SLEEP_SRC_ONE_PPS;
 968:.\Generated_Source\PSoC5/cyPm.c ****         }
 969:.\Generated_Source\PSoC5/cyPm.c **** 
 970:.\Generated_Source\PSoC5/cyPm.c ****     #endif /* (CY_PSOC3) */
 971:.\Generated_Source\PSoC5/cyPm.c **** 
 972:.\Generated_Source\PSoC5/cyPm.c **** 
 973:.\Generated_Source\PSoC5/cyPm.c ****     /* Save and set new wake up configuration */
 974:.\Generated_Source\PSoC5/cyPm.c **** 
 975:.\Generated_Source\PSoC5/cyPm.c ****     /* Interrupt, PICU, I2C, Boost converter, CTW/1PPS */
 976:.\Generated_Source\PSoC5/cyPm.c ****     cyPmBackup.wakeupCfg0 = CY_PM_WAKEUP_CFG0_REG;
 977:.\Generated_Source\PSoC5/cyPm.c ****     CY_PM_WAKEUP_CFG0_REG = (uint8) (wakeupSource >> 4u);
 978:.\Generated_Source\PSoC5/cyPm.c **** 
 979:.\Generated_Source\PSoC5/cyPm.c ****     /* Comparators */
 980:.\Generated_Source\PSoC5/cyPm.c ****     cyPmBackup.wakeupCfg1 = CY_PM_WAKEUP_CFG1_REG;
 981:.\Generated_Source\PSoC5/cyPm.c ****     CY_PM_WAKEUP_CFG1_REG = (((uint8) wakeupSource) & CY_PM_WAKEUP_SRC_CMPS_MASK);
 982:.\Generated_Source\PSoC5/cyPm.c **** 
 983:.\Generated_Source\PSoC5/cyPm.c ****     /* LCD */
 984:.\Generated_Source\PSoC5/cyPm.c ****     cyPmBackup.wakeupCfg2 = CY_PM_WAKEUP_CFG2_REG;
 985:.\Generated_Source\PSoC5/cyPm.c ****     CY_PM_WAKEUP_CFG2_REG = ((uint8) ((wakeupSource >> 12u) & 0x01u));
 986:.\Generated_Source\PSoC5/cyPm.c **** 
 987:.\Generated_Source\PSoC5/cyPm.c **** 
 988:.\Generated_Source\PSoC5/cyPm.c ****     /*******************************************************************
 989:.\Generated_Source\PSoC5/cyPm.c ****     * Do not use the merge region below unless any component datasheet
 990:.\Generated_Source\PSoC5/cyPm.c ****     * suggests doing so.
 991:.\Generated_Source\PSoC5/cyPm.c ****     *******************************************************************/
 992:.\Generated_Source\PSoC5/cyPm.c ****     /* `#START CY_PM_JUST_BEFORE_SLEEP` */
 993:.\Generated_Source\PSoC5/cyPm.c **** 
 994:.\Generated_Source\PSoC5/cyPm.c ****     /* `#END` */
 995:.\Generated_Source\PSoC5/cyPm.c **** 
 996:.\Generated_Source\PSoC5/cyPm.c ****     #ifdef CY_BOOT_CY_PM_SLEEP_BEFORE_SLEEP_CALLBACK
 997:.\Generated_Source\PSoC5/cyPm.c ****         CyBoot_CyPmSleep_BeforeSleep_Callback();
 998:.\Generated_Source\PSoC5/cyPm.c ****     #endif /* CY_BOOT_CY_PM_SLEEP_BEFORE_SLEEP_CALLBACK */
 999:.\Generated_Source\PSoC5/cyPm.c **** 
1000:.\Generated_Source\PSoC5/cyPm.c ****     /* Last moment IMO frequency change */
1001:.\Generated_Source\PSoC5/cyPm.c ****     if(0u == (CY_PM_FASTCLK_IMO_CR_REG & CY_PM_FASTCLK_IMO_CR_FREQ_MASK))
ARM GAS  C:\Users\PIET~1.COU\AppData\Local\Temp\ccUpISSh.s 			page 19


1002:.\Generated_Source\PSoC5/cyPm.c ****     {
1003:.\Generated_Source\PSoC5/cyPm.c ****         /* IMO frequency is 12 MHz */
1004:.\Generated_Source\PSoC5/cyPm.c ****         cyPmBackup.imoActFreq12Mhz = CY_PM_ENABLED;
1005:.\Generated_Source\PSoC5/cyPm.c ****     }
1006:.\Generated_Source\PSoC5/cyPm.c ****     else
1007:.\Generated_Source\PSoC5/cyPm.c ****     {
1008:.\Generated_Source\PSoC5/cyPm.c ****         /* IMO frequency is not 12 MHz */
1009:.\Generated_Source\PSoC5/cyPm.c ****         cyPmBackup.imoActFreq12Mhz = CY_PM_DISABLED;
1010:.\Generated_Source\PSoC5/cyPm.c **** 
1011:.\Generated_Source\PSoC5/cyPm.c ****         /* Save IMO frequency */
1012:.\Generated_Source\PSoC5/cyPm.c ****         cyPmBackup.imoActFreq = CY_PM_FASTCLK_IMO_CR_REG & CY_PM_FASTCLK_IMO_CR_FREQ_MASK;
1013:.\Generated_Source\PSoC5/cyPm.c **** 
1014:.\Generated_Source\PSoC5/cyPm.c ****         /* Set IMO frequency to 12 MHz */
1015:.\Generated_Source\PSoC5/cyPm.c ****         CY_PM_FASTCLK_IMO_CR_REG &= ((uint8) (~CY_PM_FASTCLK_IMO_CR_FREQ_MASK));
1016:.\Generated_Source\PSoC5/cyPm.c ****     }
1017:.\Generated_Source\PSoC5/cyPm.c **** 
1018:.\Generated_Source\PSoC5/cyPm.c ****     /* Switch to Sleep mode */
1019:.\Generated_Source\PSoC5/cyPm.c ****     CY_PM_MODE_CSR_REG = ((CY_PM_MODE_CSR_REG & ((uint8)(~CY_PM_MODE_CSR_MASK))) | CY_PM_MODE_CSR_S
1020:.\Generated_Source\PSoC5/cyPm.c **** 
1021:.\Generated_Source\PSoC5/cyPm.c ****     /* Recommended readback. */
1022:.\Generated_Source\PSoC5/cyPm.c ****     (void) CY_PM_MODE_CSR_REG;
1023:.\Generated_Source\PSoC5/cyPm.c **** 
1024:.\Generated_Source\PSoC5/cyPm.c ****     /* Two recommended NOPs to get into mode. */
1025:.\Generated_Source\PSoC5/cyPm.c ****     CY_NOP;
1026:.\Generated_Source\PSoC5/cyPm.c ****     CY_NOP;
1027:.\Generated_Source\PSoC5/cyPm.c **** 
1028:.\Generated_Source\PSoC5/cyPm.c ****     /* Execute WFI instruction (for ARM-based devices only) */
1029:.\Generated_Source\PSoC5/cyPm.c ****     CY_PM_WFI;
1030:.\Generated_Source\PSoC5/cyPm.c **** 
1031:.\Generated_Source\PSoC5/cyPm.c ****     /* Point of return from Sleep Mode */
1032:.\Generated_Source\PSoC5/cyPm.c **** 
1033:.\Generated_Source\PSoC5/cyPm.c ****     /* Restore last moment IMO frequency change */
1034:.\Generated_Source\PSoC5/cyPm.c ****     if(CY_PM_ENABLED != cyPmBackup.imoActFreq12Mhz)
1035:.\Generated_Source\PSoC5/cyPm.c ****     {
1036:.\Generated_Source\PSoC5/cyPm.c ****         CY_PM_FASTCLK_IMO_CR_REG  = (CY_PM_FASTCLK_IMO_CR_REG & ((uint8)(~CY_PM_FASTCLK_IMO_CR_FREQ
1037:.\Generated_Source\PSoC5/cyPm.c ****                                     cyPmBackup.imoActFreq;
1038:.\Generated_Source\PSoC5/cyPm.c ****     }
1039:.\Generated_Source\PSoC5/cyPm.c **** 
1040:.\Generated_Source\PSoC5/cyPm.c **** 
1041:.\Generated_Source\PSoC5/cyPm.c ****     /*******************************************************************
1042:.\Generated_Source\PSoC5/cyPm.c ****     * Do not use merge region below unless any component datasheet
1043:.\Generated_Source\PSoC5/cyPm.c ****     * suggest to do so.
1044:.\Generated_Source\PSoC5/cyPm.c ****     *******************************************************************/
1045:.\Generated_Source\PSoC5/cyPm.c ****     /* `#START CY_PM_JUST_AFTER_WAKEUP_FROM_SLEEP` */
1046:.\Generated_Source\PSoC5/cyPm.c **** 
1047:.\Generated_Source\PSoC5/cyPm.c ****     /* `#END` */
1048:.\Generated_Source\PSoC5/cyPm.c **** 
1049:.\Generated_Source\PSoC5/cyPm.c ****     #ifdef CY_BOOT_CY_PM_SLEEP_AFTER_SLEEP_CALLBACK
1050:.\Generated_Source\PSoC5/cyPm.c ****         CyBoot_CyPmSleep_AfterSleep_Callback();
1051:.\Generated_Source\PSoC5/cyPm.c ****     #endif /* CY_BOOT_CY_PM_SLEEP_AFTER_SLEEP_CALLBACK */
1052:.\Generated_Source\PSoC5/cyPm.c **** 
1053:.\Generated_Source\PSoC5/cyPm.c ****     /* Restore hardware configuration */
1054:.\Generated_Source\PSoC5/cyPm.c ****     CyPmHibSlpRestore();
1055:.\Generated_Source\PSoC5/cyPm.c **** 
1056:.\Generated_Source\PSoC5/cyPm.c **** 
1057:.\Generated_Source\PSoC5/cyPm.c ****     /* Disable hardware buzz, if it was previously enabled */
1058:.\Generated_Source\PSoC5/cyPm.c ****     #if(CY_PSOC3)
ARM GAS  C:\Users\PIET~1.COU\AppData\Local\Temp\ccUpISSh.s 			page 20


1059:.\Generated_Source\PSoC5/cyPm.c **** 
1060:.\Generated_Source\PSoC5/cyPm.c ****         if(0u != (CY_PM_RESET_CR1_REG & (CY_PM_RESET_CR1_HVIA_EN |
1061:.\Generated_Source\PSoC5/cyPm.c ****             CY_PM_RESET_CR1_LVIA_EN | CY_PM_RESET_CR1_LVID_EN)))
1062:.\Generated_Source\PSoC5/cyPm.c ****         {
1063:.\Generated_Source\PSoC5/cyPm.c ****             if(CYDEV_CHIP_REV_ACTUAL >= 5u)
1064:.\Generated_Source\PSoC5/cyPm.c ****             {
1065:.\Generated_Source\PSoC5/cyPm.c ****                 if (CY_PM_DISABLED == cyPmBackup.hardwareBuzz)
1066:.\Generated_Source\PSoC5/cyPm.c ****                 {
1067:.\Generated_Source\PSoC5/cyPm.c ****                     CY_PM_PWRSYS_WAKE_TR2_REG &= (uint8)(~CY_PM_PWRSYS_WAKE_TR2_EN_BUZZ);
1068:.\Generated_Source\PSoC5/cyPm.c ****                 }
1069:.\Generated_Source\PSoC5/cyPm.c ****             }
1070:.\Generated_Source\PSoC5/cyPm.c ****         }
1071:.\Generated_Source\PSoC5/cyPm.c **** 
1072:.\Generated_Source\PSoC5/cyPm.c ****     #endif /* (CY_PSOC3) */
1073:.\Generated_Source\PSoC5/cyPm.c **** 
1074:.\Generated_Source\PSoC5/cyPm.c **** 
1075:.\Generated_Source\PSoC5/cyPm.c ****     /* Restore current wake up configuration */
1076:.\Generated_Source\PSoC5/cyPm.c ****     CY_PM_WAKEUP_CFG0_REG = cyPmBackup.wakeupCfg0;
1077:.\Generated_Source\PSoC5/cyPm.c ****     CY_PM_WAKEUP_CFG1_REG = cyPmBackup.wakeupCfg1;
1078:.\Generated_Source\PSoC5/cyPm.c ****     CY_PM_WAKEUP_CFG2_REG = cyPmBackup.wakeupCfg2;
1079:.\Generated_Source\PSoC5/cyPm.c **** 
1080:.\Generated_Source\PSoC5/cyPm.c ****     /* Restore global interrupt enable state */
1081:.\Generated_Source\PSoC5/cyPm.c ****     CyExitCriticalSection(interruptState);
1082:.\Generated_Source\PSoC5/cyPm.c **** }
1083:.\Generated_Source\PSoC5/cyPm.c **** 
1084:.\Generated_Source\PSoC5/cyPm.c **** 
1085:.\Generated_Source\PSoC5/cyPm.c **** /*******************************************************************************
1086:.\Generated_Source\PSoC5/cyPm.c **** * Function Name: CyPmHibernate
1087:.\Generated_Source\PSoC5/cyPm.c **** ********************************************************************************
1088:.\Generated_Source\PSoC5/cyPm.c **** *
1089:.\Generated_Source\PSoC5/cyPm.c **** * Summary:
1090:.\Generated_Source\PSoC5/cyPm.c **** *  Puts the part into the Hibernate state.
1091:.\Generated_Source\PSoC5/cyPm.c **** *
1092:.\Generated_Source\PSoC5/cyPm.c **** *  Before switching to Hibernate, the current status of the PICU wakeup source
1093:.\Generated_Source\PSoC5/cyPm.c **** *  bit is saved and then set. This configures the device to wake up from the
1094:.\Generated_Source\PSoC5/cyPm.c **** *  PICU. Make sure you have at least one pin configured to generate PICU
1095:.\Generated_Source\PSoC5/cyPm.c **** *  interrupt. For pin Px.y, the register "PICU_INTTYPE_PICUx_INTTYPEy" controls
1096:.\Generated_Source\PSoC5/cyPm.c **** *  the PICU behavior. In the TRM, this register is "PICU[0..15]_INTTYPE[0..7]."
1097:.\Generated_Source\PSoC5/cyPm.c **** *  In the Pins component datasheet, this register is referred to as the IRQ
1098:.\Generated_Source\PSoC5/cyPm.c **** *  option. Once the wakeup occurs, the PICU wakeup source bit is restored and
1099:.\Generated_Source\PSoC5/cyPm.c **** *  the PSoC returns to the Active state.
1100:.\Generated_Source\PSoC5/cyPm.c **** *
1101:.\Generated_Source\PSoC5/cyPm.c **** * Parameters:
1102:.\Generated_Source\PSoC5/cyPm.c **** *  None
1103:.\Generated_Source\PSoC5/cyPm.c **** *
1104:.\Generated_Source\PSoC5/cyPm.c **** * Return:
1105:.\Generated_Source\PSoC5/cyPm.c **** *  None
1106:.\Generated_Source\PSoC5/cyPm.c **** *
1107:.\Generated_Source\PSoC5/cyPm.c **** * Reentrant:
1108:.\Generated_Source\PSoC5/cyPm.c **** *  No
1109:.\Generated_Source\PSoC5/cyPm.c **** *
1110:.\Generated_Source\PSoC5/cyPm.c **** * Side Effects:
1111:.\Generated_Source\PSoC5/cyPm.c **** *  Applications must wait 20 us before re-entering hibernate or sleep after
1112:.\Generated_Source\PSoC5/cyPm.c **** *  waking up from hibernate. The 20 us allows the sleep regulator time to
1113:.\Generated_Source\PSoC5/cyPm.c **** *  stabilize before the next hibernate / sleep event occurs. The 20 us
1114:.\Generated_Source\PSoC5/cyPm.c **** *  requirement begins when the device wakes up. There is no hardware check that
1115:.\Generated_Source\PSoC5/cyPm.c **** *  this requirement is met. The specified delay should be done on ISR entry.
ARM GAS  C:\Users\PIET~1.COU\AppData\Local\Temp\ccUpISSh.s 			page 21


1116:.\Generated_Source\PSoC5/cyPm.c **** *
1117:.\Generated_Source\PSoC5/cyPm.c **** *  After the wakeup PICU interrupt occurs, the Pin_ClearInterrupt() (where Pin
1118:.\Generated_Source\PSoC5/cyPm.c **** *  is instance name of the Pins component) function must be called to clear the
1119:.\Generated_Source\PSoC5/cyPm.c **** *  latched pin events to allow the proper Hibernate mode entry and to enable
1120:.\Generated_Source\PSoC5/cyPm.c **** *  detection of future events.
1121:.\Generated_Source\PSoC5/cyPm.c **** *
1122:.\Generated_Source\PSoC5/cyPm.c **** *  The 1 kHz ILO clock is expected to be enabled for PSoC 3 and PSoC 5LP to
1123:.\Generated_Source\PSoC5/cyPm.c **** *  measure Hibernate/Sleep regulator settling time after a reset. The holdoff
1124:.\Generated_Source\PSoC5/cyPm.c **** *  delay is measured using the rising edges of the 1 kHz ILO.
1125:.\Generated_Source\PSoC5/cyPm.c **** *
1126:.\Generated_Source\PSoC5/cyPm.c **** *******************************************************************************/
1127:.\Generated_Source\PSoC5/cyPm.c **** void CyPmHibernate(void) 
1128:.\Generated_Source\PSoC5/cyPm.c **** {
1129:.\Generated_Source\PSoC5/cyPm.c ****     CyPmHibernateEx(CY_PM_HIB_SRC_PICU);
1130:.\Generated_Source\PSoC5/cyPm.c **** }
1131:.\Generated_Source\PSoC5/cyPm.c **** 
1132:.\Generated_Source\PSoC5/cyPm.c **** 
1133:.\Generated_Source\PSoC5/cyPm.c **** /*******************************************************************************
1134:.\Generated_Source\PSoC5/cyPm.c **** * Function Name: CyPmHibernateEx
1135:.\Generated_Source\PSoC5/cyPm.c **** ********************************************************************************
1136:.\Generated_Source\PSoC5/cyPm.c **** *
1137:.\Generated_Source\PSoC5/cyPm.c **** * Summary:
1138:.\Generated_Source\PSoC5/cyPm.c **** *  Puts the part into the Hibernate state.
1139:.\Generated_Source\PSoC5/cyPm.c **** *
1140:.\Generated_Source\PSoC5/cyPm.c **** *  The following wake up sources can be configured: PICU interrupt, Comparator0,
1141:.\Generated_Source\PSoC5/cyPm.c **** *  Comparator1, Comparator2, and Comparator3 output.
1142:.\Generated_Source\PSoC5/cyPm.c **** *
1143:.\Generated_Source\PSoC5/cyPm.c **** *  Before switching to Hibernate, the current status of the PICU wakeup source
1144:.\Generated_Source\PSoC5/cyPm.c **** *  bit is saved and then set.
1145:.\Generated_Source\PSoC5/cyPm.c **** *
1146:.\Generated_Source\PSoC5/cyPm.c **** *  If using PICU as the wake up source, make sure you have at least one pin
1147:.\Generated_Source\PSoC5/cyPm.c **** *  configured to generate a PICU interrupt. For pin Px.y, the register
1148:.\Generated_Source\PSoC5/cyPm.c **** *  "PICU_INTTYPE_PICUx_INTTYPEy" controls  the PICU behavior. In the TRM, this
1149:.\Generated_Source\PSoC5/cyPm.c **** *  register is "PICU[0..15]_INTTYPE[0..7]." In the Pins component datasheet,
1150:.\Generated_Source\PSoC5/cyPm.c **** *  this register is referred to as the IRQ option. Once the wakeup occurs, the
1151:.\Generated_Source\PSoC5/cyPm.c **** *  PICU wakeup source bit is restored and the PSoC returns to the Active state.
1152:.\Generated_Source\PSoC5/cyPm.c **** *
1153:.\Generated_Source\PSoC5/cyPm.c **** *  If using a comparator as the wake up source, make sure you call this function
1154:.\Generated_Source\PSoC5/cyPm.c **** *  with the 'wakeupSource' parameter set to the appropriate comparator. The part
1155:.\Generated_Source\PSoC5/cyPm.c **** *  is configured for the requested wakeup source by setting the corresponding
1156:.\Generated_Source\PSoC5/cyPm.c **** *  bits in PM_WAKEUP_CFG1 register.
1157:.\Generated_Source\PSoC5/cyPm.c **** *
1158:.\Generated_Source\PSoC5/cyPm.c **** *  Function call CyPmHibernateEx(CY_PM_HIB_SRC_PICU) will act in the same way as
1159:.\Generated_Source\PSoC5/cyPm.c **** *  CyPmHibernate().
1160:.\Generated_Source\PSoC5/cyPm.c **** *
1161:.\Generated_Source\PSoC5/cyPm.c **** * Parameters:
1162:.\Generated_Source\PSoC5/cyPm.c **** *  wakeupSource:
1163:.\Generated_Source\PSoC5/cyPm.c **** *           Parameter Value             Description
1164:.\Generated_Source\PSoC5/cyPm.c **** *       CY_PM_HIB_SRC_PICU          PICU interrupt is set as the wake up source.
1165:.\Generated_Source\PSoC5/cyPm.c **** *       CY_PM_HIB_SRC_COMPARATOR0   Comparator 0 is set as the wake up source.
1166:.\Generated_Source\PSoC5/cyPm.c **** *       CY_PM_HIB_SRC_COMPARATOR1   Comparator 1 is set as the wake up source.
1167:.\Generated_Source\PSoC5/cyPm.c **** *       CY_PM_HIB_SRC_COMPARATOR2   Comparator 2 is set as the wake up source.
1168:.\Generated_Source\PSoC5/cyPm.c **** *       CY_PM_HIB_SRC_COMPARATOR3   Comparator 3 is set as the wake up source.
1169:.\Generated_Source\PSoC5/cyPm.c **** *
1170:.\Generated_Source\PSoC5/cyPm.c **** * Return:
1171:.\Generated_Source\PSoC5/cyPm.c **** *  None
1172:.\Generated_Source\PSoC5/cyPm.c **** *
ARM GAS  C:\Users\PIET~1.COU\AppData\Local\Temp\ccUpISSh.s 			page 22


1173:.\Generated_Source\PSoC5/cyPm.c **** * Reentrant:
1174:.\Generated_Source\PSoC5/cyPm.c **** *  No
1175:.\Generated_Source\PSoC5/cyPm.c **** *
1176:.\Generated_Source\PSoC5/cyPm.c **** * Side Effects:
1177:.\Generated_Source\PSoC5/cyPm.c **** *  Applications must wait 20 us before re-entering hibernate or sleep after
1178:.\Generated_Source\PSoC5/cyPm.c **** *  waking up from hibernate. The 20 us allows the sleep regulator time to
1179:.\Generated_Source\PSoC5/cyPm.c **** *  stabilize before the next hibernate / sleep event occurs. The 20 us
1180:.\Generated_Source\PSoC5/cyPm.c **** *  requirement begins when the device wakes up. There is no hardware check that
1181:.\Generated_Source\PSoC5/cyPm.c **** *  this requirement is met. The specified delay should be done on ISR entry.
1182:.\Generated_Source\PSoC5/cyPm.c **** *
1183:.\Generated_Source\PSoC5/cyPm.c **** *  After the wakeup PICU interrupt occurs, the Pin_ClearInterrupt() (where Pin
1184:.\Generated_Source\PSoC5/cyPm.c **** *  is instance name of the Pins component) function must be called to clear the
1185:.\Generated_Source\PSoC5/cyPm.c **** *  latched pin events to allow the proper Hibernate mode entry and to enable
1186:.\Generated_Source\PSoC5/cyPm.c **** *  detection of future events.
1187:.\Generated_Source\PSoC5/cyPm.c **** *
1188:.\Generated_Source\PSoC5/cyPm.c **** *  The 1 kHz ILO clock is expected to be enabled for PSoC 3 and PSoC 5LP to
1189:.\Generated_Source\PSoC5/cyPm.c **** *  measure Hibernate/Sleep regulator settling time after a reset. The holdoff
1190:.\Generated_Source\PSoC5/cyPm.c **** *  delay is measured using the rising edges of the 1 kHz ILO.
1191:.\Generated_Source\PSoC5/cyPm.c **** *
1192:.\Generated_Source\PSoC5/cyPm.c **** *******************************************************************************/
1193:.\Generated_Source\PSoC5/cyPm.c **** void CyPmHibernateEx(uint16 wakeupSource) 
1194:.\Generated_Source\PSoC5/cyPm.c **** {
1195:.\Generated_Source\PSoC5/cyPm.c ****     uint8 interruptState;
1196:.\Generated_Source\PSoC5/cyPm.c **** 
1197:.\Generated_Source\PSoC5/cyPm.c ****     /* Save current global interrupt enable and disable it */
1198:.\Generated_Source\PSoC5/cyPm.c ****     interruptState = CyEnterCriticalSection();
1199:.\Generated_Source\PSoC5/cyPm.c **** 
1200:.\Generated_Source\PSoC5/cyPm.c ****         /***********************************************************************
1201:.\Generated_Source\PSoC5/cyPm.c ****         * The Hibernate/Sleep regulator has a settling time after a reset.
1202:.\Generated_Source\PSoC5/cyPm.c ****         * During this time, the system ignores requests to enter the Sleep and
1203:.\Generated_Source\PSoC5/cyPm.c ****         * Hibernate modes. The holdoff delay is measured using the rising edges of
1204:.\Generated_Source\PSoC5/cyPm.c ****         * the 1 kHz ILO.
1205:.\Generated_Source\PSoC5/cyPm.c ****         ***********************************************************************/
1206:.\Generated_Source\PSoC5/cyPm.c ****         if(0u == (CY_PM_MODE_CSR_REG & CY_PM_MODE_CSR_PWRUP_PULSE_Q))
1207:.\Generated_Source\PSoC5/cyPm.c ****         {
1208:.\Generated_Source\PSoC5/cyPm.c ****             /* Disable hold off - no action on restore */
1209:.\Generated_Source\PSoC5/cyPm.c ****             CY_PM_PWRSYS_SLP_TR_REG &= CY_PM_PWRSYS_SLP_TR_HIBSLP_HOLDOFF_MASK;
1210:.\Generated_Source\PSoC5/cyPm.c ****         }
1211:.\Generated_Source\PSoC5/cyPm.c ****         else
1212:.\Generated_Source\PSoC5/cyPm.c ****         {
1213:.\Generated_Source\PSoC5/cyPm.c ****             /* Abort, device is not ready for low power mode entry */
1214:.\Generated_Source\PSoC5/cyPm.c **** 
1215:.\Generated_Source\PSoC5/cyPm.c ****             /* Restore global interrupt enable state */
1216:.\Generated_Source\PSoC5/cyPm.c ****             CyExitCriticalSection(interruptState);
1217:.\Generated_Source\PSoC5/cyPm.c **** 
1218:.\Generated_Source\PSoC5/cyPm.c ****             return;
1219:.\Generated_Source\PSoC5/cyPm.c ****         }
1220:.\Generated_Source\PSoC5/cyPm.c **** 
1221:.\Generated_Source\PSoC5/cyPm.c ****     CyPmHibSaveSet();
1222:.\Generated_Source\PSoC5/cyPm.c **** 
1223:.\Generated_Source\PSoC5/cyPm.c **** 
1224:.\Generated_Source\PSoC5/cyPm.c ****     /* Save and set new wake up configuration */
1225:.\Generated_Source\PSoC5/cyPm.c **** 
1226:.\Generated_Source\PSoC5/cyPm.c ****     /* Save and enable only wakeup on PICU */
1227:.\Generated_Source\PSoC5/cyPm.c ****     cyPmBackup.wakeupCfg0 = CY_PM_WAKEUP_CFG0_REG;
1228:.\Generated_Source\PSoC5/cyPm.c ****     CY_PM_WAKEUP_CFG0_REG = ((uint8) (wakeupSource >> 4u) & CY_PM_WAKEUP_PICU);
1229:.\Generated_Source\PSoC5/cyPm.c **** 
ARM GAS  C:\Users\PIET~1.COU\AppData\Local\Temp\ccUpISSh.s 			page 23


1230:.\Generated_Source\PSoC5/cyPm.c ****     /* Comparators */
1231:.\Generated_Source\PSoC5/cyPm.c ****     cyPmBackup.wakeupCfg1 = CY_PM_WAKEUP_CFG1_REG;
1232:.\Generated_Source\PSoC5/cyPm.c ****     CY_PM_WAKEUP_CFG1_REG = (((uint8) wakeupSource) & CY_PM_WAKEUP_SRC_CMPS_MASK);
1233:.\Generated_Source\PSoC5/cyPm.c **** 
1234:.\Generated_Source\PSoC5/cyPm.c ****     cyPmBackup.wakeupCfg2 = CY_PM_WAKEUP_CFG2_REG;
1235:.\Generated_Source\PSoC5/cyPm.c ****     CY_PM_WAKEUP_CFG2_REG = 0x00u;
1236:.\Generated_Source\PSoC5/cyPm.c **** 
1237:.\Generated_Source\PSoC5/cyPm.c **** 
1238:.\Generated_Source\PSoC5/cyPm.c ****     /* Last moment IMO frequency change */
1239:.\Generated_Source\PSoC5/cyPm.c ****     if(0u == (CY_PM_FASTCLK_IMO_CR_REG & CY_PM_FASTCLK_IMO_CR_FREQ_MASK))
1240:.\Generated_Source\PSoC5/cyPm.c ****     {
1241:.\Generated_Source\PSoC5/cyPm.c ****         /* IMO frequency is 12 MHz */
1242:.\Generated_Source\PSoC5/cyPm.c ****         cyPmBackup.imoActFreq12Mhz = CY_PM_ENABLED;
1243:.\Generated_Source\PSoC5/cyPm.c ****     }
1244:.\Generated_Source\PSoC5/cyPm.c ****     else
1245:.\Generated_Source\PSoC5/cyPm.c ****     {
1246:.\Generated_Source\PSoC5/cyPm.c ****         /* IMO frequency is not 12 MHz */
1247:.\Generated_Source\PSoC5/cyPm.c ****         cyPmBackup.imoActFreq12Mhz = CY_PM_DISABLED;
1248:.\Generated_Source\PSoC5/cyPm.c **** 
1249:.\Generated_Source\PSoC5/cyPm.c ****         /* Save IMO frequency */
1250:.\Generated_Source\PSoC5/cyPm.c ****         cyPmBackup.imoActFreq = CY_PM_FASTCLK_IMO_CR_REG & CY_PM_FASTCLK_IMO_CR_FREQ_MASK;
1251:.\Generated_Source\PSoC5/cyPm.c **** 
1252:.\Generated_Source\PSoC5/cyPm.c ****         /* Set IMO frequency to 12 MHz */
1253:.\Generated_Source\PSoC5/cyPm.c ****         CY_PM_FASTCLK_IMO_CR_REG &= ((uint8) (~CY_PM_FASTCLK_IMO_CR_FREQ_MASK));
1254:.\Generated_Source\PSoC5/cyPm.c ****     }
1255:.\Generated_Source\PSoC5/cyPm.c **** 
1256:.\Generated_Source\PSoC5/cyPm.c **** 
1257:.\Generated_Source\PSoC5/cyPm.c ****     /* Switch to Hibernate Mode */
1258:.\Generated_Source\PSoC5/cyPm.c ****     CY_PM_MODE_CSR_REG = (CY_PM_MODE_CSR_REG & ((uint8) (~CY_PM_MODE_CSR_MASK))) | CY_PM_MODE_CSR_H
1259:.\Generated_Source\PSoC5/cyPm.c **** 
1260:.\Generated_Source\PSoC5/cyPm.c ****     /* Recommended readback. */
1261:.\Generated_Source\PSoC5/cyPm.c ****     (void) CY_PM_MODE_CSR_REG;
1262:.\Generated_Source\PSoC5/cyPm.c **** 
1263:.\Generated_Source\PSoC5/cyPm.c ****     /* Two recommended NOPs to get into mode. */
1264:.\Generated_Source\PSoC5/cyPm.c ****     CY_NOP;
1265:.\Generated_Source\PSoC5/cyPm.c ****     CY_NOP;
1266:.\Generated_Source\PSoC5/cyPm.c **** 
1267:.\Generated_Source\PSoC5/cyPm.c ****     /* Execute WFI instruction (for ARM-based devices only) */
1268:.\Generated_Source\PSoC5/cyPm.c ****     CY_PM_WFI;
1269:.\Generated_Source\PSoC5/cyPm.c **** 
1270:.\Generated_Source\PSoC5/cyPm.c **** 
1271:.\Generated_Source\PSoC5/cyPm.c ****     /* Point of return from Hibernate mode */
1272:.\Generated_Source\PSoC5/cyPm.c **** 
1273:.\Generated_Source\PSoC5/cyPm.c **** 
1274:.\Generated_Source\PSoC5/cyPm.c ****     /* Restore last moment IMO frequency change */
1275:.\Generated_Source\PSoC5/cyPm.c ****     if(CY_PM_ENABLED != cyPmBackup.imoActFreq12Mhz)
1276:.\Generated_Source\PSoC5/cyPm.c ****     {
1277:.\Generated_Source\PSoC5/cyPm.c ****         CY_PM_FASTCLK_IMO_CR_REG  = (CY_PM_FASTCLK_IMO_CR_REG & ((uint8)(~CY_PM_FASTCLK_IMO_CR_FREQ
1278:.\Generated_Source\PSoC5/cyPm.c ****                                     cyPmBackup.imoActFreq;
1279:.\Generated_Source\PSoC5/cyPm.c ****     }
1280:.\Generated_Source\PSoC5/cyPm.c **** 
1281:.\Generated_Source\PSoC5/cyPm.c **** 
1282:.\Generated_Source\PSoC5/cyPm.c ****     /* Restore device for proper Hibernate mode exit*/
1283:.\Generated_Source\PSoC5/cyPm.c ****     CyPmHibRestore();
1284:.\Generated_Source\PSoC5/cyPm.c **** 
1285:.\Generated_Source\PSoC5/cyPm.c ****     /* Restore current wake up configuration */
1286:.\Generated_Source\PSoC5/cyPm.c ****     CY_PM_WAKEUP_CFG0_REG = cyPmBackup.wakeupCfg0;
ARM GAS  C:\Users\PIET~1.COU\AppData\Local\Temp\ccUpISSh.s 			page 24


1287:.\Generated_Source\PSoC5/cyPm.c ****     CY_PM_WAKEUP_CFG1_REG = cyPmBackup.wakeupCfg1;
1288:.\Generated_Source\PSoC5/cyPm.c ****     CY_PM_WAKEUP_CFG2_REG = cyPmBackup.wakeupCfg2;
1289:.\Generated_Source\PSoC5/cyPm.c **** 
1290:.\Generated_Source\PSoC5/cyPm.c ****     /* Restore global interrupt enable state */
1291:.\Generated_Source\PSoC5/cyPm.c ****     CyExitCriticalSection(interruptState);
1292:.\Generated_Source\PSoC5/cyPm.c **** }
1293:.\Generated_Source\PSoC5/cyPm.c **** 
1294:.\Generated_Source\PSoC5/cyPm.c **** 
1295:.\Generated_Source\PSoC5/cyPm.c **** /*******************************************************************************
1296:.\Generated_Source\PSoC5/cyPm.c **** * Function Name: CyPmReadStatus
1297:.\Generated_Source\PSoC5/cyPm.c **** ********************************************************************************
1298:.\Generated_Source\PSoC5/cyPm.c **** *
1299:.\Generated_Source\PSoC5/cyPm.c **** * Summary:
1300:.\Generated_Source\PSoC5/cyPm.c **** *  Manages the Power Manager Interrupt Status Register.  This register has the
1301:.\Generated_Source\PSoC5/cyPm.c **** *  interrupt status for the one pulse per second, central timewheel and fast
1302:.\Generated_Source\PSoC5/cyPm.c **** *  timewheel timers.  This hardware register clears on read.  To allow for only
1303:.\Generated_Source\PSoC5/cyPm.c **** *  clearing the bits of interest and preserving the other bits, this function
1304:.\Generated_Source\PSoC5/cyPm.c **** *  uses a shadow register that retains the state.  This function reads the
1305:.\Generated_Source\PSoC5/cyPm.c **** *  status register and ORs that value with the shadow register.  That is the
1306:.\Generated_Source\PSoC5/cyPm.c **** *  value that is returned.  Then the bits in the mask that are set are cleared
1307:.\Generated_Source\PSoC5/cyPm.c **** *  from this value and written back to the shadow register.
1308:.\Generated_Source\PSoC5/cyPm.c **** *
1309:.\Generated_Source\PSoC5/cyPm.c **** *  Note You must call this function within 1 ms (1 clock cycle of the ILO)
1310:.\Generated_Source\PSoC5/cyPm.c **** *  after a CTW event has occurred.
1311:.\Generated_Source\PSoC5/cyPm.c **** *
1312:.\Generated_Source\PSoC5/cyPm.c **** * Parameters:
1313:.\Generated_Source\PSoC5/cyPm.c **** *  mask: Bits in the shadow register to clear.
1314:.\Generated_Source\PSoC5/cyPm.c **** *
1315:.\Generated_Source\PSoC5/cyPm.c **** *       Define                      Source
1316:.\Generated_Source\PSoC5/cyPm.c **** *  CY_PM_FTW_INT                Fast Timewheel
1317:.\Generated_Source\PSoC5/cyPm.c **** *  CY_PM_CTW_INT                Central Timewheel
1318:.\Generated_Source\PSoC5/cyPm.c **** *  CY_PM_ONEPPS_INT             One Pulse Per Second
1319:.\Generated_Source\PSoC5/cyPm.c **** *
1320:.\Generated_Source\PSoC5/cyPm.c **** * Return:
1321:.\Generated_Source\PSoC5/cyPm.c **** *  Status.  Same bits values as the mask parameter.
1322:.\Generated_Source\PSoC5/cyPm.c **** *
1323:.\Generated_Source\PSoC5/cyPm.c **** *******************************************************************************/
1324:.\Generated_Source\PSoC5/cyPm.c **** uint8 CyPmReadStatus(uint8 mask) 
1325:.\Generated_Source\PSoC5/cyPm.c **** {
1326:.\Generated_Source\PSoC5/cyPm.c ****     static uint8 interruptStatus;
1327:.\Generated_Source\PSoC5/cyPm.c ****     uint8 interruptState;
1328:.\Generated_Source\PSoC5/cyPm.c ****     uint8 tmpStatus;
1329:.\Generated_Source\PSoC5/cyPm.c **** 
1330:.\Generated_Source\PSoC5/cyPm.c ****     /* Enter critical section */
1331:.\Generated_Source\PSoC5/cyPm.c ****     interruptState = CyEnterCriticalSection();
1332:.\Generated_Source\PSoC5/cyPm.c **** 
1333:.\Generated_Source\PSoC5/cyPm.c ****     /* Save value of register, copy it and clear desired bit */
1334:.\Generated_Source\PSoC5/cyPm.c ****     interruptStatus |= CY_PM_INT_SR_REG;
1335:.\Generated_Source\PSoC5/cyPm.c ****     tmpStatus = interruptStatus & (CY_PM_FTW_INT | CY_PM_CTW_INT | CY_PM_ONEPPS_INT);
1336:.\Generated_Source\PSoC5/cyPm.c ****     interruptStatus &= ((uint8)(~mask));
1337:.\Generated_Source\PSoC5/cyPm.c **** 
1338:.\Generated_Source\PSoC5/cyPm.c ****     /* Exit critical section */
1339:.\Generated_Source\PSoC5/cyPm.c ****     CyExitCriticalSection(interruptState);
1340:.\Generated_Source\PSoC5/cyPm.c **** 
1341:.\Generated_Source\PSoC5/cyPm.c ****     return(tmpStatus);
1342:.\Generated_Source\PSoC5/cyPm.c **** }
1343:.\Generated_Source\PSoC5/cyPm.c **** 
ARM GAS  C:\Users\PIET~1.COU\AppData\Local\Temp\ccUpISSh.s 			page 25


1344:.\Generated_Source\PSoC5/cyPm.c **** 
1345:.\Generated_Source\PSoC5/cyPm.c **** /*******************************************************************************
1346:.\Generated_Source\PSoC5/cyPm.c **** * Function Name: CyPmHibSaveSet
1347:.\Generated_Source\PSoC5/cyPm.c **** ********************************************************************************
1348:.\Generated_Source\PSoC5/cyPm.c **** *
1349:.\Generated_Source\PSoC5/cyPm.c **** * Summary:
1350:.\Generated_Source\PSoC5/cyPm.c **** *  Prepare device for proper Hibernate low power mode entry:
1351:.\Generated_Source\PSoC5/cyPm.c **** *  - Disables I2C backup regulator
1352:.\Generated_Source\PSoC5/cyPm.c **** *  - Saves ILO power down mode state and enable it
1353:.\Generated_Source\PSoC5/cyPm.c **** *  - Saves state of 1 kHz and 100 kHz ILO and disable them
1354:.\Generated_Source\PSoC5/cyPm.c **** *  - Disables sleep regulator and shorts vccd to vpwrsleep
1355:.\Generated_Source\PSoC5/cyPm.c **** *  - Save LVI/HVI configuration and disable them - CyPmHviLviSaveDisable()
1356:.\Generated_Source\PSoC5/cyPm.c **** *  - CyPmHibSlpSaveSet() function is called
1357:.\Generated_Source\PSoC5/cyPm.c **** *
1358:.\Generated_Source\PSoC5/cyPm.c **** * Parameters:
1359:.\Generated_Source\PSoC5/cyPm.c **** *  None
1360:.\Generated_Source\PSoC5/cyPm.c **** *
1361:.\Generated_Source\PSoC5/cyPm.c **** * Return:
1362:.\Generated_Source\PSoC5/cyPm.c **** *  None
1363:.\Generated_Source\PSoC5/cyPm.c **** *
1364:.\Generated_Source\PSoC5/cyPm.c **** * Reentrant:
1365:.\Generated_Source\PSoC5/cyPm.c **** *  No
1366:.\Generated_Source\PSoC5/cyPm.c **** *
1367:.\Generated_Source\PSoC5/cyPm.c **** *******************************************************************************/
1368:.\Generated_Source\PSoC5/cyPm.c **** static void CyPmHibSaveSet(void) 
1369:.\Generated_Source\PSoC5/cyPm.c **** {
1370:.\Generated_Source\PSoC5/cyPm.c ****     /* I2C backup reg must be off when the sleep regulator is unavailable */
1371:.\Generated_Source\PSoC5/cyPm.c ****     if(0u != (CY_PM_PWRSYS_CR1_REG & CY_PM_PWRSYS_CR1_I2CREG_BACKUP))
1372:.\Generated_Source\PSoC5/cyPm.c ****     {
1373:.\Generated_Source\PSoC5/cyPm.c ****         /***********************************************************************
1374:.\Generated_Source\PSoC5/cyPm.c ****         * If the I2C backup regulator is enabled, all the fixed-function registers
1375:.\Generated_Source\PSoC5/cyPm.c ****         * store their values while the device is in the low power mode, otherwise their
1376:.\Generated_Source\PSoC5/cyPm.c ****         * configuration is lost. The I2C API makes a decision to restore or not
1377:.\Generated_Source\PSoC5/cyPm.c ****         * to restore I2C registers based on this. If this regulator will be
1378:.\Generated_Source\PSoC5/cyPm.c ****         * disabled and then enabled, I2C API will suppose that the I2C block
1379:.\Generated_Source\PSoC5/cyPm.c ****         * registers preserved their values, while this is not true. So, the
1380:.\Generated_Source\PSoC5/cyPm.c ****         * backup regulator is disabled. The I2C sleep APIs is responsible for
1381:.\Generated_Source\PSoC5/cyPm.c ****         * restoration.
1382:.\Generated_Source\PSoC5/cyPm.c ****         ***********************************************************************/
1383:.\Generated_Source\PSoC5/cyPm.c **** 
1384:.\Generated_Source\PSoC5/cyPm.c ****         /* Disable I2C backup register */
1385:.\Generated_Source\PSoC5/cyPm.c ****         CY_PM_PWRSYS_CR1_REG &= ((uint8)(~CY_PM_PWRSYS_CR1_I2CREG_BACKUP));
1386:.\Generated_Source\PSoC5/cyPm.c ****     }
1387:.\Generated_Source\PSoC5/cyPm.c **** 
1388:.\Generated_Source\PSoC5/cyPm.c **** 
1389:.\Generated_Source\PSoC5/cyPm.c ****     /* Save current ILO power mode and ensure low power mode */
1390:.\Generated_Source\PSoC5/cyPm.c ****     cyPmBackup.iloPowerMode = CyILO_SetPowerMode(CY_PM_POWERDOWN_MODE);
1391:.\Generated_Source\PSoC5/cyPm.c **** 
1392:.\Generated_Source\PSoC5/cyPm.c ****     /* Save current 1kHz ILO enable state. Disabled automatically. */
1393:.\Generated_Source\PSoC5/cyPm.c ****     cyPmBackup.ilo1kEnable = (0u == (CY_PM_SLOWCLK_ILO_CR0_REG & CY_PM_ILO_CR0_EN_1K)) ?
1394:.\Generated_Source\PSoC5/cyPm.c ****                                 CY_PM_DISABLED : CY_PM_ENABLED;
1395:.\Generated_Source\PSoC5/cyPm.c **** 
1396:.\Generated_Source\PSoC5/cyPm.c ****     /* Save current 100kHz ILO enable state. Disabled automatically. */
1397:.\Generated_Source\PSoC5/cyPm.c ****     cyPmBackup.ilo100kEnable = (0u == (CY_PM_SLOWCLK_ILO_CR0_REG & CY_PM_ILO_CR0_EN_100K)) ?
1398:.\Generated_Source\PSoC5/cyPm.c ****                                 CY_PM_DISABLED : CY_PM_ENABLED;
1399:.\Generated_Source\PSoC5/cyPm.c **** 
1400:.\Generated_Source\PSoC5/cyPm.c **** 
ARM GAS  C:\Users\PIET~1.COU\AppData\Local\Temp\ccUpISSh.s 			page 26


1401:.\Generated_Source\PSoC5/cyPm.c ****     /* Disable the sleep regulator and shorts vccd to vpwrsleep */
1402:.\Generated_Source\PSoC5/cyPm.c ****     if(0u == (CY_PM_PWRSYS_SLP_TR_REG & CY_PM_PWRSYS_SLP_TR_BYPASS))
1403:.\Generated_Source\PSoC5/cyPm.c ****     {
1404:.\Generated_Source\PSoC5/cyPm.c ****         /* Save current bypass state */
1405:.\Generated_Source\PSoC5/cyPm.c ****         cyPmBackup.slpTrBypass = CY_PM_DISABLED;
1406:.\Generated_Source\PSoC5/cyPm.c ****         CY_PM_PWRSYS_SLP_TR_REG |= CY_PM_PWRSYS_SLP_TR_BYPASS;
1407:.\Generated_Source\PSoC5/cyPm.c ****     }
1408:.\Generated_Source\PSoC5/cyPm.c ****     else
1409:.\Generated_Source\PSoC5/cyPm.c ****     {
1410:.\Generated_Source\PSoC5/cyPm.c ****         cyPmBackup.slpTrBypass = CY_PM_ENABLED;
1411:.\Generated_Source\PSoC5/cyPm.c ****     }
1412:.\Generated_Source\PSoC5/cyPm.c **** 
1413:.\Generated_Source\PSoC5/cyPm.c ****     /* LPCOMPs are always enabled (even when BOTH ext_vccd=1 and ext_vcca=1)*/
1414:.\Generated_Source\PSoC5/cyPm.c **** 
1415:.\Generated_Source\PSoC5/cyPm.c **** 
1416:.\Generated_Source\PSoC5/cyPm.c ****     /***************************************************************************
1417:.\Generated_Source\PSoC5/cyPm.c ****     * LVI/HVI must be disabled in Hibernate
1418:.\Generated_Source\PSoC5/cyPm.c ****     ***************************************************************************/
1419:.\Generated_Source\PSoC5/cyPm.c **** 
1420:.\Generated_Source\PSoC5/cyPm.c ****     /* Save LVI/HVI configuration and disable them */
1421:.\Generated_Source\PSoC5/cyPm.c ****     CyPmHviLviSaveDisable();
1422:.\Generated_Source\PSoC5/cyPm.c **** 
1423:.\Generated_Source\PSoC5/cyPm.c **** 
1424:.\Generated_Source\PSoC5/cyPm.c ****     /* Make the same preparations for Hibernate and Sleep modes */
1425:.\Generated_Source\PSoC5/cyPm.c ****     CyPmHibSlpSaveSet();
1426:.\Generated_Source\PSoC5/cyPm.c **** 
1427:.\Generated_Source\PSoC5/cyPm.c **** 
1428:.\Generated_Source\PSoC5/cyPm.c ****     /***************************************************************************
1429:.\Generated_Source\PSoC5/cyPm.c ****     * Save and set the power mode wakeup trim registers
1430:.\Generated_Source\PSoC5/cyPm.c ****     ***************************************************************************/
1431:.\Generated_Source\PSoC5/cyPm.c ****     cyPmBackup.wakeupTrim0 = CY_PM_PWRSYS_WAKE_TR0_REG;
1432:.\Generated_Source\PSoC5/cyPm.c ****     cyPmBackup.wakeupTrim1 = CY_PM_PWRSYS_WAKE_TR1_REG;
1433:.\Generated_Source\PSoC5/cyPm.c **** 
1434:.\Generated_Source\PSoC5/cyPm.c ****     CY_PM_PWRSYS_WAKE_TR0_REG = CY_PM_PWRSYS_WAKE_TR0;
1435:.\Generated_Source\PSoC5/cyPm.c ****     CY_PM_PWRSYS_WAKE_TR1_REG = CY_PM_PWRSYS_WAKE_TR1;
1436:.\Generated_Source\PSoC5/cyPm.c **** }
1437:.\Generated_Source\PSoC5/cyPm.c **** 
1438:.\Generated_Source\PSoC5/cyPm.c **** 
1439:.\Generated_Source\PSoC5/cyPm.c **** /*******************************************************************************
1440:.\Generated_Source\PSoC5/cyPm.c **** * Function Name: CyPmHibRestore
1441:.\Generated_Source\PSoC5/cyPm.c **** ********************************************************************************
1442:.\Generated_Source\PSoC5/cyPm.c **** *
1443:.\Generated_Source\PSoC5/cyPm.c **** * Summary:
1444:.\Generated_Source\PSoC5/cyPm.c **** *  Restores the device for the proper Hibernate mode exit:
1445:.\Generated_Source\PSoC5/cyPm.c **** *  - Restores LVI/HVI configuration - calsl CyPmHviLviRestore()
1446:.\Generated_Source\PSoC5/cyPm.c **** *  - CyPmHibSlpSaveRestore() function is called
1447:.\Generated_Source\PSoC5/cyPm.c **** *  - Restores ILO power down mode state and enables it
1448:.\Generated_Source\PSoC5/cyPm.c **** *  - Restores the state of 1 kHz and 100 kHz ILO and disables them
1449:.\Generated_Source\PSoC5/cyPm.c **** *  - Restores the sleep regulator settings
1450:.\Generated_Source\PSoC5/cyPm.c **** *
1451:.\Generated_Source\PSoC5/cyPm.c **** * Parameters:
1452:.\Generated_Source\PSoC5/cyPm.c **** *  None
1453:.\Generated_Source\PSoC5/cyPm.c **** *
1454:.\Generated_Source\PSoC5/cyPm.c **** * Return:
1455:.\Generated_Source\PSoC5/cyPm.c **** *  None
1456:.\Generated_Source\PSoC5/cyPm.c **** *
1457:.\Generated_Source\PSoC5/cyPm.c **** *******************************************************************************/
ARM GAS  C:\Users\PIET~1.COU\AppData\Local\Temp\ccUpISSh.s 			page 27


1458:.\Generated_Source\PSoC5/cyPm.c **** static void CyPmHibRestore(void) 
1459:.\Generated_Source\PSoC5/cyPm.c **** {
1460:.\Generated_Source\PSoC5/cyPm.c ****     /* Restore LVI/HVI configuration */
1461:.\Generated_Source\PSoC5/cyPm.c ****     CyPmHviLviRestore();
1462:.\Generated_Source\PSoC5/cyPm.c **** 
1463:.\Generated_Source\PSoC5/cyPm.c ****     /* Restore the same configuration for Hibernate and Sleep modes */
1464:.\Generated_Source\PSoC5/cyPm.c ****     CyPmHibSlpRestore();
1465:.\Generated_Source\PSoC5/cyPm.c **** 
1466:.\Generated_Source\PSoC5/cyPm.c ****     /* Restore 1kHz ILO enable state */
1467:.\Generated_Source\PSoC5/cyPm.c ****     if(CY_PM_ENABLED == cyPmBackup.ilo1kEnable)
1468:.\Generated_Source\PSoC5/cyPm.c ****     {
1469:.\Generated_Source\PSoC5/cyPm.c ****         /* Enable 1kHz ILO */
1470:.\Generated_Source\PSoC5/cyPm.c ****         CyILO_Start1K();
1471:.\Generated_Source\PSoC5/cyPm.c ****     }
1472:.\Generated_Source\PSoC5/cyPm.c **** 
1473:.\Generated_Source\PSoC5/cyPm.c ****     /* Restore 100kHz ILO enable state */
1474:.\Generated_Source\PSoC5/cyPm.c ****     if(CY_PM_ENABLED == cyPmBackup.ilo100kEnable)
1475:.\Generated_Source\PSoC5/cyPm.c ****     {
1476:.\Generated_Source\PSoC5/cyPm.c ****         /* Enable 100kHz ILO */
1477:.\Generated_Source\PSoC5/cyPm.c ****         CyILO_Start100K();
1478:.\Generated_Source\PSoC5/cyPm.c ****     }
1479:.\Generated_Source\PSoC5/cyPm.c **** 
1480:.\Generated_Source\PSoC5/cyPm.c ****     /* Restore ILO power mode */
1481:.\Generated_Source\PSoC5/cyPm.c ****     (void) CyILO_SetPowerMode(cyPmBackup.iloPowerMode);
1482:.\Generated_Source\PSoC5/cyPm.c **** 
1483:.\Generated_Source\PSoC5/cyPm.c **** 
1484:.\Generated_Source\PSoC5/cyPm.c ****     if(CY_PM_DISABLED == cyPmBackup.slpTrBypass)
1485:.\Generated_Source\PSoC5/cyPm.c ****     {
1486:.\Generated_Source\PSoC5/cyPm.c ****         /* Enable the sleep regulator */
1487:.\Generated_Source\PSoC5/cyPm.c ****         CY_PM_PWRSYS_SLP_TR_REG &= ((uint8)(~CY_PM_PWRSYS_SLP_TR_BYPASS));
1488:.\Generated_Source\PSoC5/cyPm.c ****     }
1489:.\Generated_Source\PSoC5/cyPm.c **** 
1490:.\Generated_Source\PSoC5/cyPm.c **** 
1491:.\Generated_Source\PSoC5/cyPm.c ****     /***************************************************************************
1492:.\Generated_Source\PSoC5/cyPm.c ****     * Restore the power mode wakeup trim registers
1493:.\Generated_Source\PSoC5/cyPm.c ****     ***************************************************************************/
1494:.\Generated_Source\PSoC5/cyPm.c ****     CY_PM_PWRSYS_WAKE_TR0_REG = cyPmBackup.wakeupTrim0;
1495:.\Generated_Source\PSoC5/cyPm.c ****     CY_PM_PWRSYS_WAKE_TR1_REG = cyPmBackup.wakeupTrim1;
1496:.\Generated_Source\PSoC5/cyPm.c **** }
1497:.\Generated_Source\PSoC5/cyPm.c **** 
1498:.\Generated_Source\PSoC5/cyPm.c **** 
1499:.\Generated_Source\PSoC5/cyPm.c **** /*******************************************************************************
1500:.\Generated_Source\PSoC5/cyPm.c **** * Function Name: CyPmCtwSetInterval
1501:.\Generated_Source\PSoC5/cyPm.c **** ********************************************************************************
1502:.\Generated_Source\PSoC5/cyPm.c **** *
1503:.\Generated_Source\PSoC5/cyPm.c **** * Summary:
1504:.\Generated_Source\PSoC5/cyPm.c **** *  Performs the CTW configuration:
1505:.\Generated_Source\PSoC5/cyPm.c **** *  - Disables the CTW interrupt
1506:.\Generated_Source\PSoC5/cyPm.c **** *  - Enables 1 kHz ILO
1507:.\Generated_Source\PSoC5/cyPm.c **** *  - Sets a new CTW interval
1508:.\Generated_Source\PSoC5/cyPm.c **** *
1509:.\Generated_Source\PSoC5/cyPm.c **** * Parameters:
1510:.\Generated_Source\PSoC5/cyPm.c **** *  ctwInterval: the CTW interval to be set.
1511:.\Generated_Source\PSoC5/cyPm.c **** *
1512:.\Generated_Source\PSoC5/cyPm.c **** * Return:
1513:.\Generated_Source\PSoC5/cyPm.c **** *  None
1514:.\Generated_Source\PSoC5/cyPm.c **** *
ARM GAS  C:\Users\PIET~1.COU\AppData\Local\Temp\ccUpISSh.s 			page 28


1515:.\Generated_Source\PSoC5/cyPm.c **** * Side Effects:
1516:.\Generated_Source\PSoC5/cyPm.c **** *  Enables ILO 1 KHz clock and leaves it enabled.
1517:.\Generated_Source\PSoC5/cyPm.c **** *
1518:.\Generated_Source\PSoC5/cyPm.c **** *******************************************************************************/
1519:.\Generated_Source\PSoC5/cyPm.c **** void CyPmCtwSetInterval(uint8 ctwInterval) 
1520:.\Generated_Source\PSoC5/cyPm.c **** {
1521:.\Generated_Source\PSoC5/cyPm.c ****     /* Disable CTW interrupt enable */
1522:.\Generated_Source\PSoC5/cyPm.c ****     CY_PM_TW_CFG2_REG &= ((uint8)(~CY_PM_CTW_IE));
1523:.\Generated_Source\PSoC5/cyPm.c **** 
1524:.\Generated_Source\PSoC5/cyPm.c ****     /* Enable 1kHz ILO (required for CTW operation) */
1525:.\Generated_Source\PSoC5/cyPm.c ****     CyILO_Start1K();
1526:.\Generated_Source\PSoC5/cyPm.c **** 
1527:.\Generated_Source\PSoC5/cyPm.c ****     /* Interval could be set only while CTW is disabled */
1528:.\Generated_Source\PSoC5/cyPm.c ****     if(0u != (CY_PM_TW_CFG2_REG & CY_PM_CTW_EN))
1529:.\Generated_Source\PSoC5/cyPm.c ****     {
1530:.\Generated_Source\PSoC5/cyPm.c ****         /* Set CTW interval if needed */
1531:.\Generated_Source\PSoC5/cyPm.c ****         if(CY_PM_TW_CFG1_REG != ctwInterval)
1532:.\Generated_Source\PSoC5/cyPm.c ****         {
1533:.\Generated_Source\PSoC5/cyPm.c ****             /* Disable the CTW, set new CTW interval and enable it again */
1534:.\Generated_Source\PSoC5/cyPm.c ****             CY_PM_TW_CFG2_REG &= ((uint8)(~CY_PM_CTW_EN));
1535:.\Generated_Source\PSoC5/cyPm.c ****             CY_PM_TW_CFG1_REG = ctwInterval;
1536:.\Generated_Source\PSoC5/cyPm.c ****             CY_PM_TW_CFG2_REG |= CY_PM_CTW_EN;
1537:.\Generated_Source\PSoC5/cyPm.c ****         }   /* Required interval is already set */
1538:.\Generated_Source\PSoC5/cyPm.c ****     }
1539:.\Generated_Source\PSoC5/cyPm.c ****     else
1540:.\Generated_Source\PSoC5/cyPm.c ****     {
1541:.\Generated_Source\PSoC5/cyPm.c ****         /* Set CTW interval if needed */
1542:.\Generated_Source\PSoC5/cyPm.c ****         if(CY_PM_TW_CFG1_REG != ctwInterval)
1543:.\Generated_Source\PSoC5/cyPm.c ****         {
1544:.\Generated_Source\PSoC5/cyPm.c ****             /* Set new CTW interval. Could be changed if CTW is disabled */
1545:.\Generated_Source\PSoC5/cyPm.c ****             CY_PM_TW_CFG1_REG = ctwInterval;
1546:.\Generated_Source\PSoC5/cyPm.c ****         }   /* Required interval is already set */
1547:.\Generated_Source\PSoC5/cyPm.c **** 
1548:.\Generated_Source\PSoC5/cyPm.c ****         /* Enable CTW */
1549:.\Generated_Source\PSoC5/cyPm.c ****         CY_PM_TW_CFG2_REG |= CY_PM_CTW_EN;
1550:.\Generated_Source\PSoC5/cyPm.c ****     }
1551:.\Generated_Source\PSoC5/cyPm.c **** }
1552:.\Generated_Source\PSoC5/cyPm.c **** 
1553:.\Generated_Source\PSoC5/cyPm.c **** 
1554:.\Generated_Source\PSoC5/cyPm.c **** /*******************************************************************************
1555:.\Generated_Source\PSoC5/cyPm.c **** * Function Name: CyPmOppsSet
1556:.\Generated_Source\PSoC5/cyPm.c **** ********************************************************************************
1557:.\Generated_Source\PSoC5/cyPm.c **** *
1558:.\Generated_Source\PSoC5/cyPm.c **** * Summary:
1559:.\Generated_Source\PSoC5/cyPm.c **** *  Performs 1PPS configuration:
1560:.\Generated_Source\PSoC5/cyPm.c **** *  - Starts 32 KHz XTAL
1561:.\Generated_Source\PSoC5/cyPm.c **** *  - Disables 1PPS interrupts
1562:.\Generated_Source\PSoC5/cyPm.c **** *  - Enables 1PPS
1563:.\Generated_Source\PSoC5/cyPm.c **** *
1564:.\Generated_Source\PSoC5/cyPm.c **** * Parameters:
1565:.\Generated_Source\PSoC5/cyPm.c **** *  None
1566:.\Generated_Source\PSoC5/cyPm.c **** *
1567:.\Generated_Source\PSoC5/cyPm.c **** * Return:
1568:.\Generated_Source\PSoC5/cyPm.c **** *  None
1569:.\Generated_Source\PSoC5/cyPm.c **** *
1570:.\Generated_Source\PSoC5/cyPm.c **** *******************************************************************************/
1571:.\Generated_Source\PSoC5/cyPm.c **** void CyPmOppsSet(void) 
ARM GAS  C:\Users\PIET~1.COU\AppData\Local\Temp\ccUpISSh.s 			page 29


1572:.\Generated_Source\PSoC5/cyPm.c **** {
1573:.\Generated_Source\PSoC5/cyPm.c ****     /* Enable 32kHz XTAL if needed */
1574:.\Generated_Source\PSoC5/cyPm.c ****     if(0u == (CY_PM_SLOWCLK_X32_CR_REG & CY_PM_X32_CR_X32EN))
1575:.\Generated_Source\PSoC5/cyPm.c ****     {
1576:.\Generated_Source\PSoC5/cyPm.c ****         /* Enable 32kHz XTAL */
1577:.\Generated_Source\PSoC5/cyPm.c ****         CyXTAL_32KHZ_Start();
1578:.\Generated_Source\PSoC5/cyPm.c ****     }
1579:.\Generated_Source\PSoC5/cyPm.c **** 
1580:.\Generated_Source\PSoC5/cyPm.c ****     /* Disable 1PPS interrupt enable */
1581:.\Generated_Source\PSoC5/cyPm.c ****     CY_PM_TW_CFG2_REG &= ((uint8)(~CY_PM_1PPS_IE));
1582:.\Generated_Source\PSoC5/cyPm.c **** 
1583:.\Generated_Source\PSoC5/cyPm.c ****     /* Enable 1PPS operation */
1584:.\Generated_Source\PSoC5/cyPm.c ****     CY_PM_TW_CFG2_REG |= CY_PM_1PPS_EN;
1585:.\Generated_Source\PSoC5/cyPm.c **** }
1586:.\Generated_Source\PSoC5/cyPm.c **** 
1587:.\Generated_Source\PSoC5/cyPm.c **** 
1588:.\Generated_Source\PSoC5/cyPm.c **** /*******************************************************************************
1589:.\Generated_Source\PSoC5/cyPm.c **** * Function Name: CyPmFtwSetInterval
1590:.\Generated_Source\PSoC5/cyPm.c **** ********************************************************************************
1591:.\Generated_Source\PSoC5/cyPm.c **** *
1592:.\Generated_Source\PSoC5/cyPm.c **** * Summary:
1593:.\Generated_Source\PSoC5/cyPm.c **** *  Performs the FTW configuration:
1594:.\Generated_Source\PSoC5/cyPm.c **** *  - Disables the FTW interrupt
1595:.\Generated_Source\PSoC5/cyPm.c **** *  - Enables 100 kHz ILO
1596:.\Generated_Source\PSoC5/cyPm.c **** *  - Sets a new FTW interval.
1597:.\Generated_Source\PSoC5/cyPm.c **** *
1598:.\Generated_Source\PSoC5/cyPm.c **** * Parameters:
1599:.\Generated_Source\PSoC5/cyPm.c **** *  ftwInterval - FTW counter interval.
1600:.\Generated_Source\PSoC5/cyPm.c **** *
1601:.\Generated_Source\PSoC5/cyPm.c **** * Return:
1602:.\Generated_Source\PSoC5/cyPm.c **** *  None
1603:.\Generated_Source\PSoC5/cyPm.c **** *
1604:.\Generated_Source\PSoC5/cyPm.c **** * Side Effects:
1605:.\Generated_Source\PSoC5/cyPm.c **** *  Enables the ILO 100 KHz clock and leaves it enabled.
1606:.\Generated_Source\PSoC5/cyPm.c **** *
1607:.\Generated_Source\PSoC5/cyPm.c **** *******************************************************************************/
1608:.\Generated_Source\PSoC5/cyPm.c **** void CyPmFtwSetInterval(uint8 ftwInterval) 
1609:.\Generated_Source\PSoC5/cyPm.c **** {
1610:.\Generated_Source\PSoC5/cyPm.c ****     /* Disable FTW interrupt enable */
1611:.\Generated_Source\PSoC5/cyPm.c ****     CY_PM_TW_CFG2_REG &= ((uint8)(~CY_PM_FTW_IE));
1612:.\Generated_Source\PSoC5/cyPm.c **** 
1613:.\Generated_Source\PSoC5/cyPm.c ****     /* Enable 100kHz ILO */
1614:.\Generated_Source\PSoC5/cyPm.c ****     CyILO_Start100K();
1615:.\Generated_Source\PSoC5/cyPm.c **** 
1616:.\Generated_Source\PSoC5/cyPm.c ****     /* Interval could be set only while FTW is disabled */
1617:.\Generated_Source\PSoC5/cyPm.c ****     if(0u != (CY_PM_TW_CFG2_REG & CY_PM_FTW_EN))
1618:.\Generated_Source\PSoC5/cyPm.c ****     {
1619:.\Generated_Source\PSoC5/cyPm.c ****         /* Disable FTW, set new FTW interval if needed and enable it again */
1620:.\Generated_Source\PSoC5/cyPm.c ****         if(CY_PM_TW_CFG0_REG != ftwInterval)
1621:.\Generated_Source\PSoC5/cyPm.c ****         {
1622:.\Generated_Source\PSoC5/cyPm.c ****             /* Disable CTW, set new CTW interval and enable it again */
1623:.\Generated_Source\PSoC5/cyPm.c ****             CY_PM_TW_CFG2_REG &= ((uint8)(~CY_PM_FTW_EN));
1624:.\Generated_Source\PSoC5/cyPm.c ****             CY_PM_TW_CFG0_REG = ftwInterval;
1625:.\Generated_Source\PSoC5/cyPm.c ****             CY_PM_TW_CFG2_REG |= CY_PM_FTW_EN;
1626:.\Generated_Source\PSoC5/cyPm.c ****         }   /* Required interval is already set */
1627:.\Generated_Source\PSoC5/cyPm.c ****     }
1628:.\Generated_Source\PSoC5/cyPm.c ****     else
ARM GAS  C:\Users\PIET~1.COU\AppData\Local\Temp\ccUpISSh.s 			page 30


1629:.\Generated_Source\PSoC5/cyPm.c ****     {
1630:.\Generated_Source\PSoC5/cyPm.c ****         /* Set new FTW counter interval if needed. FTW is disabled. */
1631:.\Generated_Source\PSoC5/cyPm.c ****         if(CY_PM_TW_CFG0_REG != ftwInterval)
1632:.\Generated_Source\PSoC5/cyPm.c ****         {
1633:.\Generated_Source\PSoC5/cyPm.c ****             /* Set new CTW interval. Could be changed if CTW is disabled */
1634:.\Generated_Source\PSoC5/cyPm.c ****             CY_PM_TW_CFG0_REG = ftwInterval;
1635:.\Generated_Source\PSoC5/cyPm.c ****         }   /* Required interval is already set */
1636:.\Generated_Source\PSoC5/cyPm.c **** 
1637:.\Generated_Source\PSoC5/cyPm.c ****         /* Enable FTW */
1638:.\Generated_Source\PSoC5/cyPm.c ****         CY_PM_TW_CFG2_REG |= CY_PM_FTW_EN;
1639:.\Generated_Source\PSoC5/cyPm.c ****     }
1640:.\Generated_Source\PSoC5/cyPm.c **** }
1641:.\Generated_Source\PSoC5/cyPm.c **** 
1642:.\Generated_Source\PSoC5/cyPm.c **** 
1643:.\Generated_Source\PSoC5/cyPm.c **** /*******************************************************************************
1644:.\Generated_Source\PSoC5/cyPm.c **** * Function Name: CyPmHibSlpSaveSet
1645:.\Generated_Source\PSoC5/cyPm.c **** ********************************************************************************
1646:.\Generated_Source\PSoC5/cyPm.c **** *
1647:.\Generated_Source\PSoC5/cyPm.c **** * Summary:
1648:.\Generated_Source\PSoC5/cyPm.c **** *  This API is used for preparing the device for the Sleep and Hibernate low
1649:.\Generated_Source\PSoC5/cyPm.c **** *  power modes entry:
1650:.\Generated_Source\PSoC5/cyPm.c **** *  - Saves the COMP, VIDAC, DSM, and SAR routing connections (PSoC 5)
1651:.\Generated_Source\PSoC5/cyPm.c **** *  - Saves the SC/CT routing connections (PSoC 3/5/5LP)
1652:.\Generated_Source\PSoC5/cyPm.c **** *  - Disables the Serial Wire Viewer (SWV) (PSoC 3)
1653:.\Generated_Source\PSoC5/cyPm.c **** *  - Saves the boost reference selection and sets it to internal
1654:.\Generated_Source\PSoC5/cyPm.c **** *
1655:.\Generated_Source\PSoC5/cyPm.c **** * Parameters:
1656:.\Generated_Source\PSoC5/cyPm.c **** *  None
1657:.\Generated_Source\PSoC5/cyPm.c **** *
1658:.\Generated_Source\PSoC5/cyPm.c **** * Return:
1659:.\Generated_Source\PSoC5/cyPm.c **** *  None
1660:.\Generated_Source\PSoC5/cyPm.c **** *
1661:.\Generated_Source\PSoC5/cyPm.c **** * Reentrant:
1662:.\Generated_Source\PSoC5/cyPm.c **** *  No
1663:.\Generated_Source\PSoC5/cyPm.c **** *
1664:.\Generated_Source\PSoC5/cyPm.c **** *******************************************************************************/
1665:.\Generated_Source\PSoC5/cyPm.c **** static void CyPmHibSlpSaveSet(void) 
1666:.\Generated_Source\PSoC5/cyPm.c **** {
  26              		.loc 1 1666 0
  27              		.cfi_startproc
  28              		@ args = 0, pretend = 0, frame = 0
  29              		@ frame_needed = 0, uses_anonymous_args = 0
  30 0000 2DE9F04F 		push	{r4, r5, r6, r7, r8, r9, r10, fp, lr}
  31              		.cfi_def_cfa_offset 36
  32              		.cfi_offset 4, -36
  33              		.cfi_offset 5, -32
  34              		.cfi_offset 6, -28
  35              		.cfi_offset 7, -24
  36              		.cfi_offset 8, -20
  37              		.cfi_offset 9, -16
  38              		.cfi_offset 10, -12
  39              		.cfi_offset 11, -8
  40              		.cfi_offset 14, -4
1667:.\Generated_Source\PSoC5/cyPm.c ****     /* Save SC/CT routing registers */
1668:.\Generated_Source\PSoC5/cyPm.c ****     cyPmBackup.scctData[0u]   = CY_GET_REG8(CYREG_SC0_SW0 );
  41              		.loc 1 1668 0
  42 0004 DFF8A0B1 		ldr	fp, .L5+92
ARM GAS  C:\Users\PIET~1.COU\AppData\Local\Temp\ccUpISSh.s 			page 31


  43 0008 504B     		ldr	r3, .L5
  44 000a 9BF80020 		ldrb	r2, [fp]	@ zero_extendqisi2
1669:.\Generated_Source\PSoC5/cyPm.c ****     cyPmBackup.scctData[1u]   = CY_GET_REG8(CYREG_SC0_SW2 );
  45              		.loc 1 1669 0
  46 000e DFF89CA1 		ldr	r10, .L5+96
1668:.\Generated_Source\PSoC5/cyPm.c ****     cyPmBackup.scctData[1u]   = CY_GET_REG8(CYREG_SC0_SW2 );
  47              		.loc 1 1668 0
  48 0012 5A72     		strb	r2, [r3, #9]
  49              		.loc 1 1669 0
  50 0014 9AF80020 		ldrb	r2, [r10]	@ zero_extendqisi2
1670:.\Generated_Source\PSoC5/cyPm.c ****     cyPmBackup.scctData[2u]   = CY_GET_REG8(CYREG_SC0_SW3 );
1671:.\Generated_Source\PSoC5/cyPm.c ****     cyPmBackup.scctData[3u]   = CY_GET_REG8(CYREG_SC0_SW4 );
1672:.\Generated_Source\PSoC5/cyPm.c ****     cyPmBackup.scctData[4u]   = CY_GET_REG8(CYREG_SC0_SW6 );
1673:.\Generated_Source\PSoC5/cyPm.c ****     cyPmBackup.scctData[5u]   = CY_GET_REG8(CYREG_SC0_SW8 );
1674:.\Generated_Source\PSoC5/cyPm.c ****     cyPmBackup.scctData[6u]   = CY_GET_REG8(CYREG_SC0_SW10);
1675:.\Generated_Source\PSoC5/cyPm.c **** 
1676:.\Generated_Source\PSoC5/cyPm.c ****     cyPmBackup.scctData[7u]   = CY_GET_REG8(CYREG_SC1_SW0 );
1677:.\Generated_Source\PSoC5/cyPm.c ****     cyPmBackup.scctData[8u]   = CY_GET_REG8(CYREG_SC1_SW2 );
1678:.\Generated_Source\PSoC5/cyPm.c ****     cyPmBackup.scctData[9u]   = CY_GET_REG8(CYREG_SC1_SW3 );
1679:.\Generated_Source\PSoC5/cyPm.c ****     cyPmBackup.scctData[10u]  = CY_GET_REG8(CYREG_SC1_SW4 );
1680:.\Generated_Source\PSoC5/cyPm.c ****     cyPmBackup.scctData[11u]  = CY_GET_REG8(CYREG_SC1_SW6 );
1681:.\Generated_Source\PSoC5/cyPm.c ****     cyPmBackup.scctData[12u]  = CY_GET_REG8(CYREG_SC1_SW8 );
1682:.\Generated_Source\PSoC5/cyPm.c ****     cyPmBackup.scctData[13u]  = CY_GET_REG8(CYREG_SC1_SW10);
1683:.\Generated_Source\PSoC5/cyPm.c **** 
1684:.\Generated_Source\PSoC5/cyPm.c ****     cyPmBackup.scctData[14u]  = CY_GET_REG8(CYREG_SC2_SW0 );
1685:.\Generated_Source\PSoC5/cyPm.c ****     cyPmBackup.scctData[15u]  = CY_GET_REG8(CYREG_SC2_SW2 );
1686:.\Generated_Source\PSoC5/cyPm.c ****     cyPmBackup.scctData[16u]  = CY_GET_REG8(CYREG_SC2_SW3 );
1687:.\Generated_Source\PSoC5/cyPm.c ****     cyPmBackup.scctData[17u]  = CY_GET_REG8(CYREG_SC2_SW4 );
1688:.\Generated_Source\PSoC5/cyPm.c ****     cyPmBackup.scctData[18u]  = CY_GET_REG8(CYREG_SC2_SW6 );
  51              		.loc 1 1688 0
  52 0018 DFF89491 		ldr	r9, .L5+100
1669:.\Generated_Source\PSoC5/cyPm.c ****     cyPmBackup.scctData[2u]   = CY_GET_REG8(CYREG_SC0_SW3 );
  53              		.loc 1 1669 0
  54 001c 9A72     		strb	r2, [r3, #10]
1670:.\Generated_Source\PSoC5/cyPm.c ****     cyPmBackup.scctData[2u]   = CY_GET_REG8(CYREG_SC0_SW3 );
  55              		.loc 1 1670 0
  56 001e 4C4A     		ldr	r2, .L5+4
1689:.\Generated_Source\PSoC5/cyPm.c ****     cyPmBackup.scctData[19u]  = CY_GET_REG8(CYREG_SC2_SW8 );
  57              		.loc 1 1689 0
  58 0020 DFF89081 		ldr	r8, .L5+104
1670:.\Generated_Source\PSoC5/cyPm.c ****     cyPmBackup.scctData[2u]   = CY_GET_REG8(CYREG_SC0_SW3 );
  59              		.loc 1 1670 0
  60 0024 1278     		ldrb	r2, [r2]	@ zero_extendqisi2
1690:.\Generated_Source\PSoC5/cyPm.c ****     cyPmBackup.scctData[20u]  = CY_GET_REG8(CYREG_SC2_SW10);
  61              		.loc 1 1690 0
  62 0026 DFF890C1 		ldr	ip, .L5+108
1670:.\Generated_Source\PSoC5/cyPm.c ****     cyPmBackup.scctData[3u]   = CY_GET_REG8(CYREG_SC0_SW4 );
  63              		.loc 1 1670 0
  64 002a DA72     		strb	r2, [r3, #11]
1671:.\Generated_Source\PSoC5/cyPm.c ****     cyPmBackup.scctData[4u]   = CY_GET_REG8(CYREG_SC0_SW6 );
  65              		.loc 1 1671 0
  66 002c 494A     		ldr	r2, .L5+8
1691:.\Generated_Source\PSoC5/cyPm.c **** 
1692:.\Generated_Source\PSoC5/cyPm.c ****     cyPmBackup.scctData[21u]  = CY_GET_REG8(CYREG_SC3_SW0 );
  67              		.loc 1 1692 0
  68 002e DFF88CE1 		ldr	lr, .L5+112
1671:.\Generated_Source\PSoC5/cyPm.c ****     cyPmBackup.scctData[4u]   = CY_GET_REG8(CYREG_SC0_SW6 );
ARM GAS  C:\Users\PIET~1.COU\AppData\Local\Temp\ccUpISSh.s 			page 32


  69              		.loc 1 1671 0
  70 0032 1278     		ldrb	r2, [r2]	@ zero_extendqisi2
1693:.\Generated_Source\PSoC5/cyPm.c ****     cyPmBackup.scctData[22u]  = CY_GET_REG8(CYREG_SC3_SW2 );
  71              		.loc 1 1693 0
  72 0034 484F     		ldr	r7, .L5+12
1671:.\Generated_Source\PSoC5/cyPm.c ****     cyPmBackup.scctData[4u]   = CY_GET_REG8(CYREG_SC0_SW6 );
  73              		.loc 1 1671 0
  74 0036 1A73     		strb	r2, [r3, #12]
1672:.\Generated_Source\PSoC5/cyPm.c ****     cyPmBackup.scctData[5u]   = CY_GET_REG8(CYREG_SC0_SW8 );
  75              		.loc 1 1672 0
  76 0038 484A     		ldr	r2, .L5+16
1694:.\Generated_Source\PSoC5/cyPm.c ****     cyPmBackup.scctData[23u]  = CY_GET_REG8(CYREG_SC3_SW3 );
  77              		.loc 1 1694 0
  78 003a 494E     		ldr	r6, .L5+20
1672:.\Generated_Source\PSoC5/cyPm.c ****     cyPmBackup.scctData[5u]   = CY_GET_REG8(CYREG_SC0_SW8 );
  79              		.loc 1 1672 0
  80 003c 1278     		ldrb	r2, [r2]	@ zero_extendqisi2
1695:.\Generated_Source\PSoC5/cyPm.c ****     cyPmBackup.scctData[24u]  = CY_GET_REG8(CYREG_SC3_SW4 );
  81              		.loc 1 1695 0
  82 003e 494D     		ldr	r5, .L5+24
1672:.\Generated_Source\PSoC5/cyPm.c ****     cyPmBackup.scctData[5u]   = CY_GET_REG8(CYREG_SC0_SW8 );
  83              		.loc 1 1672 0
  84 0040 5A73     		strb	r2, [r3, #13]
1673:.\Generated_Source\PSoC5/cyPm.c ****     cyPmBackup.scctData[6u]   = CY_GET_REG8(CYREG_SC0_SW10);
  85              		.loc 1 1673 0
  86 0042 494A     		ldr	r2, .L5+28
1696:.\Generated_Source\PSoC5/cyPm.c ****     cyPmBackup.scctData[25u]  = CY_GET_REG8(CYREG_SC3_SW6 );
  87              		.loc 1 1696 0
  88 0044 494C     		ldr	r4, .L5+32
1673:.\Generated_Source\PSoC5/cyPm.c ****     cyPmBackup.scctData[6u]   = CY_GET_REG8(CYREG_SC0_SW10);
  89              		.loc 1 1673 0
  90 0046 1278     		ldrb	r2, [r2]	@ zero_extendqisi2
1697:.\Generated_Source\PSoC5/cyPm.c ****     cyPmBackup.scctData[26u]  = CY_GET_REG8(CYREG_SC3_SW8 );
  91              		.loc 1 1697 0
  92 0048 4948     		ldr	r0, .L5+36
1673:.\Generated_Source\PSoC5/cyPm.c ****     cyPmBackup.scctData[6u]   = CY_GET_REG8(CYREG_SC0_SW10);
  93              		.loc 1 1673 0
  94 004a 9A73     		strb	r2, [r3, #14]
1674:.\Generated_Source\PSoC5/cyPm.c **** 
  95              		.loc 1 1674 0
  96 004c 494A     		ldr	r2, .L5+40
1698:.\Generated_Source\PSoC5/cyPm.c ****     cyPmBackup.scctData[27u]  = CY_GET_REG8(CYREG_SC3_SW10);
1699:.\Generated_Source\PSoC5/cyPm.c **** 
1700:.\Generated_Source\PSoC5/cyPm.c ****     CY_SET_REG8(CYREG_SC0_SW0 , 0u);
1701:.\Generated_Source\PSoC5/cyPm.c ****     CY_SET_REG8(CYREG_SC0_SW2 , 0u);
1702:.\Generated_Source\PSoC5/cyPm.c ****     CY_SET_REG8(CYREG_SC0_SW3 , 0u);
  97              		.loc 1 1702 0
  98 004e 4049     		ldr	r1, .L5+4
1674:.\Generated_Source\PSoC5/cyPm.c **** 
  99              		.loc 1 1674 0
 100 0050 1278     		ldrb	r2, [r2]	@ zero_extendqisi2
1703:.\Generated_Source\PSoC5/cyPm.c ****     CY_SET_REG8(CYREG_SC0_SW4 , 0u);
 101              		.loc 1 1703 0
 102 0052 0131     		adds	r1, r1, #1
1674:.\Generated_Source\PSoC5/cyPm.c **** 
 103              		.loc 1 1674 0
 104 0054 DA73     		strb	r2, [r3, #15]
ARM GAS  C:\Users\PIET~1.COU\AppData\Local\Temp\ccUpISSh.s 			page 33


1676:.\Generated_Source\PSoC5/cyPm.c ****     cyPmBackup.scctData[8u]   = CY_GET_REG8(CYREG_SC1_SW2 );
 105              		.loc 1 1676 0
 106 0056 484A     		ldr	r2, .L5+44
 107 0058 1278     		ldrb	r2, [r2]	@ zero_extendqisi2
 108 005a 1A74     		strb	r2, [r3, #16]
1677:.\Generated_Source\PSoC5/cyPm.c ****     cyPmBackup.scctData[9u]   = CY_GET_REG8(CYREG_SC1_SW3 );
 109              		.loc 1 1677 0
 110 005c 474A     		ldr	r2, .L5+48
 111 005e 1278     		ldrb	r2, [r2]	@ zero_extendqisi2
 112 0060 5A74     		strb	r2, [r3, #17]
1678:.\Generated_Source\PSoC5/cyPm.c ****     cyPmBackup.scctData[10u]  = CY_GET_REG8(CYREG_SC1_SW4 );
 113              		.loc 1 1678 0
 114 0062 474A     		ldr	r2, .L5+52
 115 0064 1278     		ldrb	r2, [r2]	@ zero_extendqisi2
 116 0066 9A74     		strb	r2, [r3, #18]
1679:.\Generated_Source\PSoC5/cyPm.c ****     cyPmBackup.scctData[11u]  = CY_GET_REG8(CYREG_SC1_SW6 );
 117              		.loc 1 1679 0
 118 0068 464A     		ldr	r2, .L5+56
 119 006a 1278     		ldrb	r2, [r2]	@ zero_extendqisi2
 120 006c DA74     		strb	r2, [r3, #19]
1680:.\Generated_Source\PSoC5/cyPm.c ****     cyPmBackup.scctData[12u]  = CY_GET_REG8(CYREG_SC1_SW8 );
 121              		.loc 1 1680 0
 122 006e 464A     		ldr	r2, .L5+60
 123 0070 1278     		ldrb	r2, [r2]	@ zero_extendqisi2
 124 0072 1A75     		strb	r2, [r3, #20]
1681:.\Generated_Source\PSoC5/cyPm.c ****     cyPmBackup.scctData[13u]  = CY_GET_REG8(CYREG_SC1_SW10);
 125              		.loc 1 1681 0
 126 0074 454A     		ldr	r2, .L5+64
 127 0076 1278     		ldrb	r2, [r2]	@ zero_extendqisi2
 128 0078 5A75     		strb	r2, [r3, #21]
1682:.\Generated_Source\PSoC5/cyPm.c **** 
 129              		.loc 1 1682 0
 130 007a 454A     		ldr	r2, .L5+68
 131 007c 1278     		ldrb	r2, [r2]	@ zero_extendqisi2
 132 007e 9A75     		strb	r2, [r3, #22]
1684:.\Generated_Source\PSoC5/cyPm.c ****     cyPmBackup.scctData[15u]  = CY_GET_REG8(CYREG_SC2_SW2 );
 133              		.loc 1 1684 0
 134 0080 444A     		ldr	r2, .L5+72
 135 0082 1278     		ldrb	r2, [r2]	@ zero_extendqisi2
 136 0084 DA75     		strb	r2, [r3, #23]
1685:.\Generated_Source\PSoC5/cyPm.c ****     cyPmBackup.scctData[16u]  = CY_GET_REG8(CYREG_SC2_SW3 );
 137              		.loc 1 1685 0
 138 0086 444A     		ldr	r2, .L5+76
 139 0088 1278     		ldrb	r2, [r2]	@ zero_extendqisi2
 140 008a 1A76     		strb	r2, [r3, #24]
1686:.\Generated_Source\PSoC5/cyPm.c ****     cyPmBackup.scctData[17u]  = CY_GET_REG8(CYREG_SC2_SW4 );
 141              		.loc 1 1686 0
 142 008c 434A     		ldr	r2, .L5+80
 143 008e 1278     		ldrb	r2, [r2]	@ zero_extendqisi2
 144 0090 5A76     		strb	r2, [r3, #25]
1687:.\Generated_Source\PSoC5/cyPm.c ****     cyPmBackup.scctData[18u]  = CY_GET_REG8(CYREG_SC2_SW6 );
 145              		.loc 1 1687 0
 146 0092 434A     		ldr	r2, .L5+84
 147 0094 1278     		ldrb	r2, [r2]	@ zero_extendqisi2
 148 0096 9A76     		strb	r2, [r3, #26]
1688:.\Generated_Source\PSoC5/cyPm.c ****     cyPmBackup.scctData[19u]  = CY_GET_REG8(CYREG_SC2_SW8 );
 149              		.loc 1 1688 0
ARM GAS  C:\Users\PIET~1.COU\AppData\Local\Temp\ccUpISSh.s 			page 34


 150 0098 99F80020 		ldrb	r2, [r9]	@ zero_extendqisi2
 151 009c DA76     		strb	r2, [r3, #27]
1689:.\Generated_Source\PSoC5/cyPm.c ****     cyPmBackup.scctData[20u]  = CY_GET_REG8(CYREG_SC2_SW10);
 152              		.loc 1 1689 0
 153 009e 98F80020 		ldrb	r2, [r8]	@ zero_extendqisi2
 154 00a2 1A77     		strb	r2, [r3, #28]
1690:.\Generated_Source\PSoC5/cyPm.c **** 
 155              		.loc 1 1690 0
 156 00a4 9CF80020 		ldrb	r2, [ip]	@ zero_extendqisi2
 157 00a8 5A77     		strb	r2, [r3, #29]
1692:.\Generated_Source\PSoC5/cyPm.c ****     cyPmBackup.scctData[22u]  = CY_GET_REG8(CYREG_SC3_SW2 );
 158              		.loc 1 1692 0
 159 00aa 9EF80020 		ldrb	r2, [lr]	@ zero_extendqisi2
 160 00ae 9A77     		strb	r2, [r3, #30]
1693:.\Generated_Source\PSoC5/cyPm.c ****     cyPmBackup.scctData[23u]  = CY_GET_REG8(CYREG_SC3_SW3 );
 161              		.loc 1 1693 0
 162 00b0 3A78     		ldrb	r2, [r7]	@ zero_extendqisi2
 163 00b2 DA77     		strb	r2, [r3, #31]
1694:.\Generated_Source\PSoC5/cyPm.c ****     cyPmBackup.scctData[24u]  = CY_GET_REG8(CYREG_SC3_SW4 );
 164              		.loc 1 1694 0
 165 00b4 3278     		ldrb	r2, [r6]	@ zero_extendqisi2
 166 00b6 83F82020 		strb	r2, [r3, #32]
1695:.\Generated_Source\PSoC5/cyPm.c ****     cyPmBackup.scctData[25u]  = CY_GET_REG8(CYREG_SC3_SW6 );
 167              		.loc 1 1695 0
 168 00ba 2A78     		ldrb	r2, [r5]	@ zero_extendqisi2
 169 00bc 83F82120 		strb	r2, [r3, #33]
1696:.\Generated_Source\PSoC5/cyPm.c ****     cyPmBackup.scctData[26u]  = CY_GET_REG8(CYREG_SC3_SW8 );
 170              		.loc 1 1696 0
 171 00c0 2278     		ldrb	r2, [r4]	@ zero_extendqisi2
 172 00c2 83F82220 		strb	r2, [r3, #34]
1697:.\Generated_Source\PSoC5/cyPm.c ****     cyPmBackup.scctData[27u]  = CY_GET_REG8(CYREG_SC3_SW10);
 173              		.loc 1 1697 0
 174 00c6 0278     		ldrb	r2, [r0]	@ zero_extendqisi2
 175 00c8 83F82320 		strb	r2, [r3, #35]
1698:.\Generated_Source\PSoC5/cyPm.c **** 
 176              		.loc 1 1698 0
 177 00cc 354A     		ldr	r2, .L5+88
 178 00ce 1278     		ldrb	r2, [r2]	@ zero_extendqisi2
 179 00d0 83F82420 		strb	r2, [r3, #36]
1700:.\Generated_Source\PSoC5/cyPm.c ****     CY_SET_REG8(CYREG_SC0_SW2 , 0u);
 180              		.loc 1 1700 0
 181 00d4 0022     		movs	r2, #0
 182 00d6 8BF80020 		strb	r2, [fp]
1701:.\Generated_Source\PSoC5/cyPm.c ****     CY_SET_REG8(CYREG_SC0_SW3 , 0u);
 183              		.loc 1 1701 0
 184 00da 8AF80020 		strb	r2, [r10]
1702:.\Generated_Source\PSoC5/cyPm.c ****     CY_SET_REG8(CYREG_SC0_SW4 , 0u);
 185              		.loc 1 1702 0
 186 00de 01F8012C 		strb	r2, [r1, #-1]
 187              		.loc 1 1703 0
 188 00e2 0A70     		strb	r2, [r1]
1704:.\Generated_Source\PSoC5/cyPm.c ****     CY_SET_REG8(CYREG_SC0_SW6 , 0u);
 189              		.loc 1 1704 0
 190 00e4 8A70     		strb	r2, [r1, #2]
1705:.\Generated_Source\PSoC5/cyPm.c ****     CY_SET_REG8(CYREG_SC0_SW8 , 0u);
 191              		.loc 1 1705 0
 192 00e6 0A71     		strb	r2, [r1, #4]
ARM GAS  C:\Users\PIET~1.COU\AppData\Local\Temp\ccUpISSh.s 			page 35


1706:.\Generated_Source\PSoC5/cyPm.c ****     CY_SET_REG8(CYREG_SC0_SW10, 0u);
 193              		.loc 1 1706 0
 194 00e8 8A71     		strb	r2, [r1, #6]
1707:.\Generated_Source\PSoC5/cyPm.c **** 
1708:.\Generated_Source\PSoC5/cyPm.c ****     CY_SET_REG8(CYREG_SC1_SW0 , 0u);
 195              		.loc 1 1708 0
 196 00ea 0A73     		strb	r2, [r1, #12]
1709:.\Generated_Source\PSoC5/cyPm.c ****     CY_SET_REG8(CYREG_SC1_SW2 , 0u);
 197              		.loc 1 1709 0
 198 00ec 8A73     		strb	r2, [r1, #14]
1710:.\Generated_Source\PSoC5/cyPm.c ****     CY_SET_REG8(CYREG_SC1_SW3 , 0u);
 199              		.loc 1 1710 0
 200 00ee CA73     		strb	r2, [r1, #15]
1711:.\Generated_Source\PSoC5/cyPm.c ****     CY_SET_REG8(CYREG_SC1_SW4 , 0u);
 201              		.loc 1 1711 0
 202 00f0 0A74     		strb	r2, [r1, #16]
1712:.\Generated_Source\PSoC5/cyPm.c ****     CY_SET_REG8(CYREG_SC1_SW6 , 0u);
 203              		.loc 1 1712 0
 204 00f2 8A74     		strb	r2, [r1, #18]
1713:.\Generated_Source\PSoC5/cyPm.c ****     CY_SET_REG8(CYREG_SC1_SW8 , 0u);
 205              		.loc 1 1713 0
 206 00f4 0A75     		strb	r2, [r1, #20]
1714:.\Generated_Source\PSoC5/cyPm.c ****     CY_SET_REG8(CYREG_SC1_SW10, 0u);
 207              		.loc 1 1714 0
 208 00f6 8A75     		strb	r2, [r1, #22]
1715:.\Generated_Source\PSoC5/cyPm.c **** 
1716:.\Generated_Source\PSoC5/cyPm.c ****     CY_SET_REG8(CYREG_SC2_SW0 , 0u);
 209              		.loc 1 1716 0
 210 00f8 0A77     		strb	r2, [r1, #28]
1717:.\Generated_Source\PSoC5/cyPm.c ****     CY_SET_REG8(CYREG_SC2_SW2 , 0u);
 211              		.loc 1 1717 0
 212 00fa 8A77     		strb	r2, [r1, #30]
1718:.\Generated_Source\PSoC5/cyPm.c ****     CY_SET_REG8(CYREG_SC2_SW3 , 0u);
 213              		.loc 1 1718 0
 214 00fc CA77     		strb	r2, [r1, #31]
1719:.\Generated_Source\PSoC5/cyPm.c ****     CY_SET_REG8(CYREG_SC2_SW4 , 0u);
 215              		.loc 1 1719 0
 216 00fe 81F82020 		strb	r2, [r1, #32]
1720:.\Generated_Source\PSoC5/cyPm.c ****     CY_SET_REG8(CYREG_SC2_SW6 , 0u);
 217              		.loc 1 1720 0
 218 0102 89F80020 		strb	r2, [r9]
1721:.\Generated_Source\PSoC5/cyPm.c ****     CY_SET_REG8(CYREG_SC2_SW8 , 0u);
 219              		.loc 1 1721 0
 220 0106 88F80020 		strb	r2, [r8]
1722:.\Generated_Source\PSoC5/cyPm.c ****     CY_SET_REG8(CYREG_SC2_SW10, 0u);
 221              		.loc 1 1722 0
 222 010a 8CF80020 		strb	r2, [ip]
1723:.\Generated_Source\PSoC5/cyPm.c **** 
1724:.\Generated_Source\PSoC5/cyPm.c ****     CY_SET_REG8(CYREG_SC3_SW0 , 0u);
 223              		.loc 1 1724 0
 224 010e 8EF80020 		strb	r2, [lr]
1725:.\Generated_Source\PSoC5/cyPm.c ****     CY_SET_REG8(CYREG_SC3_SW2 , 0u);
 225              		.loc 1 1725 0
 226 0112 3A70     		strb	r2, [r7]
1726:.\Generated_Source\PSoC5/cyPm.c ****     CY_SET_REG8(CYREG_SC3_SW3 , 0u);
 227              		.loc 1 1726 0
 228 0114 3270     		strb	r2, [r6]
ARM GAS  C:\Users\PIET~1.COU\AppData\Local\Temp\ccUpISSh.s 			page 36


1727:.\Generated_Source\PSoC5/cyPm.c ****     CY_SET_REG8(CYREG_SC3_SW4 , 0u);
 229              		.loc 1 1727 0
 230 0116 2A70     		strb	r2, [r5]
1728:.\Generated_Source\PSoC5/cyPm.c ****     CY_SET_REG8(CYREG_SC3_SW6 , 0u);
 231              		.loc 1 1728 0
 232 0118 2270     		strb	r2, [r4]
1729:.\Generated_Source\PSoC5/cyPm.c ****     CY_SET_REG8(CYREG_SC3_SW8 , 0u);
 233              		.loc 1 1729 0
 234 011a 0270     		strb	r2, [r0]
1730:.\Generated_Source\PSoC5/cyPm.c ****     CY_SET_REG8(CYREG_SC3_SW10, 0u);
 235              		.loc 1 1730 0
 236 011c 81F83620 		strb	r2, [r1, #54]
1717:.\Generated_Source\PSoC5/cyPm.c ****     CY_SET_REG8(CYREG_SC2_SW3 , 0u);
 237              		.loc 1 1717 0
 238 0120 1E31     		adds	r1, r1, #30
1731:.\Generated_Source\PSoC5/cyPm.c **** 
1732:.\Generated_Source\PSoC5/cyPm.c **** 
1733:.\Generated_Source\PSoC5/cyPm.c ****     #if(CY_PSOC3)
1734:.\Generated_Source\PSoC5/cyPm.c **** 
1735:.\Generated_Source\PSoC5/cyPm.c ****         /* Serial Wire Viewer (SWV) workaround */
1736:.\Generated_Source\PSoC5/cyPm.c **** 
1737:.\Generated_Source\PSoC5/cyPm.c ****         /* Disable SWV before entering low power mode */
1738:.\Generated_Source\PSoC5/cyPm.c ****         if(0u != (CY_PM_MLOGIC_DBG_REG & CY_PM_MLOGIC_DBG_SWV_CLK_EN))
1739:.\Generated_Source\PSoC5/cyPm.c ****         {
1740:.\Generated_Source\PSoC5/cyPm.c ****             /* Save SWV clock enabled state */
1741:.\Generated_Source\PSoC5/cyPm.c ****             cyPmBackup.swvClkEnabled = CY_PM_ENABLED;
1742:.\Generated_Source\PSoC5/cyPm.c **** 
1743:.\Generated_Source\PSoC5/cyPm.c ****             /* Save current ports drive mode settings */
1744:.\Generated_Source\PSoC5/cyPm.c ****             cyPmBackup.prt1Dm = CY_PM_PRT1_PC3_REG & ((uint8)(~CY_PM_PRT1_PC3_DM_MASK));
1745:.\Generated_Source\PSoC5/cyPm.c **** 
1746:.\Generated_Source\PSoC5/cyPm.c ****             /* Set drive mode to strong output */
1747:.\Generated_Source\PSoC5/cyPm.c ****             CY_PM_PRT1_PC3_REG = (CY_PM_PRT1_PC3_REG & CY_PM_PRT1_PC3_DM_MASK) |
1748:.\Generated_Source\PSoC5/cyPm.c ****                                 CY_PM_PRT1_PC3_DM_STRONG;
1749:.\Generated_Source\PSoC5/cyPm.c **** 
1750:.\Generated_Source\PSoC5/cyPm.c ****             /* Disable SWV clocks */
1751:.\Generated_Source\PSoC5/cyPm.c ****             CY_PM_MLOGIC_DBG_REG &= ((uint8)(~CY_PM_MLOGIC_DBG_SWV_CLK_EN));
1752:.\Generated_Source\PSoC5/cyPm.c ****         }
1753:.\Generated_Source\PSoC5/cyPm.c ****         else
1754:.\Generated_Source\PSoC5/cyPm.c ****         {
1755:.\Generated_Source\PSoC5/cyPm.c ****             /* Save SWV clock disabled state */
1756:.\Generated_Source\PSoC5/cyPm.c ****             cyPmBackup.swvClkEnabled = CY_PM_DISABLED;
1757:.\Generated_Source\PSoC5/cyPm.c ****         }
1758:.\Generated_Source\PSoC5/cyPm.c **** 
1759:.\Generated_Source\PSoC5/cyPm.c ****     #endif  /* (CY_PSOC3) */
1760:.\Generated_Source\PSoC5/cyPm.c **** 
1761:.\Generated_Source\PSoC5/cyPm.c **** 
1762:.\Generated_Source\PSoC5/cyPm.c ****     /***************************************************************************
1763:.\Generated_Source\PSoC5/cyPm.c ****     * Save boost reference and set it to boost's internal by clearing the bit.
1764:.\Generated_Source\PSoC5/cyPm.c ****     * External (chip bandgap) reference is not available in Sleep and Hibernate.
1765:.\Generated_Source\PSoC5/cyPm.c ****     ***************************************************************************/
1766:.\Generated_Source\PSoC5/cyPm.c ****     if(0u != (CY_PM_BOOST_CR2_REG & CY_PM_BOOST_CR2_EREFSEL_EXT))
 239              		.loc 1 1766 0
 240 0122 A1F5B851 		sub	r1, r1, #5888
 241 0126 0A78     		ldrb	r2, [r1]	@ zero_extendqisi2
 242 0128 02F00802 		and	r2, r2, #8
 243 012c 02F0FF00 		and	r0, r2, #255
 244 0130 42B1     		cbz	r2, .L2
ARM GAS  C:\Users\PIET~1.COU\AppData\Local\Temp\ccUpISSh.s 			page 37


1767:.\Generated_Source\PSoC5/cyPm.c ****     {
1768:.\Generated_Source\PSoC5/cyPm.c ****         cyPmBackup.boostRefExt = CY_PM_ENABLED;
 245              		.loc 1 1768 0
 246 0132 0122     		movs	r2, #1
 247 0134 83F82E20 		strb	r2, [r3, #46]
1769:.\Generated_Source\PSoC5/cyPm.c ****         CY_PM_BOOST_CR2_REG &= ((uint8)(~CY_PM_BOOST_CR2_EREFSEL_EXT));
 248              		.loc 1 1769 0
 249 0138 0B78     		ldrb	r3, [r1]	@ zero_extendqisi2
 250 013a 03F0F703 		and	r3, r3, #247
 251 013e 0B70     		strb	r3, [r1]
 252 0140 BDE8F08F 		pop	{r4, r5, r6, r7, r8, r9, r10, fp, pc}
 253              	.L2:
1770:.\Generated_Source\PSoC5/cyPm.c ****     }
1771:.\Generated_Source\PSoC5/cyPm.c ****     else
1772:.\Generated_Source\PSoC5/cyPm.c ****     {
1773:.\Generated_Source\PSoC5/cyPm.c ****         cyPmBackup.boostRefExt = CY_PM_DISABLED;
 254              		.loc 1 1773 0
 255 0144 83F82E00 		strb	r0, [r3, #46]
 256 0148 BDE8F08F 		pop	{r4, r5, r6, r7, r8, r9, r10, fp, pc}
 257              	.L6:
 258              		.align	2
 259              	.L5:
 260 014c 00000000 		.word	.LANCHOR0
 261 0150 035A0040 		.word	1073764867
 262 0154 045A0040 		.word	1073764868
 263 0158 325A0040 		.word	1073764914
 264 015c 065A0040 		.word	1073764870
 265 0160 335A0040 		.word	1073764915
 266 0164 345A0040 		.word	1073764916
 267 0168 085A0040 		.word	1073764872
 268 016c 365A0040 		.word	1073764918
 269 0170 385A0040 		.word	1073764920
 270 0174 0A5A0040 		.word	1073764874
 271 0178 105A0040 		.word	1073764880
 272 017c 125A0040 		.word	1073764882
 273 0180 135A0040 		.word	1073764883
 274 0184 145A0040 		.word	1073764884
 275 0188 165A0040 		.word	1073764886
 276 018c 185A0040 		.word	1073764888
 277 0190 1A5A0040 		.word	1073764890
 278 0194 205A0040 		.word	1073764896
 279 0198 225A0040 		.word	1073764898
 280 019c 235A0040 		.word	1073764899
 281 01a0 245A0040 		.word	1073764900
 282 01a4 3A5A0040 		.word	1073764922
 283 01a8 005A0040 		.word	1073764864
 284 01ac 025A0040 		.word	1073764866
 285 01b0 265A0040 		.word	1073764902
 286 01b4 285A0040 		.word	1073764904
 287 01b8 2A5A0040 		.word	1073764906
 288 01bc 305A0040 		.word	1073764912
 289              		.cfi_endproc
 290              	.LFE75:
 291              		.size	CyPmHibSlpSaveSet, .-CyPmHibSlpSaveSet
 292              		.section	.text.CyPmHibSlpRestore,"ax",%progbits
 293              		.align	1
 294              		.thumb
ARM GAS  C:\Users\PIET~1.COU\AppData\Local\Temp\ccUpISSh.s 			page 38


 295              		.thumb_func
 296              		.type	CyPmHibSlpRestore, %function
 297              	CyPmHibSlpRestore:
 298              	.LFB76:
1774:.\Generated_Source\PSoC5/cyPm.c ****     }
1775:.\Generated_Source\PSoC5/cyPm.c **** }
1776:.\Generated_Source\PSoC5/cyPm.c **** 
1777:.\Generated_Source\PSoC5/cyPm.c **** 
1778:.\Generated_Source\PSoC5/cyPm.c **** /*******************************************************************************
1779:.\Generated_Source\PSoC5/cyPm.c **** * Function Name: CyPmHibSlpRestore
1780:.\Generated_Source\PSoC5/cyPm.c **** ********************************************************************************
1781:.\Generated_Source\PSoC5/cyPm.c **** *
1782:.\Generated_Source\PSoC5/cyPm.c **** * Summary:
1783:.\Generated_Source\PSoC5/cyPm.c **** *  This API is used for restoring the device configurations after wakeup from
1784:.\Generated_Source\PSoC5/cyPm.c **** *  the Sleep and Hibernate low power modes:
1785:.\Generated_Source\PSoC5/cyPm.c **** *  - Restores the SC/CT routing connections
1786:.\Generated_Source\PSoC5/cyPm.c **** *  - Restores the enable state of the Serial Wire Viewer (SWV) (PSoC 3)
1787:.\Generated_Source\PSoC5/cyPm.c **** *  - Restores the  boost reference selection
1788:.\Generated_Source\PSoC5/cyPm.c **** *
1789:.\Generated_Source\PSoC5/cyPm.c **** * Parameters:
1790:.\Generated_Source\PSoC5/cyPm.c **** *  None
1791:.\Generated_Source\PSoC5/cyPm.c **** *
1792:.\Generated_Source\PSoC5/cyPm.c **** * Return:
1793:.\Generated_Source\PSoC5/cyPm.c **** *  None
1794:.\Generated_Source\PSoC5/cyPm.c **** *
1795:.\Generated_Source\PSoC5/cyPm.c **** *******************************************************************************/
1796:.\Generated_Source\PSoC5/cyPm.c **** static void CyPmHibSlpRestore(void) 
1797:.\Generated_Source\PSoC5/cyPm.c **** {
 299              		.loc 1 1797 0
 300              		.cfi_startproc
 301              		@ args = 0, pretend = 0, frame = 0
 302              		@ frame_needed = 0, uses_anonymous_args = 0
 303              		@ link register save eliminated.
1798:.\Generated_Source\PSoC5/cyPm.c ****     /* Restore SC/CT routing registers */
1799:.\Generated_Source\PSoC5/cyPm.c ****     CY_SET_REG8(CYREG_SC0_SW0 , cyPmBackup.scctData[0u] );
 304              		.loc 1 1799 0
 305 0000 2D4B     		ldr	r3, .L9
 306 0002 2E4A     		ldr	r2, .L9+4
 307 0004 597A     		ldrb	r1, [r3, #9]	@ zero_extendqisi2
1800:.\Generated_Source\PSoC5/cyPm.c ****     CY_SET_REG8(CYREG_SC0_SW2 , cyPmBackup.scctData[1u] );
1801:.\Generated_Source\PSoC5/cyPm.c ****     CY_SET_REG8(CYREG_SC0_SW3 , cyPmBackup.scctData[2u] );
1802:.\Generated_Source\PSoC5/cyPm.c ****     CY_SET_REG8(CYREG_SC0_SW4 , cyPmBackup.scctData[3u] );
1803:.\Generated_Source\PSoC5/cyPm.c ****     CY_SET_REG8(CYREG_SC0_SW6 , cyPmBackup.scctData[4u] );
1804:.\Generated_Source\PSoC5/cyPm.c ****     CY_SET_REG8(CYREG_SC0_SW8 , cyPmBackup.scctData[5u] );
1805:.\Generated_Source\PSoC5/cyPm.c ****     CY_SET_REG8(CYREG_SC0_SW10, cyPmBackup.scctData[6u] );
1806:.\Generated_Source\PSoC5/cyPm.c **** 
1807:.\Generated_Source\PSoC5/cyPm.c ****     CY_SET_REG8(CYREG_SC1_SW0 , cyPmBackup.scctData[7u] );
1808:.\Generated_Source\PSoC5/cyPm.c ****     CY_SET_REG8(CYREG_SC1_SW2 , cyPmBackup.scctData[8u] );
1809:.\Generated_Source\PSoC5/cyPm.c ****     CY_SET_REG8(CYREG_SC1_SW3 , cyPmBackup.scctData[9u] );
1810:.\Generated_Source\PSoC5/cyPm.c ****     CY_SET_REG8(CYREG_SC1_SW4 , cyPmBackup.scctData[10u]);
1811:.\Generated_Source\PSoC5/cyPm.c ****     CY_SET_REG8(CYREG_SC1_SW6 , cyPmBackup.scctData[11u]);
1812:.\Generated_Source\PSoC5/cyPm.c ****     CY_SET_REG8(CYREG_SC1_SW8 , cyPmBackup.scctData[12u]);
 308              		.loc 1 1812 0
 309 0006 1832     		adds	r2, r2, #24
1799:.\Generated_Source\PSoC5/cyPm.c ****     CY_SET_REG8(CYREG_SC0_SW2 , cyPmBackup.scctData[1u] );
 310              		.loc 1 1799 0
 311 0008 02F8181C 		strb	r1, [r2, #-24]
ARM GAS  C:\Users\PIET~1.COU\AppData\Local\Temp\ccUpISSh.s 			page 39


1800:.\Generated_Source\PSoC5/cyPm.c ****     CY_SET_REG8(CYREG_SC0_SW2 , cyPmBackup.scctData[1u] );
 312              		.loc 1 1800 0
 313 000c 997A     		ldrb	r1, [r3, #10]	@ zero_extendqisi2
 314 000e 02F8161C 		strb	r1, [r2, #-22]
1801:.\Generated_Source\PSoC5/cyPm.c ****     CY_SET_REG8(CYREG_SC0_SW4 , cyPmBackup.scctData[3u] );
 315              		.loc 1 1801 0
 316 0012 D97A     		ldrb	r1, [r3, #11]	@ zero_extendqisi2
 317 0014 02F8151C 		strb	r1, [r2, #-21]
1802:.\Generated_Source\PSoC5/cyPm.c ****     CY_SET_REG8(CYREG_SC0_SW6 , cyPmBackup.scctData[4u] );
 318              		.loc 1 1802 0
 319 0018 197B     		ldrb	r1, [r3, #12]	@ zero_extendqisi2
 320 001a 02F8141C 		strb	r1, [r2, #-20]
1803:.\Generated_Source\PSoC5/cyPm.c ****     CY_SET_REG8(CYREG_SC0_SW8 , cyPmBackup.scctData[5u] );
 321              		.loc 1 1803 0
 322 001e 597B     		ldrb	r1, [r3, #13]	@ zero_extendqisi2
 323 0020 02F8121C 		strb	r1, [r2, #-18]
1804:.\Generated_Source\PSoC5/cyPm.c ****     CY_SET_REG8(CYREG_SC0_SW10, cyPmBackup.scctData[6u] );
 324              		.loc 1 1804 0
 325 0024 997B     		ldrb	r1, [r3, #14]	@ zero_extendqisi2
 326 0026 02F8101C 		strb	r1, [r2, #-16]
1805:.\Generated_Source\PSoC5/cyPm.c **** 
 327              		.loc 1 1805 0
 328 002a D97B     		ldrb	r1, [r3, #15]	@ zero_extendqisi2
 329 002c 02F80E1C 		strb	r1, [r2, #-14]
1807:.\Generated_Source\PSoC5/cyPm.c ****     CY_SET_REG8(CYREG_SC1_SW2 , cyPmBackup.scctData[8u] );
 330              		.loc 1 1807 0
 331 0030 197C     		ldrb	r1, [r3, #16]	@ zero_extendqisi2
 332 0032 02F8081C 		strb	r1, [r2, #-8]
1808:.\Generated_Source\PSoC5/cyPm.c ****     CY_SET_REG8(CYREG_SC1_SW3 , cyPmBackup.scctData[9u] );
 333              		.loc 1 1808 0
 334 0036 597C     		ldrb	r1, [r3, #17]	@ zero_extendqisi2
 335 0038 02F8061C 		strb	r1, [r2, #-6]
1809:.\Generated_Source\PSoC5/cyPm.c ****     CY_SET_REG8(CYREG_SC1_SW4 , cyPmBackup.scctData[10u]);
 336              		.loc 1 1809 0
 337 003c 997C     		ldrb	r1, [r3, #18]	@ zero_extendqisi2
 338 003e 02F8051C 		strb	r1, [r2, #-5]
1810:.\Generated_Source\PSoC5/cyPm.c ****     CY_SET_REG8(CYREG_SC1_SW6 , cyPmBackup.scctData[11u]);
 339              		.loc 1 1810 0
 340 0042 D97C     		ldrb	r1, [r3, #19]	@ zero_extendqisi2
 341 0044 02F8041C 		strb	r1, [r2, #-4]
1811:.\Generated_Source\PSoC5/cyPm.c ****     CY_SET_REG8(CYREG_SC1_SW8 , cyPmBackup.scctData[12u]);
 342              		.loc 1 1811 0
 343 0048 197D     		ldrb	r1, [r3, #20]	@ zero_extendqisi2
 344 004a 02F8021C 		strb	r1, [r2, #-2]
 345              		.loc 1 1812 0
 346 004e 597D     		ldrb	r1, [r3, #21]	@ zero_extendqisi2
 347 0050 1170     		strb	r1, [r2]
1813:.\Generated_Source\PSoC5/cyPm.c ****     CY_SET_REG8(CYREG_SC1_SW10, cyPmBackup.scctData[13u]);
 348              		.loc 1 1813 0
 349 0052 997D     		ldrb	r1, [r3, #22]	@ zero_extendqisi2
 350 0054 9170     		strb	r1, [r2, #2]
1814:.\Generated_Source\PSoC5/cyPm.c **** 
1815:.\Generated_Source\PSoC5/cyPm.c ****     CY_SET_REG8(CYREG_SC2_SW0 , cyPmBackup.scctData[14u]);
 351              		.loc 1 1815 0
 352 0056 D97D     		ldrb	r1, [r3, #23]	@ zero_extendqisi2
 353 0058 1172     		strb	r1, [r2, #8]
1816:.\Generated_Source\PSoC5/cyPm.c ****     CY_SET_REG8(CYREG_SC2_SW2 , cyPmBackup.scctData[15u]);
ARM GAS  C:\Users\PIET~1.COU\AppData\Local\Temp\ccUpISSh.s 			page 40


 354              		.loc 1 1816 0
 355 005a 197E     		ldrb	r1, [r3, #24]	@ zero_extendqisi2
 356 005c 9172     		strb	r1, [r2, #10]
1817:.\Generated_Source\PSoC5/cyPm.c ****     CY_SET_REG8(CYREG_SC2_SW3 , cyPmBackup.scctData[16u]);
 357              		.loc 1 1817 0
 358 005e 597E     		ldrb	r1, [r3, #25]	@ zero_extendqisi2
 359 0060 D172     		strb	r1, [r2, #11]
1818:.\Generated_Source\PSoC5/cyPm.c ****     CY_SET_REG8(CYREG_SC2_SW4 , cyPmBackup.scctData[17u]);
 360              		.loc 1 1818 0
 361 0062 997E     		ldrb	r1, [r3, #26]	@ zero_extendqisi2
 362 0064 1173     		strb	r1, [r2, #12]
1819:.\Generated_Source\PSoC5/cyPm.c ****     CY_SET_REG8(CYREG_SC2_SW6 , cyPmBackup.scctData[18u]);
 363              		.loc 1 1819 0
 364 0066 D97E     		ldrb	r1, [r3, #27]	@ zero_extendqisi2
 365 0068 9173     		strb	r1, [r2, #14]
1820:.\Generated_Source\PSoC5/cyPm.c ****     CY_SET_REG8(CYREG_SC2_SW8 , cyPmBackup.scctData[19u]);
 366              		.loc 1 1820 0
 367 006a 197F     		ldrb	r1, [r3, #28]	@ zero_extendqisi2
 368 006c 1174     		strb	r1, [r2, #16]
1821:.\Generated_Source\PSoC5/cyPm.c ****     CY_SET_REG8(CYREG_SC2_SW10, cyPmBackup.scctData[20u]);
 369              		.loc 1 1821 0
 370 006e 597F     		ldrb	r1, [r3, #29]	@ zero_extendqisi2
 371 0070 9174     		strb	r1, [r2, #18]
1822:.\Generated_Source\PSoC5/cyPm.c **** 
1823:.\Generated_Source\PSoC5/cyPm.c ****     CY_SET_REG8(CYREG_SC3_SW0 , cyPmBackup.scctData[21u]);
 372              		.loc 1 1823 0
 373 0072 997F     		ldrb	r1, [r3, #30]	@ zero_extendqisi2
 374 0074 1176     		strb	r1, [r2, #24]
1824:.\Generated_Source\PSoC5/cyPm.c ****     CY_SET_REG8(CYREG_SC3_SW2 , cyPmBackup.scctData[22u]);
 375              		.loc 1 1824 0
 376 0076 D97F     		ldrb	r1, [r3, #31]	@ zero_extendqisi2
 377 0078 9176     		strb	r1, [r2, #26]
1825:.\Generated_Source\PSoC5/cyPm.c ****     CY_SET_REG8(CYREG_SC3_SW3 , cyPmBackup.scctData[23u]);
 378              		.loc 1 1825 0
 379 007a 93F82010 		ldrb	r1, [r3, #32]	@ zero_extendqisi2
 380 007e D176     		strb	r1, [r2, #27]
1826:.\Generated_Source\PSoC5/cyPm.c ****     CY_SET_REG8(CYREG_SC3_SW4 , cyPmBackup.scctData[24u]);
 381              		.loc 1 1826 0
 382 0080 93F82110 		ldrb	r1, [r3, #33]	@ zero_extendqisi2
 383 0084 1177     		strb	r1, [r2, #28]
1827:.\Generated_Source\PSoC5/cyPm.c ****     CY_SET_REG8(CYREG_SC3_SW6 , cyPmBackup.scctData[25u]);
 384              		.loc 1 1827 0
 385 0086 93F82210 		ldrb	r1, [r3, #34]	@ zero_extendqisi2
 386 008a 9177     		strb	r1, [r2, #30]
1828:.\Generated_Source\PSoC5/cyPm.c ****     CY_SET_REG8(CYREG_SC3_SW8 , cyPmBackup.scctData[26u]);
 387              		.loc 1 1828 0
 388 008c 93F82310 		ldrb	r1, [r3, #35]	@ zero_extendqisi2
 389 0090 82F82010 		strb	r1, [r2, #32]
1829:.\Generated_Source\PSoC5/cyPm.c ****     CY_SET_REG8(CYREG_SC3_SW10, cyPmBackup.scctData[27u]);
 390              		.loc 1 1829 0
 391 0094 93F82410 		ldrb	r1, [r3, #36]	@ zero_extendqisi2
 392 0098 82F82210 		strb	r1, [r2, #34]
1830:.\Generated_Source\PSoC5/cyPm.c **** 
1831:.\Generated_Source\PSoC5/cyPm.c **** 
1832:.\Generated_Source\PSoC5/cyPm.c ****     #if(CY_PSOC3)
1833:.\Generated_Source\PSoC5/cyPm.c **** 
1834:.\Generated_Source\PSoC5/cyPm.c ****         /* Serial Wire Viewer (SWV) workaround */
ARM GAS  C:\Users\PIET~1.COU\AppData\Local\Temp\ccUpISSh.s 			page 41


1835:.\Generated_Source\PSoC5/cyPm.c ****         if(CY_PM_ENABLED == cyPmBackup.swvClkEnabled)
1836:.\Generated_Source\PSoC5/cyPm.c ****         {
1837:.\Generated_Source\PSoC5/cyPm.c ****             /* Restore ports drive mode */
1838:.\Generated_Source\PSoC5/cyPm.c ****             CY_PM_PRT1_PC3_REG = (CY_PM_PRT1_PC3_REG & CY_PM_PRT1_PC3_DM_MASK) |
1839:.\Generated_Source\PSoC5/cyPm.c ****                                     cyPmBackup.prt1Dm;
1840:.\Generated_Source\PSoC5/cyPm.c **** 
1841:.\Generated_Source\PSoC5/cyPm.c ****             /* Enable SWV clocks */
1842:.\Generated_Source\PSoC5/cyPm.c ****             CY_PM_MLOGIC_DBG_REG |= CY_PM_MLOGIC_DBG_SWV_CLK_EN;
1843:.\Generated_Source\PSoC5/cyPm.c ****         }
1844:.\Generated_Source\PSoC5/cyPm.c **** 
1845:.\Generated_Source\PSoC5/cyPm.c ****     #endif /* (CY_PSOC3) */
1846:.\Generated_Source\PSoC5/cyPm.c **** 
1847:.\Generated_Source\PSoC5/cyPm.c **** 
1848:.\Generated_Source\PSoC5/cyPm.c ****     /* Restore boost reference */
1849:.\Generated_Source\PSoC5/cyPm.c ****     if(CY_PM_ENABLED == cyPmBackup.boostRefExt)
 393              		.loc 1 1849 0
 394 009c 93F82E30 		ldrb	r3, [r3, #46]	@ zero_extendqisi2
1829:.\Generated_Source\PSoC5/cyPm.c ****     CY_SET_REG8(CYREG_SC3_SW10, cyPmBackup.scctData[27u]);
 395              		.loc 1 1829 0
 396 00a0 2232     		adds	r2, r2, #34
 397              		.loc 1 1849 0
 398 00a2 012B     		cmp	r3, #1
1850:.\Generated_Source\PSoC5/cyPm.c ****     {
1851:.\Generated_Source\PSoC5/cyPm.c ****         CY_PM_BOOST_CR2_REG |= CY_PM_BOOST_CR2_EREFSEL_EXT;
 399              		.loc 1 1851 0
 400 00a4 01BF     		itttt	eq
 401 00a6 A2F5B852 		subeq	r2, r2, #5888
 402 00aa 183A     		subeq	r2, r2, #24
 403 00ac 1378     		ldrbeq	r3, [r2]	@ zero_extendqisi2
 404 00ae 43F00803 		orreq	r3, r3, #8
 405 00b2 08BF     		it	eq
 406 00b4 1370     		strbeq	r3, [r2]
 407 00b6 7047     		bx	lr
 408              	.L10:
 409              		.align	2
 410              	.L9:
 411 00b8 00000000 		.word	.LANCHOR0
 412 00bc 005A0040 		.word	1073764864
 413              		.cfi_endproc
 414              	.LFE76:
 415              		.size	CyPmHibSlpRestore, .-CyPmHibSlpRestore
 416              		.section	.text.CyPmSaveClocks,"ax",%progbits
 417              		.align	1
 418              		.global	CyPmSaveClocks
 419              		.thumb
 420              		.thumb_func
 421              		.type	CyPmSaveClocks, %function
 422              	CyPmSaveClocks:
 423              	.LFB63:
  82:.\Generated_Source\PSoC5/cyPm.c ****     /* Digital and analog clocks - save enable state and disable them all */
 424              		.loc 1 82 0
 425              		.cfi_startproc
 426              		@ args = 0, pretend = 0, frame = 0
 427              		@ frame_needed = 0, uses_anonymous_args = 0
 428 0000 10B5     		push	{r4, lr}
 429              		.cfi_def_cfa_offset 8
 430              		.cfi_offset 4, -8
ARM GAS  C:\Users\PIET~1.COU\AppData\Local\Temp\ccUpISSh.s 			page 42


 431              		.cfi_offset 14, -4
  84:.\Generated_Source\PSoC5/cyPm.c ****     cyPmClockBackup.enClkD = CY_PM_ACT_CFG2_REG;
 432              		.loc 1 84 0
 433 0002 6A4A     		ldr	r2, .L51
 434 0004 6A4C     		ldr	r4, .L51+4
 435 0006 1378     		ldrb	r3, [r2]	@ zero_extendqisi2
  91:.\Generated_Source\PSoC5/cyPm.c **** 
 436              		.loc 1 91 0
 437 0008 3720     		movs	r0, #55
  84:.\Generated_Source\PSoC5/cyPm.c ****     cyPmClockBackup.enClkD = CY_PM_ACT_CFG2_REG;
 438              		.loc 1 84 0
 439 000a 03F00F03 		and	r3, r3, #15
 440 000e 84F83030 		strb	r3, [r4, #48]
  85:.\Generated_Source\PSoC5/cyPm.c ****     CY_PM_ACT_CFG1_REG &= ((uint8)(~CY_PM_ACT_EN_CLK_A_MASK));
 441              		.loc 1 85 0
 442 0012 684B     		ldr	r3, .L51+8
 443 0014 1978     		ldrb	r1, [r3]	@ zero_extendqisi2
 444 0016 84F83110 		strb	r1, [r4, #49]
  86:.\Generated_Source\PSoC5/cyPm.c ****     CY_PM_ACT_CFG2_REG &= ((uint8)(~CY_PM_ACT_EN_CLK_D_MASK));
 445              		.loc 1 86 0
 446 001a 1178     		ldrb	r1, [r2]	@ zero_extendqisi2
 447 001c 01F0F001 		and	r1, r1, #240
 448 0020 1170     		strb	r1, [r2]
  87:.\Generated_Source\PSoC5/cyPm.c **** 
 449              		.loc 1 87 0
 450 0022 1A78     		ldrb	r2, [r3]	@ zero_extendqisi2
 451 0024 0022     		movs	r2, #0
 452 0026 1A70     		strb	r2, [r3]
  90:.\Generated_Source\PSoC5/cyPm.c ****     CyFlash_SetWaitCycles(CY_PM_MAX_FLASH_WAIT_CYCLES);
 453              		.loc 1 90 0
 454 0028 03F25E43 		addw	r3, r3, #1118
 455 002c 1B78     		ldrb	r3, [r3]	@ zero_extendqisi2
 456 002e 03F0C003 		and	r3, r3, #192
 457 0032 84F83530 		strb	r3, [r4, #53]
  91:.\Generated_Source\PSoC5/cyPm.c **** 
 458              		.loc 1 91 0
 459 0036 FFF7FEFF 		bl	CyFlash_SetWaitCycles
 460              	.LVL0:
  94:.\Generated_Source\PSoC5/cyPm.c ****     cyPmClockBackup.imoUsbClk = CY_PM_FASTCLK_IMO_CR_REG & CY_PM_FASTCLK_IMO_CR_USB;
 461              		.loc 1 94 0
 462 003a 5F4B     		ldr	r3, .L51+12
 463 003c 1A78     		ldrb	r2, [r3]	@ zero_extendqisi2
 464 003e 02F00702 		and	r2, r2, #7
 465 0042 84F83320 		strb	r2, [r4, #51]
  95:.\Generated_Source\PSoC5/cyPm.c **** 
 466              		.loc 1 95 0
 467 0046 1A78     		ldrb	r2, [r3]	@ zero_extendqisi2
 468 0048 02F04002 		and	r2, r2, #64
 469 004c 84F83420 		strb	r2, [r4, #52]
  98:.\Generated_Source\PSoC5/cyPm.c ****     {
 470              		.loc 1 98 0
 471 0050 1B78     		ldrb	r3, [r3]	@ zero_extendqisi2
 472 0052 03F01003 		and	r3, r3, #16
 473 0056 03F0FF02 		and	r2, r3, #255
 474 005a 1BB1     		cbz	r3, .L12
 101:.\Generated_Source\PSoC5/cyPm.c ****     }
 475              		.loc 1 101 0
ARM GAS  C:\Users\PIET~1.COU\AppData\Local\Temp\ccUpISSh.s 			page 43


 476 005c 0123     		movs	r3, #1
 477 005e 84F83930 		strb	r3, [r4, #57]
 478 0062 01E0     		b	.L13
 479              	.L12:
 106:.\Generated_Source\PSoC5/cyPm.c ****     }
 480              		.loc 1 106 0
 481 0064 84F83920 		strb	r2, [r4, #57]
 482              	.L13:
 110:.\Generated_Source\PSoC5/cyPm.c **** 
 483              		.loc 1 110 0
 484 0068 544B     		ldr	r3, .L51+16
 485 006a 1B78     		ldrb	r3, [r3]	@ zero_extendqisi2
 486 006c 03F00303 		and	r3, r3, #3
 113:.\Generated_Source\PSoC5/cyPm.c ****     {
 487              		.loc 1 113 0
 488 0070 012B     		cmp	r3, #1
 110:.\Generated_Source\PSoC5/cyPm.c **** 
 489              		.loc 1 110 0
 490 0072 84F83230 		strb	r3, [r4, #50]
 113:.\Generated_Source\PSoC5/cyPm.c ****     {
 491              		.loc 1 113 0
 492 0076 10D1     		bne	.L14
 115:.\Generated_Source\PSoC5/cyPm.c ****         {
 493              		.loc 1 115 0
 494 0078 4FF04023 		mov	r3, #1073758208
 495 007c 1B78     		ldrb	r3, [r3]	@ zero_extendqisi2
 496 007e 03F00303 		and	r3, r3, #3
 497 0082 012B     		cmp	r3, #1
 498 0084 06D0     		beq	.L15
 499 0086 03D3     		bcc	.L16
 500 0088 022B     		cmp	r3, #2
 501 008a 06D1     		bne	.L14
 126:.\Generated_Source\PSoC5/cyPm.c ****             break;
 502              		.loc 1 126 0
 503 008c 0320     		movs	r0, #3
 504 008e 02E0     		b	.L50
 505              	.L16:
 118:.\Generated_Source\PSoC5/cyPm.c ****             break;
 506              		.loc 1 118 0
 507 0090 0020     		movs	r0, #0
 508 0092 00E0     		b	.L50
 509              	.L15:
 122:.\Generated_Source\PSoC5/cyPm.c ****             break;
 510              		.loc 1 122 0
 511 0094 0220     		movs	r0, #2
 512              	.L50:
 126:.\Generated_Source\PSoC5/cyPm.c ****             break;
 513              		.loc 1 126 0
 514 0096 FFF7FEFF 		bl	CyMasterClk_SetSource
 515              	.LVL1:
 516              	.L14:
 136:.\Generated_Source\PSoC5/cyPm.c ****     {
 517              		.loc 1 136 0
 518 009a 494B     		ldr	r3, .L51+20
 519 009c 1B78     		ldrb	r3, [r3]	@ zero_extendqisi2
 520 009e 13F00103 		ands	r3, r3, #1
 521 00a2 05D0     		beq	.L18
ARM GAS  C:\Users\PIET~1.COU\AppData\Local\Temp\ccUpISSh.s 			page 44


 139:.\Generated_Source\PSoC5/cyPm.c ****         CyPLL_OUT_Stop();
 522              		.loc 1 139 0
 523 00a4 0123     		movs	r3, #1
 524 00a6 84F83E30 		strb	r3, [r4, #62]
 140:.\Generated_Source\PSoC5/cyPm.c ****     }
 525              		.loc 1 140 0
 526 00aa FFF7FEFF 		bl	CyPLL_OUT_Stop
 527              	.LVL2:
 528 00ae 01E0     		b	.L19
 529              	.L18:
 145:.\Generated_Source\PSoC5/cyPm.c ****     }
 530              		.loc 1 145 0
 531 00b0 84F83E30 		strb	r3, [r4, #62]
 532              	.L19:
 149:.\Generated_Source\PSoC5/cyPm.c **** 
 533              		.loc 1 149 0
 534 00b4 0420     		movs	r0, #4
 535 00b6 FFF7FEFF 		bl	CyIMO_SetFreq
 536              	.LVL3:
 152:.\Generated_Source\PSoC5/cyPm.c ****     {
 537              		.loc 1 152 0
 538 00ba 424B     		ldr	r3, .L51+24
 539 00bc 1B78     		ldrb	r3, [r3]	@ zero_extendqisi2
 540 00be 03F01003 		and	r3, r3, #16
 541 00c2 03F0FF00 		and	r0, r3, #255
 542 00c6 1BB1     		cbz	r3, .L20
 155:.\Generated_Source\PSoC5/cyPm.c ****     }
 543              		.loc 1 155 0
 544 00c8 0123     		movs	r3, #1
 545 00ca 84F83630 		strb	r3, [r4, #54]
 546 00ce 06E0     		b	.L21
 547              	.L20:
 160:.\Generated_Source\PSoC5/cyPm.c **** 
 548              		.loc 1 160 0
 549 00d0 84F83600 		strb	r0, [r4, #54]
 163:.\Generated_Source\PSoC5/cyPm.c **** 
 550              		.loc 1 163 0
 551 00d4 FFF7FEFF 		bl	CyIMO_Start
 552              	.LVL4:
 166:.\Generated_Source\PSoC5/cyPm.c ****     }
 553              		.loc 1 166 0
 554 00d8 0620     		movs	r0, #6
 555 00da FFF7FEFF 		bl	CyDelayUs
 556              	.LVL5:
 557              	.L21:
 170:.\Generated_Source\PSoC5/cyPm.c ****     {
 558              		.loc 1 170 0
 559 00de 364B     		ldr	r3, .L51+12
 560 00e0 1B78     		ldrb	r3, [r3]	@ zero_extendqisi2
 561 00e2 03F02003 		and	r3, r3, #32
 562 00e6 03F0FF02 		and	r2, r3, #255
 563 00ea 6BB1     		cbz	r3, .L22
 174:.\Generated_Source\PSoC5/cyPm.c **** 
 564              		.loc 1 174 0
 565 00ec 4FF04023 		mov	r3, #1073758208
 566 00f0 1B78     		ldrb	r3, [r3]	@ zero_extendqisi2
 177:.\Generated_Source\PSoC5/cyPm.c ****     }
ARM GAS  C:\Users\PIET~1.COU\AppData\Local\Temp\ccUpISSh.s 			page 45


 567              		.loc 1 177 0
 568 00f2 0020     		movs	r0, #0
 173:.\Generated_Source\PSoC5/cyPm.c ****             (0u == (CY_PM_CLKDIST_CR_REG & CY_PM_CLKDIST_IMO2X_SRC)) ? CY_IMO_SOURCE_DSI : CY_IMO_S
 569              		.loc 1 173 0
 570 00f4 13F0400F 		tst	r3, #64
 571 00f8 0CBF     		ite	eq
 572 00fa 0223     		moveq	r3, #2
 573 00fc 0123     		movne	r3, #1
 574 00fe 84F83730 		strb	r3, [r4, #55]
 177:.\Generated_Source\PSoC5/cyPm.c ****     }
 575              		.loc 1 177 0
 576 0102 FFF7FEFF 		bl	CyIMO_SetSource
 577              	.LVL6:
 578 0106 01E0     		b	.L24
 579              	.L22:
 182:.\Generated_Source\PSoC5/cyPm.c ****     }
 580              		.loc 1 182 0
 581 0108 84F83720 		strb	r2, [r4, #55]
 582              	.L24:
 186:.\Generated_Source\PSoC5/cyPm.c **** 
 583              		.loc 1 186 0
 584 010c 4FF04022 		mov	r2, #1073758208
 585 0110 1378     		ldrb	r3, [r2]	@ zero_extendqisi2
 586 0112 03F03003 		and	r3, r3, #48
 587 0116 84F83830 		strb	r3, [r4, #56]
 189:.\Generated_Source\PSoC5/cyPm.c ****     {
 588              		.loc 1 189 0
 589 011a 1BB1     		cbz	r3, .L25
 192:.\Generated_Source\PSoC5/cyPm.c ****                                 CY_PM_CLKDIST_IMO_OUT_IMO;
 590              		.loc 1 192 0
 591 011c 1378     		ldrb	r3, [r2]	@ zero_extendqisi2
 592 011e 03F0CF03 		and	r3, r3, #207
 593 0122 1370     		strb	r3, [r2]
 594              	.L25:
 197:.\Generated_Source\PSoC5/cyPm.c ****     {
 595              		.loc 1 197 0
 596 0124 244B     		ldr	r3, .L51+12
 597 0126 1B78     		ldrb	r3, [r3]	@ zero_extendqisi2
 598 0128 DB06     		lsls	r3, r3, #27
 599 012a 01D5     		bpl	.L26
 199:.\Generated_Source\PSoC5/cyPm.c ****     }
 600              		.loc 1 199 0
 601 012c FFF7FEFF 		bl	CyIMO_DisableDoubler
 602              	.LVL7:
 603              	.L26:
 203:.\Generated_Source\PSoC5/cyPm.c ****     if(CY_PM_DIV_BY_ONE != cyPmClockBackup.clkSyncDiv)
 604              		.loc 1 203 0
 605 0130 254B     		ldr	r3, .L51+28
 606 0132 1B78     		ldrb	r3, [r3]	@ zero_extendqisi2
 607 0134 DBB2     		uxtb	r3, r3
 608 0136 84F83A30 		strb	r3, [r4, #58]
 204:.\Generated_Source\PSoC5/cyPm.c ****     {
 609              		.loc 1 204 0
 610 013a 13B1     		cbz	r3, .L27
 206:.\Generated_Source\PSoC5/cyPm.c ****     }    /* No change if master clock divider is 1 */
 611              		.loc 1 206 0
 612 013c 0020     		movs	r0, #0
ARM GAS  C:\Users\PIET~1.COU\AppData\Local\Temp\ccUpISSh.s 			page 46


 613 013e FFF7FEFF 		bl	CyMasterClk_SetDivider
 614              	.LVL8:
 615              	.L27:
 210:.\Generated_Source\PSoC5/cyPm.c ****     {
 616              		.loc 1 210 0
 617 0142 94F83230 		ldrb	r3, [r4, #50]	@ zero_extendqisi2
 618 0146 13B1     		cbz	r3, .L28
 212:.\Generated_Source\PSoC5/cyPm.c ****     }    /* No change if master clock source is IMO */
 619              		.loc 1 212 0
 620 0148 0020     		movs	r0, #0
 621 014a FFF7FEFF 		bl	CyMasterClk_SetSource
 622              	.LVL9:
 623              	.L28:
 216:.\Generated_Source\PSoC5/cyPm.c ****     cyPmClockBackup.clkBusDiv |= CY_PM_CLK_BUS_LSB_DIV_REG;
 624              		.loc 1 216 0
 625 014e 1F4B     		ldr	r3, .L51+32
 626 0150 1B78     		ldrb	r3, [r3]	@ zero_extendqisi2
 627 0152 1A02     		lsls	r2, r3, #8
 217:.\Generated_Source\PSoC5/cyPm.c ****     if(CY_PM_BUS_CLK_DIV_BY_ONE != cyPmClockBackup.clkBusDiv)
 628              		.loc 1 217 0
 629 0154 1E4B     		ldr	r3, .L51+36
 216:.\Generated_Source\PSoC5/cyPm.c ****     cyPmClockBackup.clkBusDiv |= CY_PM_CLK_BUS_LSB_DIV_REG;
 630              		.loc 1 216 0
 631 0156 A287     		strh	r2, [r4, #60]	@ movhi
 217:.\Generated_Source\PSoC5/cyPm.c ****     if(CY_PM_BUS_CLK_DIV_BY_ONE != cyPmClockBackup.clkBusDiv)
 632              		.loc 1 217 0
 633 0158 1B78     		ldrb	r3, [r3]	@ zero_extendqisi2
 634 015a 1343     		orrs	r3, r3, r2
 635 015c A387     		strh	r3, [r4, #60]	@ movhi
 218:.\Generated_Source\PSoC5/cyPm.c ****     {
 636              		.loc 1 218 0
 637 015e 13B1     		cbz	r3, .L29
 220:.\Generated_Source\PSoC5/cyPm.c ****     }    /* Do nothing if saved and actual values are equal */
 638              		.loc 1 220 0
 639 0160 0020     		movs	r0, #0
 640 0162 FFF7FEFF 		bl	CyBusClk_SetDivider
 641              	.LVL10:
 642              	.L29:
 224:.\Generated_Source\PSoC5/cyPm.c **** 
 643              		.loc 1 224 0
 644 0166 144B     		ldr	r3, .L51+12
 645 0168 1A4A     		ldr	r2, .L51+40
 646 016a 1B78     		ldrb	r3, [r3]	@ zero_extendqisi2
 647 016c 03F00703 		and	r3, r3, #7
 648 0170 D05C     		ldrb	r0, [r2, r3]	@ zero_extendqisi2
 649 0172 FFF7FEFF 		bl	CyFlash_SetWaitCycles
 650              	.LVL11:
 227:.\Generated_Source\PSoC5/cyPm.c ****     {
 651              		.loc 1 227 0
 652 0176 184B     		ldr	r3, .L51+44
 653 0178 1B78     		ldrb	r3, [r3]	@ zero_extendqisi2
 654 017a 13F00103 		ands	r3, r3, #1
 655 017e 05D0     		beq	.L30
 230:.\Generated_Source\PSoC5/cyPm.c ****         CyXTAL_Stop();
 656              		.loc 1 230 0
 657 0180 0123     		movs	r3, #1
 658 0182 84F83F30 		strb	r3, [r4, #63]
ARM GAS  C:\Users\PIET~1.COU\AppData\Local\Temp\ccUpISSh.s 			page 47


 231:.\Generated_Source\PSoC5/cyPm.c ****     }
 659              		.loc 1 231 0
 660 0186 FFF7FEFF 		bl	CyXTAL_Stop
 661              	.LVL12:
 662 018a 01E0     		b	.L31
 663              	.L30:
 236:.\Generated_Source\PSoC5/cyPm.c ****     }
 664              		.loc 1 236 0
 665 018c 84F83F30 		strb	r3, [r4, #63]
 666              	.L31:
 245:.\Generated_Source\PSoC5/cyPm.c ****     {
 667              		.loc 1 245 0
 668 0190 124B     		ldr	r3, .L51+48
 669 0192 1B78     		ldrb	r3, [r3]	@ zero_extendqisi2
 670 0194 03F00403 		and	r3, r3, #4
 671 0198 03F0FF02 		and	r2, r3, #255
 672 019c 1BB1     		cbz	r3, .L32
 247:.\Generated_Source\PSoC5/cyPm.c ****     }
 673              		.loc 1 247 0
 674 019e 0123     		movs	r3, #1
 675 01a0 84F84030 		strb	r3, [r4, #64]
 676 01a4 10BD     		pop	{r4, pc}
 677              	.L32:
 251:.\Generated_Source\PSoC5/cyPm.c ****     }
 678              		.loc 1 251 0
 679 01a6 84F84020 		strb	r2, [r4, #64]
 680 01aa 10BD     		pop	{r4, pc}
 681              	.L52:
 682              		.align	2
 683              	.L51:
 684 01ac A1430040 		.word	1073759137
 685 01b0 00000000 		.word	.LANCHOR0
 686 01b4 A2430040 		.word	1073759138
 687 01b8 00420040 		.word	1073758720
 688 01bc 05400040 		.word	1073758213
 689 01c0 20420040 		.word	1073758752
 690 01c4 A0430040 		.word	1073759136
 691 01c8 04400040 		.word	1073758212
 692 01cc 07400040 		.word	1073758215
 693 01d0 06400040 		.word	1073758214
 694 01d4 00000000 		.word	.LANCHOR1
 695 01d8 10420040 		.word	1073758736
 696 01dc 0B400040 		.word	1073758219
 697              		.cfi_endproc
 698              	.LFE63:
 699              		.size	CyPmSaveClocks, .-CyPmSaveClocks
 700              		.section	.text.CyPmRestoreClocks,"ax",%progbits
 701              		.align	1
 702              		.global	CyPmRestoreClocks
 703              		.thumb
 704              		.thumb_func
 705              		.type	CyPmRestoreClocks, %function
 706              	CyPmRestoreClocks:
 707              	.LFB64:
 284:.\Generated_Source\PSoC5/cyPm.c ****     cystatus status = CYRET_TIMEOUT;
 708              		.loc 1 284 0
 709              		.cfi_startproc
ARM GAS  C:\Users\PIET~1.COU\AppData\Local\Temp\ccUpISSh.s 			page 48


 710              		@ args = 0, pretend = 0, frame = 8
 711              		@ frame_needed = 0, uses_anonymous_args = 0
 712              	.LVL13:
 713 0000 F7B5     		push	{r0, r1, r2, r4, r5, r6, r7, lr}
 714              		.cfi_def_cfa_offset 32
 715              		.cfi_offset 4, -20
 716              		.cfi_offset 5, -16
 717              		.cfi_offset 6, -12
 718              		.cfi_offset 7, -8
 719              		.cfi_offset 14, -4
 291:.\Generated_Source\PSoC5/cyPm.c ****         CY_IMO_FREQ_12MHZ, CY_IMO_FREQ_6MHZ,  CY_IMO_FREQ_24MHZ, CY_IMO_FREQ_3MHZ,
 720              		.loc 1 291 0
 721 0002 774E     		ldr	r6, .L90
 296:.\Generated_Source\PSoC5/cyPm.c ****     {
 722              		.loc 1 296 0
 723 0004 774C     		ldr	r4, .L90+4
 291:.\Generated_Source\PSoC5/cyPm.c ****         CY_IMO_FREQ_12MHZ, CY_IMO_FREQ_6MHZ,  CY_IMO_FREQ_24MHZ, CY_IMO_FREQ_3MHZ,
 724              		.loc 1 291 0
 725 0006 3346     		mov	r3, r6
 726 0008 53F8070F 		ldr	r0, [r3, #7]!	@ unaligned
 727 000c 9A88     		ldrh	r2, [r3, #4]	@ unaligned
 728 000e 9B79     		ldrb	r3, [r3, #6]	@ zero_extendqisi2
 729 0010 0090     		str	r0, [sp]	@ unaligned
 730 0012 8DF80630 		strb	r3, [sp, #6]
 296:.\Generated_Source\PSoC5/cyPm.c ****     {
 731              		.loc 1 296 0
 732 0016 94F84030 		ldrb	r3, [r4, #64]	@ zero_extendqisi2
 291:.\Generated_Source\PSoC5/cyPm.c ****         CY_IMO_FREQ_12MHZ, CY_IMO_FREQ_6MHZ,  CY_IMO_FREQ_24MHZ, CY_IMO_FREQ_3MHZ,
 733              		.loc 1 291 0
 734 001a ADF80420 		strh	r2, [sp, #4]	@ unaligned
 296:.\Generated_Source\PSoC5/cyPm.c ****     {
 735              		.loc 1 296 0
 736 001e 012B     		cmp	r3, #1
 737 0020 0DD1     		bne	.L54
 300:.\Generated_Source\PSoC5/cyPm.c **** 
 738              		.loc 1 300 0
 739 0022 714B     		ldr	r3, .L90+8
 299:.\Generated_Source\PSoC5/cyPm.c ****                         CY_PM_GET_CPU_FREQ_MHZ);
 740              		.loc 1 299 0
 741 0024 4B20     		movs	r0, #75
 300:.\Generated_Source\PSoC5/cyPm.c **** 
 742              		.loc 1 300 0
 743 0026 1B78     		ldrb	r3, [r3]	@ zero_extendqisi2
 744 0028 03F00703 		and	r3, r3, #7
 299:.\Generated_Source\PSoC5/cyPm.c ****                         CY_PM_GET_CPU_FREQ_MHZ);
 745              		.loc 1 299 0
 746 002c F35C     		ldrb	r3, [r6, r3]	@ zero_extendqisi2
 747 002e 5843     		muls	r0, r3, r0
 748 0030 FFF7FEFF 		bl	CyDelayCycles
 749              	.LVL14:
 302:.\Generated_Source\PSoC5/cyPm.c ****     }
 750              		.loc 1 302 0
 751 0034 6D4A     		ldr	r2, .L90+12
 752 0036 1378     		ldrb	r3, [r2]	@ zero_extendqisi2
 753 0038 43F00403 		orr	r3, r3, #4
 754 003c 1370     		strb	r3, [r2]
 755              	.L54:
ARM GAS  C:\Users\PIET~1.COU\AppData\Local\Temp\ccUpISSh.s 			page 49


 306:.\Generated_Source\PSoC5/cyPm.c ****     {
 756              		.loc 1 306 0
 757 003e 94F83F30 		ldrb	r3, [r4, #63]	@ zero_extendqisi2
 758 0042 012B     		cmp	r3, #1
 759 0044 08D0     		beq	.L55
 760              	.L58:
 353:.\Generated_Source\PSoC5/cyPm.c **** 
 761              		.loc 1 353 0
 762 0046 3720     		movs	r0, #55
 763 0048 FFF7FEFF 		bl	CyFlash_SetWaitCycles
 764              	.LVL15:
 356:.\Generated_Source\PSoC5/cyPm.c ****        (CY_PM_MASTER_CLK_SRC_DSI  == cyPmClockBackup.masterClkSrc))
 765              		.loc 1 356 0
 766 004c 94F83230 		ldrb	r3, [r4, #50]	@ zero_extendqisi2
 767 0050 023B     		subs	r3, r3, #2
 768 0052 012B     		cmp	r3, #1
 769 0054 25D8     		bhi	.L57
 770 0056 17E0     		b	.L88
 771              	.L55:
 316:.\Generated_Source\PSoC5/cyPm.c **** 
 772              		.loc 1 316 0
 773 0058 0020     		movs	r0, #0
 774 005a FFF7FEFF 		bl	CyXTAL_Start
 775              	.LVL16:
 319:.\Generated_Source\PSoC5/cyPm.c **** 
 776              		.loc 1 319 0
 777 005e 644B     		ldr	r3, .L90+16
 778 0060 0525     		movs	r5, #5
 779 0062 1F46     		mov	r7, r3
 780 0064 1A78     		ldrb	r2, [r3]	@ zero_extendqisi2
 781              	.LVL17:
 782              	.L59:
 325:.\Generated_Source\PSoC5/cyPm.c **** 
 783              		.loc 1 325 0
 784 0066 604B     		ldr	r3, .L90+8
 785 0068 C820     		movs	r0, #200
 786 006a 1B78     		ldrb	r3, [r3]	@ zero_extendqisi2
 787 006c 03F00703 		and	r3, r3, #7
 788 0070 F35C     		ldrb	r3, [r6, r3]	@ zero_extendqisi2
 789 0072 5843     		muls	r0, r3, r0
 790 0074 FFF7FEFF 		bl	CyDelayCycles
 791              	.LVL18:
 328:.\Generated_Source\PSoC5/cyPm.c ****             {
 792              		.loc 1 328 0
 793 0078 3B78     		ldrb	r3, [r7]	@ zero_extendqisi2
 794 007a 1B06     		lsls	r3, r3, #24
 795 007c E3D5     		bpl	.L58
 796              	.LVL19:
 797 007e 013D     		subs	r5, r5, #1
 798              	.LVL20:
 799 0080 ADB2     		uxth	r5, r5
 322:.\Generated_Source\PSoC5/cyPm.c ****         {
 800              		.loc 1 322 0 discriminator 2
 801 0082 002D     		cmp	r5, #0
 802 0084 EFD1     		bne	.L59
 803 0086 DEE7     		b	.L58
 804              	.L88:
ARM GAS  C:\Users\PIET~1.COU\AppData\Local\Temp\ccUpISSh.s 			page 50


 360:.\Generated_Source\PSoC5/cyPm.c ****         {
 805              		.loc 1 360 0
 806 0088 5A4B     		ldr	r3, .L90+20
 807 008a 564A     		ldr	r2, .L90+4
 808 008c 1B78     		ldrb	r3, [r3]	@ zero_extendqisi2
 809 008e 92F83A00 		ldrb	r0, [r2, #58]	@ zero_extendqisi2
 810 0092 8342     		cmp	r3, r0
 811 0094 01D0     		beq	.L60
 363:.\Generated_Source\PSoC5/cyPm.c ****         }
 812              		.loc 1 363 0
 813 0096 FFF7FEFF 		bl	CyMasterClk_SetDivider
 814              	.LVL21:
 815              	.L60:
 367:.\Generated_Source\PSoC5/cyPm.c ****     }
 816              		.loc 1 367 0
 817 009a 94F83200 		ldrb	r0, [r4, #50]	@ zero_extendqisi2
 818 009e FFF7FEFF 		bl	CyMasterClk_SetSource
 819              	.LVL22:
 820              	.L57:
 371:.\Generated_Source\PSoC5/cyPm.c ****         (CY_IMO_FREQ_24MHZ == cyPmImoFreqMhz2Reg[cyPmClockBackup.imoFreq]))
 821              		.loc 1 371 0
 822 00a2 94F83430 		ldrb	r3, [r4, #52]	@ zero_extendqisi2
 823 00a6 5806     		lsls	r0, r3, #25
 824 00a8 0CD5     		bpl	.L61
 372:.\Generated_Source\PSoC5/cyPm.c ****     {
 825              		.loc 1 372 0 discriminator 1
 826 00aa 4E4B     		ldr	r3, .L90+4
 827 00ac 02AA     		add	r2, sp, #8
 828 00ae 93F83330 		ldrb	r3, [r3, #51]	@ zero_extendqisi2
 829 00b2 1344     		add	r3, r3, r2
 371:.\Generated_Source\PSoC5/cyPm.c ****         (CY_IMO_FREQ_24MHZ == cyPmImoFreqMhz2Reg[cyPmClockBackup.imoFreq]))
 830              		.loc 1 371 0 discriminator 1
 831 00b4 13F8083C 		ldrb	r3, [r3, #-8]	@ zero_extendqisi2
 832 00b8 032B     		cmp	r3, #3
 833 00ba 03D1     		bne	.L61
 375:.\Generated_Source\PSoC5/cyPm.c ****     }
 834              		.loc 1 375 0
 835 00bc 0820     		movs	r0, #8
 836 00be FFF7FEFF 		bl	CyIMO_SetFreq
 837              	.LVL23:
 838 00c2 13E0     		b	.L62
 839              	.L61:
 380:.\Generated_Source\PSoC5/cyPm.c **** 
 840              		.loc 1 380 0
 841 00c4 94F83330 		ldrb	r3, [r4, #51]	@ zero_extendqisi2
 842 00c8 02AA     		add	r2, sp, #8
 843 00ca 1344     		add	r3, r3, r2
 844 00cc 13F8080C 		ldrb	r0, [r3, #-8]	@ zero_extendqisi2
 845 00d0 FFF7FEFF 		bl	CyIMO_SetFreq
 846              	.LVL24:
 382:.\Generated_Source\PSoC5/cyPm.c ****         {
 847              		.loc 1 382 0
 848 00d4 94F83430 		ldrb	r3, [r4, #52]	@ zero_extendqisi2
 849 00d8 13F0400F 		tst	r3, #64
 850 00dc 424B     		ldr	r3, .L90+8
 384:.\Generated_Source\PSoC5/cyPm.c ****         }
 851              		.loc 1 384 0
ARM GAS  C:\Users\PIET~1.COU\AppData\Local\Temp\ccUpISSh.s 			page 51


 852 00de 1A78     		ldrb	r2, [r3]	@ zero_extendqisi2
 853 00e0 14BF     		ite	ne
 854 00e2 42F04002 		orrne	r2, r2, #64
 388:.\Generated_Source\PSoC5/cyPm.c ****         }
 855              		.loc 1 388 0
 856 00e6 02F0BF02 		andeq	r2, r2, #191
 857 00ea 1A70     		strb	r2, [r3]
 858              	.L62:
 393:.\Generated_Source\PSoC5/cyPm.c ****        (0u == (CY_PM_ACT_CFG0_IMO & CY_PM_ACT_CFG0_REG)))
 859              		.loc 1 393 0
 860 00ec 94F83630 		ldrb	r3, [r4, #54]	@ zero_extendqisi2
 861 00f0 012B     		cmp	r3, #1
 862 00f2 08D1     		bne	.L64
 394:.\Generated_Source\PSoC5/cyPm.c ****     {
 863              		.loc 1 394 0 discriminator 1
 864 00f4 404B     		ldr	r3, .L90+24
 865 00f6 1B78     		ldrb	r3, [r3]	@ zero_extendqisi2
 866 00f8 03F01003 		and	r3, r3, #16
 393:.\Generated_Source\PSoC5/cyPm.c ****        (0u == (CY_PM_ACT_CFG0_IMO & CY_PM_ACT_CFG0_REG)))
 867              		.loc 1 393 0 discriminator 1
 868 00fc 03F0FF00 		and	r0, r3, #255
 869 0100 0BB9     		cbnz	r3, .L64
 397:.\Generated_Source\PSoC5/cyPm.c ****     }
 870              		.loc 1 397 0
 871 0102 FFF7FEFF 		bl	CyIMO_Start
 872              	.LVL25:
 873              	.L64:
 401:.\Generated_Source\PSoC5/cyPm.c **** 
 874              		.loc 1 401 0
 875 0106 94F83700 		ldrb	r0, [r4, #55]	@ zero_extendqisi2
 876 010a FFF7FEFF 		bl	CyIMO_SetSource
 877              	.LVL26:
 404:.\Generated_Source\PSoC5/cyPm.c ****     {
 878              		.loc 1 404 0
 879 010e 94F83930 		ldrb	r3, [r4, #57]	@ zero_extendqisi2
 880 0112 012B     		cmp	r3, #1
 881 0114 01D1     		bne	.L65
 406:.\Generated_Source\PSoC5/cyPm.c ****     }
 882              		.loc 1 406 0
 883 0116 FFF7FEFF 		bl	CyIMO_EnableDoubler
 884              	.LVL27:
 885              	.L65:
 410:.\Generated_Source\PSoC5/cyPm.c ****     {
 886              		.loc 1 410 0
 887 011a 4FF04022 		mov	r2, #1073758208
 888 011e 1178     		ldrb	r1, [r2]	@ zero_extendqisi2
 889 0120 94F83830 		ldrb	r3, [r4, #56]	@ zero_extendqisi2
 890 0124 01F03001 		and	r1, r1, #48
 891 0128 8B42     		cmp	r3, r1
 412:.\Generated_Source\PSoC5/cyPm.c ****                                 cyPmClockBackup.clkImoSrc;
 892              		.loc 1 412 0
 893 012a 1FBF     		itttt	ne
 894 012c 1178     		ldrbne	r1, [r2]	@ zero_extendqisi2
 895 012e 01F0CF01 		andne	r1, r1, #207
 896 0132 0B43     		orrne	r3, r3, r1
 897 0134 1370     		strbne	r3, [r2]
 418:.\Generated_Source\PSoC5/cyPm.c ****     {
ARM GAS  C:\Users\PIET~1.COU\AppData\Local\Temp\ccUpISSh.s 			page 52


 898              		.loc 1 418 0
 899 0136 94F83E30 		ldrb	r3, [r4, #62]	@ zero_extendqisi2
 900 013a 012B     		cmp	r3, #1
 901 013c 04D0     		beq	.L67
 902              	.L71:
 466:.\Generated_Source\PSoC5/cyPm.c ****        (CY_PM_MASTER_CLK_SRC_PLL == cyPmClockBackup.masterClkSrc))
 903              		.loc 1 466 0
 904 013e 94F83230 		ldrb	r3, [r4, #50]	@ zero_extendqisi2
 905 0142 012B     		cmp	r3, #1
 906 0144 26D8     		bhi	.L69
 907 0146 18E0     		b	.L89
 908              	.L67:
 429:.\Generated_Source\PSoC5/cyPm.c **** 
 909              		.loc 1 429 0
 910 0148 0020     		movs	r0, #0
 911 014a FFF7FEFF 		bl	CyPLL_OUT_Start
 912              	.LVL28:
 432:.\Generated_Source\PSoC5/cyPm.c ****         (void) CY_PM_FASTCLK_PLL_SR_REG;
 913              		.loc 1 432 0
 914 014e 5020     		movs	r0, #80
 915 0150 FFF7FEFF 		bl	CyDelayUs
 916              	.LVL29:
 433:.\Generated_Source\PSoC5/cyPm.c **** 
 917              		.loc 1 433 0
 918 0154 294B     		ldr	r3, .L90+28
 919 0156 AB25     		movs	r5, #171
 920 0158 1E46     		mov	r6, r3
 921 015a 1A78     		ldrb	r2, [r3]	@ zero_extendqisi2
 922              	.LVL30:
 923              	.L72:
 438:.\Generated_Source\PSoC5/cyPm.c **** 
 924              		.loc 1 438 0
 925 015c 0120     		movs	r0, #1
 926 015e FFF7FEFF 		bl	CyDelayUs
 927              	.LVL31:
 441:.\Generated_Source\PSoC5/cyPm.c ****                (0u != (CY_PM_FASTCLK_PLL_SR_REG & CY_PM_FASTCLK_PLL_LOCKED)))
 928              		.loc 1 441 0
 929 0162 3378     		ldrb	r3, [r6]	@ zero_extendqisi2
 930 0164 D907     		lsls	r1, r3, #31
 931 0166 03D5     		bpl	.L70
 442:.\Generated_Source\PSoC5/cyPm.c ****             {
 932              		.loc 1 442 0 discriminator 1
 933 0168 244B     		ldr	r3, .L90+28
 934 016a 1B78     		ldrb	r3, [r3]	@ zero_extendqisi2
 441:.\Generated_Source\PSoC5/cyPm.c ****                (0u != (CY_PM_FASTCLK_PLL_SR_REG & CY_PM_FASTCLK_PLL_LOCKED)))
 935              		.loc 1 441 0 discriminator 1
 936 016c DA07     		lsls	r2, r3, #31
 937 016e E6D4     		bmi	.L71
 938              	.L70:
 939              	.LVL32:
 940 0170 013D     		subs	r5, r5, #1
 941              	.LVL33:
 942 0172 ADB2     		uxth	r5, r5
 436:.\Generated_Source\PSoC5/cyPm.c ****         {
 943              		.loc 1 436 0 discriminator 2
 944 0174 002D     		cmp	r5, #0
 945 0176 F1D1     		bne	.L72
ARM GAS  C:\Users\PIET~1.COU\AppData\Local\Temp\ccUpISSh.s 			page 53


 946 0178 E1E7     		b	.L71
 947              	.L89:
 470:.\Generated_Source\PSoC5/cyPm.c ****         {
 948              		.loc 1 470 0
 949 017a 1E4B     		ldr	r3, .L90+20
 950 017c 194A     		ldr	r2, .L90+4
 951 017e 1B78     		ldrb	r3, [r3]	@ zero_extendqisi2
 952 0180 92F83A00 		ldrb	r0, [r2, #58]	@ zero_extendqisi2
 953 0184 8342     		cmp	r3, r0
 954 0186 01D0     		beq	.L73
 472:.\Generated_Source\PSoC5/cyPm.c ****         }
 955              		.loc 1 472 0
 956 0188 FFF7FEFF 		bl	CyMasterClk_SetDivider
 957              	.LVL34:
 958              	.L73:
 476:.\Generated_Source\PSoC5/cyPm.c ****     }
 959              		.loc 1 476 0
 960 018c 94F83200 		ldrb	r0, [r4, #50]	@ zero_extendqisi2
 961 0190 FFF7FEFF 		bl	CyMasterClk_SetSource
 962              	.LVL35:
 963              	.L69:
 480:.\Generated_Source\PSoC5/cyPm.c ****        (0u != (CY_PM_ACT_CFG0_IMO & CY_PM_ACT_CFG0_REG)))
 964              		.loc 1 480 0
 965 0194 94F83630 		ldrb	r3, [r4, #54]	@ zero_extendqisi2
 966 0198 2BB9     		cbnz	r3, .L74
 481:.\Generated_Source\PSoC5/cyPm.c ****     {
 967              		.loc 1 481 0 discriminator 1
 968 019a 174B     		ldr	r3, .L90+24
 969 019c 1B78     		ldrb	r3, [r3]	@ zero_extendqisi2
 480:.\Generated_Source\PSoC5/cyPm.c ****        (0u != (CY_PM_ACT_CFG0_IMO & CY_PM_ACT_CFG0_REG)))
 970              		.loc 1 480 0 discriminator 1
 971 019e DB06     		lsls	r3, r3, #27
 972 01a0 01D5     		bpl	.L74
 483:.\Generated_Source\PSoC5/cyPm.c ****     }
 973              		.loc 1 483 0
 974 01a2 FFF7FEFF 		bl	CyIMO_Stop
 975              	.LVL36:
 976              	.L74:
 487:.\Generated_Source\PSoC5/cyPm.c ****     clkBusDivTmp |= CY_PM_CLK_BUS_LSB_DIV_REG;
 977              		.loc 1 487 0
 978 01a6 164B     		ldr	r3, .L90+32
 489:.\Generated_Source\PSoC5/cyPm.c ****     {
 979              		.loc 1 489 0
 980 01a8 A08F     		ldrh	r0, [r4, #60]
 487:.\Generated_Source\PSoC5/cyPm.c ****     clkBusDivTmp |= CY_PM_CLK_BUS_LSB_DIV_REG;
 981              		.loc 1 487 0
 982 01aa 1A78     		ldrb	r2, [r3]	@ zero_extendqisi2
 983              	.LVL37:
 488:.\Generated_Source\PSoC5/cyPm.c ****     if(cyPmClockBackup.clkBusDiv != clkBusDivTmp)
 984              		.loc 1 488 0
 985 01ac 013B     		subs	r3, r3, #1
 986 01ae 1B78     		ldrb	r3, [r3]	@ zero_extendqisi2
 987              	.LVL38:
 489:.\Generated_Source\PSoC5/cyPm.c ****     {
 988              		.loc 1 489 0
 989 01b0 43EA0223 		orr	r3, r3, r2, lsl #8
 990              	.LVL39:
ARM GAS  C:\Users\PIET~1.COU\AppData\Local\Temp\ccUpISSh.s 			page 54


 991 01b4 9842     		cmp	r0, r3
 992 01b6 01D0     		beq	.L75
 491:.\Generated_Source\PSoC5/cyPm.c ****     }
 993              		.loc 1 491 0
 994 01b8 FFF7FEFF 		bl	CyBusClk_SetDivider
 995              	.LVL40:
 996              	.L75:
 495:.\Generated_Source\PSoC5/cyPm.c ****                            cyPmClockBackup.flashWaitCycles);
 997              		.loc 1 495 0
 998 01bc 1149     		ldr	r1, .L90+36
 999 01be 0B78     		ldrb	r3, [r1]	@ zero_extendqisi2
 1000 01c0 03F03F02 		and	r2, r3, #63
 1001 01c4 94F83530 		ldrb	r3, [r4, #53]	@ zero_extendqisi2
 1002 01c8 1343     		orrs	r3, r3, r2
 1003 01ca 0B70     		strb	r3, [r1]
 499:.\Generated_Source\PSoC5/cyPm.c ****     CY_PM_ACT_CFG2_REG = cyPmClockBackup.enClkD;
 1004              		.loc 1 499 0
 1005 01cc 94F83020 		ldrb	r2, [r4, #48]	@ zero_extendqisi2
 1006 01d0 0D4B     		ldr	r3, .L90+40
 1007 01d2 1A70     		strb	r2, [r3]
 500:.\Generated_Source\PSoC5/cyPm.c **** }
 1008              		.loc 1 500 0
 1009 01d4 94F83120 		ldrb	r2, [r4, #49]	@ zero_extendqisi2
 1010 01d8 5A70     		strb	r2, [r3, #1]
 501:.\Generated_Source\PSoC5/cyPm.c **** 
 1011              		.loc 1 501 0
 1012 01da 03B0     		add	sp, sp, #12
 1013              		.cfi_def_cfa_offset 20
 1014              		@ sp needed
 1015 01dc F0BD     		pop	{r4, r5, r6, r7, pc}
 1016              	.L91:
 1017 01de 00BF     		.align	2
 1018              	.L90:
 1019 01e0 00000000 		.word	.LANCHOR1
 1020 01e4 00000000 		.word	.LANCHOR0
 1021 01e8 00420040 		.word	1073758720
 1022 01ec 0B400040 		.word	1073758219
 1023 01f0 10420040 		.word	1073758736
 1024 01f4 04400040 		.word	1073758212
 1025 01f8 A0430040 		.word	1073759136
 1026 01fc 25420040 		.word	1073758757
 1027 0200 07400040 		.word	1073758215
 1028 0204 00480040 		.word	1073760256
 1029 0208 A1430040 		.word	1073759137
 1030              		.cfi_endproc
 1031              	.LFE64:
 1032              		.size	CyPmRestoreClocks, .-CyPmRestoreClocks
 1033              		.section	.text.CyPmAltAct,"ax",%progbits
 1034              		.align	1
 1035              		.global	CyPmAltAct
 1036              		.thumb
 1037              		.thumb_func
 1038              		.type	CyPmAltAct, %function
 1039              	CyPmAltAct:
 1040              	.LFB65:
 646:.\Generated_Source\PSoC5/cyPm.c ****     #if(CY_PSOC5)
 1041              		.loc 1 646 0
ARM GAS  C:\Users\PIET~1.COU\AppData\Local\Temp\ccUpISSh.s 			page 55


 1042              		.cfi_startproc
 1043              		@ args = 0, pretend = 0, frame = 0
 1044              		@ frame_needed = 0, uses_anonymous_args = 0
 1045              	.LVL41:
 1046 0000 30B5     		push	{r4, r5, lr}
 1047              		.cfi_def_cfa_offset 12
 1048              		.cfi_offset 4, -12
 1049              		.cfi_offset 5, -8
 1050              		.cfi_offset 14, -4
 697:.\Generated_Source\PSoC5/cyPm.c ****     CY_PM_WAKEUP_CFG0_REG = (uint8) (wakeupSource >> 4u);
 1051              		.loc 1 697 0
 1052 0002 124D     		ldr	r5, .L93
 1053 0004 124B     		ldr	r3, .L93+4
 1054 0006 2A78     		ldrb	r2, [r5]	@ zero_extendqisi2
 701:.\Generated_Source\PSoC5/cyPm.c ****     CY_PM_WAKEUP_CFG1_REG = (((uint8) wakeupSource) & CY_PM_WAKEUP_SRC_CMPS_MASK);
 1055              		.loc 1 701 0
 1056 0008 124C     		ldr	r4, .L93+8
 697:.\Generated_Source\PSoC5/cyPm.c ****     CY_PM_WAKEUP_CFG0_REG = (uint8) (wakeupSource >> 4u);
 1057              		.loc 1 697 0
 1058 000a 1A71     		strb	r2, [r3, #4]
 698:.\Generated_Source\PSoC5/cyPm.c **** 
 1059              		.loc 1 698 0
 1060 000c C1F30712 		ubfx	r2, r1, #4, #8
 1061 0010 2A70     		strb	r2, [r5]
 701:.\Generated_Source\PSoC5/cyPm.c ****     CY_PM_WAKEUP_CFG1_REG = (((uint8) wakeupSource) & CY_PM_WAKEUP_SRC_CMPS_MASK);
 1062              		.loc 1 701 0
 1063 0012 2278     		ldrb	r2, [r4]	@ zero_extendqisi2
 705:.\Generated_Source\PSoC5/cyPm.c ****     CY_PM_WAKEUP_CFG2_REG = ((uint8) ((wakeupSource >> 12u) & 0x01u));
 1064              		.loc 1 705 0
 1065 0014 1048     		ldr	r0, .L93+12
 1066              	.LVL42:
 701:.\Generated_Source\PSoC5/cyPm.c ****     CY_PM_WAKEUP_CFG1_REG = (((uint8) wakeupSource) & CY_PM_WAKEUP_SRC_CMPS_MASK);
 1067              		.loc 1 701 0
 1068 0016 5A71     		strb	r2, [r3, #5]
 702:.\Generated_Source\PSoC5/cyPm.c **** 
 1069              		.loc 1 702 0
 1070 0018 01F00F02 		and	r2, r1, #15
 1071 001c 2270     		strb	r2, [r4]
 705:.\Generated_Source\PSoC5/cyPm.c ****     CY_PM_WAKEUP_CFG2_REG = ((uint8) ((wakeupSource >> 12u) & 0x01u));
 1072              		.loc 1 705 0
 1073 001e 0278     		ldrb	r2, [r0]	@ zero_extendqisi2
 706:.\Generated_Source\PSoC5/cyPm.c **** 
 1074              		.loc 1 706 0
 1075 0020 C1F30031 		ubfx	r1, r1, #12, #1
 1076              	.LVL43:
 705:.\Generated_Source\PSoC5/cyPm.c ****     CY_PM_WAKEUP_CFG2_REG = ((uint8) ((wakeupSource >> 12u) & 0x01u));
 1077              		.loc 1 705 0
 1078 0024 9A71     		strb	r2, [r3, #6]
 706:.\Generated_Source\PSoC5/cyPm.c **** 
 1079              		.loc 1 706 0
 1080 0026 0170     		strb	r1, [r0]
 710:.\Generated_Source\PSoC5/cyPm.c **** 
 1081              		.loc 1 710 0
 1082 0028 0C49     		ldr	r1, .L93+16
 1083 002a 0A78     		ldrb	r2, [r1]	@ zero_extendqisi2
 1084 002c 02F0F802 		and	r2, r2, #248
 1085 0030 42F00102 		orr	r2, r2, #1
ARM GAS  C:\Users\PIET~1.COU\AppData\Local\Temp\ccUpISSh.s 			page 56


 1086 0034 0A70     		strb	r2, [r1]
 713:.\Generated_Source\PSoC5/cyPm.c **** 
 1087              		.loc 1 713 0
 1088 0036 0A78     		ldrb	r2, [r1]	@ zero_extendqisi2
 716:.\Generated_Source\PSoC5/cyPm.c ****     CY_NOP;
 1089              		.loc 1 716 0
 1090              	@ 716 ".\Generated_Source\PSoC5\cyPm.c" 1
 1091 0038 00BF     		NOP
 1092              	
 1093              	@ 0 "" 2
 717:.\Generated_Source\PSoC5/cyPm.c **** 
 1094              		.loc 1 717 0
 1095              	@ 717 ".\Generated_Source\PSoC5\cyPm.c" 1
 1096 003a 00BF     		NOP
 1097              	
 1098              	@ 0 "" 2
 720:.\Generated_Source\PSoC5/cyPm.c **** 
 1099              		.loc 1 720 0
 1100              	@ 720 ".\Generated_Source\PSoC5\cyPm.c" 1
 1101 003c 30BF     		WFI 
 1102              	
 1103              	@ 0 "" 2
 725:.\Generated_Source\PSoC5/cyPm.c ****     CY_PM_WAKEUP_CFG1_REG = cyPmBackup.wakeupCfg1;
 1104              		.loc 1 725 0
 1105              		.thumb
 1106 003e 1A79     		ldrb	r2, [r3, #4]	@ zero_extendqisi2
 1107 0040 2A70     		strb	r2, [r5]
 726:.\Generated_Source\PSoC5/cyPm.c ****     CY_PM_WAKEUP_CFG2_REG = cyPmBackup.wakeupCfg2;
 1108              		.loc 1 726 0
 1109 0042 5A79     		ldrb	r2, [r3, #5]	@ zero_extendqisi2
 1110 0044 2270     		strb	r2, [r4]
 727:.\Generated_Source\PSoC5/cyPm.c **** }
 1111              		.loc 1 727 0
 1112 0046 9B79     		ldrb	r3, [r3, #6]	@ zero_extendqisi2
 1113 0048 0370     		strb	r3, [r0]
 1114 004a 30BD     		pop	{r4, r5, pc}
 1115              	.L94:
 1116              		.align	2
 1117              	.L93:
 1118 004c 98430040 		.word	1073759128
 1119 0050 00000000 		.word	.LANCHOR0
 1120 0054 99430040 		.word	1073759129
 1121 0058 9A430040 		.word	1073759130
 1122 005c 93430040 		.word	1073759123
 1123              		.cfi_endproc
 1124              	.LFE65:
 1125              		.size	CyPmAltAct, .-CyPmAltAct
 1126              		.section	.text.CyPmSleep,"ax",%progbits
 1127              		.align	1
 1128              		.global	CyPmSleep
 1129              		.thumb
 1130              		.thumb_func
 1131              		.type	CyPmSleep, %function
 1132              	CyPmSleep:
 1133              	.LFB66:
 850:.\Generated_Source\PSoC5/cyPm.c ****     uint8 interruptState;
 1134              		.loc 1 850 0
ARM GAS  C:\Users\PIET~1.COU\AppData\Local\Temp\ccUpISSh.s 			page 57


 1135              		.cfi_startproc
 1136              		@ args = 0, pretend = 0, frame = 0
 1137              		@ frame_needed = 0, uses_anonymous_args = 0
 1138              	.LVL44:
 1139 0000 2DE9F047 		push	{r4, r5, r6, r7, r8, r9, r10, lr}
 1140              		.cfi_def_cfa_offset 32
 1141              		.cfi_offset 4, -32
 1142              		.cfi_offset 5, -28
 1143              		.cfi_offset 6, -24
 1144              		.cfi_offset 7, -20
 1145              		.cfi_offset 8, -16
 1146              		.cfi_offset 9, -12
 1147              		.cfi_offset 10, -8
 1148              		.cfi_offset 14, -4
 850:.\Generated_Source\PSoC5/cyPm.c ****     uint8 interruptState;
 1149              		.loc 1 850 0
 1150 0004 0F46     		mov	r7, r1
 854:.\Generated_Source\PSoC5/cyPm.c **** 
 1151              		.loc 1 854 0
 1152 0006 FFF7FEFF 		bl	CyEnterCriticalSection
 1153              	.LVL45:
 863:.\Generated_Source\PSoC5/cyPm.c ****     {
 1154              		.loc 1 863 0
 1155 000a 304A     		ldr	r2, .L107
 854:.\Generated_Source\PSoC5/cyPm.c **** 
 1156              		.loc 1 854 0
 1157 000c 8046     		mov	r8, r0
 1158              	.LVL46:
 863:.\Generated_Source\PSoC5/cyPm.c ****     {
 1159              		.loc 1 863 0
 1160 000e 1378     		ldrb	r3, [r2]	@ zero_extendqisi2
 1161 0010 9146     		mov	r9, r2
 1162 0012 03F00803 		and	r3, r3, #8
 1163 0016 03F0FF0A 		and	r10, r3, #255
 1164 001a 002B     		cmp	r3, #0
 1165 001c 52D1     		bne	.L105
 866:.\Generated_Source\PSoC5/cyPm.c ****     }
 1166              		.loc 1 866 0
 1167 001e 92F8F032 		ldrb	r3, [r2, #752]	@ zero_extendqisi2
 976:.\Generated_Source\PSoC5/cyPm.c ****     CY_PM_WAKEUP_CFG0_REG = (uint8) (wakeupSource >> 4u);
 1168              		.loc 1 976 0
 1169 0022 2B4C     		ldr	r4, .L107+4
 866:.\Generated_Source\PSoC5/cyPm.c ****     }
 1170              		.loc 1 866 0
 1171 0024 03F01F03 		and	r3, r3, #31
 1172 0028 82F8F032 		strb	r3, [r2, #752]
 945:.\Generated_Source\PSoC5/cyPm.c **** 
 1173              		.loc 1 945 0
 1174 002c FFF7FEFF 		bl	CyPmHibSlpSaveSet
 1175              	.LVL47:
 976:.\Generated_Source\PSoC5/cyPm.c ****     CY_PM_WAKEUP_CFG0_REG = (uint8) (wakeupSource >> 4u);
 1176              		.loc 1 976 0
 1177 0030 284A     		ldr	r2, .L107+8
 980:.\Generated_Source\PSoC5/cyPm.c ****     CY_PM_WAKEUP_CFG1_REG = (((uint8) wakeupSource) & CY_PM_WAKEUP_SRC_CMPS_MASK);
 1178              		.loc 1 980 0
 1179 0032 294E     		ldr	r6, .L107+12
 976:.\Generated_Source\PSoC5/cyPm.c ****     CY_PM_WAKEUP_CFG0_REG = (uint8) (wakeupSource >> 4u);
ARM GAS  C:\Users\PIET~1.COU\AppData\Local\Temp\ccUpISSh.s 			page 58


 1180              		.loc 1 976 0
 1181 0034 1378     		ldrb	r3, [r2]	@ zero_extendqisi2
 984:.\Generated_Source\PSoC5/cyPm.c ****     CY_PM_WAKEUP_CFG2_REG = ((uint8) ((wakeupSource >> 12u) & 0x01u));
 1182              		.loc 1 984 0
 1183 0036 294D     		ldr	r5, .L107+16
 976:.\Generated_Source\PSoC5/cyPm.c ****     CY_PM_WAKEUP_CFG0_REG = (uint8) (wakeupSource >> 4u);
 1184              		.loc 1 976 0
 1185 0038 2371     		strb	r3, [r4, #4]
 977:.\Generated_Source\PSoC5/cyPm.c **** 
 1186              		.loc 1 977 0
 1187 003a C7F30713 		ubfx	r3, r7, #4, #8
 1188 003e 1370     		strb	r3, [r2]
 980:.\Generated_Source\PSoC5/cyPm.c ****     CY_PM_WAKEUP_CFG1_REG = (((uint8) wakeupSource) & CY_PM_WAKEUP_SRC_CMPS_MASK);
 1189              		.loc 1 980 0
 1190 0040 3378     		ldrb	r3, [r6]	@ zero_extendqisi2
 1191 0042 6371     		strb	r3, [r4, #5]
 981:.\Generated_Source\PSoC5/cyPm.c **** 
 1192              		.loc 1 981 0
 1193 0044 07F00F03 		and	r3, r7, #15
 1194 0048 3370     		strb	r3, [r6]
 984:.\Generated_Source\PSoC5/cyPm.c ****     CY_PM_WAKEUP_CFG2_REG = ((uint8) ((wakeupSource >> 12u) & 0x01u));
 1195              		.loc 1 984 0
 1196 004a 2B78     		ldrb	r3, [r5]	@ zero_extendqisi2
 985:.\Generated_Source\PSoC5/cyPm.c **** 
 1197              		.loc 1 985 0
 1198 004c C7F30037 		ubfx	r7, r7, #12, #1
 984:.\Generated_Source\PSoC5/cyPm.c ****     CY_PM_WAKEUP_CFG2_REG = ((uint8) ((wakeupSource >> 12u) & 0x01u));
 1199              		.loc 1 984 0
 1200 0050 A371     		strb	r3, [r4, #6]
1001:.\Generated_Source\PSoC5/cyPm.c ****     {
 1201              		.loc 1 1001 0
 1202 0052 234B     		ldr	r3, .L107+20
 985:.\Generated_Source\PSoC5/cyPm.c **** 
 1203              		.loc 1 985 0
 1204 0054 2F70     		strb	r7, [r5]
1001:.\Generated_Source\PSoC5/cyPm.c ****     {
 1205              		.loc 1 1001 0
 1206 0056 1978     		ldrb	r1, [r3]	@ zero_extendqisi2
 1207 0058 1746     		mov	r7, r2
 1208 005a 11F0070F 		tst	r1, #7
 1209 005e 03D1     		bne	.L106
1004:.\Generated_Source\PSoC5/cyPm.c ****     }
 1210              		.loc 1 1004 0
 1211 0060 0123     		movs	r3, #1
 1212 0062 84F82D30 		strb	r3, [r4, #45]
 1213 0066 0AE0     		b	.L99
 1214              	.L106:
1009:.\Generated_Source\PSoC5/cyPm.c **** 
 1215              		.loc 1 1009 0
 1216 0068 84F82DA0 		strb	r10, [r4, #45]
1012:.\Generated_Source\PSoC5/cyPm.c **** 
 1217              		.loc 1 1012 0
 1218 006c 1A78     		ldrb	r2, [r3]	@ zero_extendqisi2
 1219 006e 02F00702 		and	r2, r2, #7
 1220 0072 84F82C20 		strb	r2, [r4, #44]
1015:.\Generated_Source\PSoC5/cyPm.c ****     }
 1221              		.loc 1 1015 0
ARM GAS  C:\Users\PIET~1.COU\AppData\Local\Temp\ccUpISSh.s 			page 59


 1222 0076 1A78     		ldrb	r2, [r3]	@ zero_extendqisi2
 1223 0078 02F0F802 		and	r2, r2, #248
 1224 007c 1A70     		strb	r2, [r3]
 1225              	.L99:
1019:.\Generated_Source\PSoC5/cyPm.c **** 
 1226              		.loc 1 1019 0
 1227 007e 99F80030 		ldrb	r3, [r9]	@ zero_extendqisi2
 1228 0082 03F0F803 		and	r3, r3, #248
 1229 0086 43F00303 		orr	r3, r3, #3
 1230 008a 89F80030 		strb	r3, [r9]
1022:.\Generated_Source\PSoC5/cyPm.c **** 
 1231              		.loc 1 1022 0
 1232 008e 99F80030 		ldrb	r3, [r9]	@ zero_extendqisi2
1025:.\Generated_Source\PSoC5/cyPm.c ****     CY_NOP;
 1233              		.loc 1 1025 0
 1234              	@ 1025 ".\Generated_Source\PSoC5\cyPm.c" 1
 1235 0092 00BF     		NOP
 1236              	
 1237              	@ 0 "" 2
1026:.\Generated_Source\PSoC5/cyPm.c **** 
 1238              		.loc 1 1026 0
 1239              	@ 1026 ".\Generated_Source\PSoC5\cyPm.c" 1
 1240 0094 00BF     		NOP
 1241              	
 1242              	@ 0 "" 2
1029:.\Generated_Source\PSoC5/cyPm.c **** 
 1243              		.loc 1 1029 0
 1244              	@ 1029 ".\Generated_Source\PSoC5\cyPm.c" 1
 1245 0096 30BF     		WFI 
 1246              	
 1247              	@ 0 "" 2
1034:.\Generated_Source\PSoC5/cyPm.c ****     {
 1248              		.loc 1 1034 0
 1249              		.thumb
 1250 0098 94F82D30 		ldrb	r3, [r4, #45]	@ zero_extendqisi2
 1251 009c 012B     		cmp	r3, #1
 1252 009e 08D0     		beq	.L100
1036:.\Generated_Source\PSoC5/cyPm.c ****                                     cyPmBackup.imoActFreq;
 1253              		.loc 1 1036 0
 1254 00a0 0F49     		ldr	r1, .L107+20
 1255 00a2 0B78     		ldrb	r3, [r1]	@ zero_extendqisi2
 1256 00a4 03F0F802 		and	r2, r3, #248
 1257 00a8 094B     		ldr	r3, .L107+4
 1258 00aa 93F82C30 		ldrb	r3, [r3, #44]	@ zero_extendqisi2
 1259 00ae 1343     		orrs	r3, r3, r2
 1260 00b0 0B70     		strb	r3, [r1]
 1261              	.L100:
1054:.\Generated_Source\PSoC5/cyPm.c **** 
 1262              		.loc 1 1054 0
 1263 00b2 FFF7FEFF 		bl	CyPmHibSlpRestore
 1264              	.LVL48:
1081:.\Generated_Source\PSoC5/cyPm.c **** }
 1265              		.loc 1 1081 0
 1266 00b6 4046     		mov	r0, r8
1076:.\Generated_Source\PSoC5/cyPm.c ****     CY_PM_WAKEUP_CFG1_REG = cyPmBackup.wakeupCfg1;
 1267              		.loc 1 1076 0
 1268 00b8 2379     		ldrb	r3, [r4, #4]	@ zero_extendqisi2
ARM GAS  C:\Users\PIET~1.COU\AppData\Local\Temp\ccUpISSh.s 			page 60


 1269 00ba 3B70     		strb	r3, [r7]
1077:.\Generated_Source\PSoC5/cyPm.c ****     CY_PM_WAKEUP_CFG2_REG = cyPmBackup.wakeupCfg2;
 1270              		.loc 1 1077 0
 1271 00bc 6379     		ldrb	r3, [r4, #5]	@ zero_extendqisi2
 1272 00be 3370     		strb	r3, [r6]
1078:.\Generated_Source\PSoC5/cyPm.c **** 
 1273              		.loc 1 1078 0
 1274 00c0 A379     		ldrb	r3, [r4, #6]	@ zero_extendqisi2
 1275 00c2 2B70     		strb	r3, [r5]
 1276              	.L105:
1082:.\Generated_Source\PSoC5/cyPm.c **** 
 1277              		.loc 1 1082 0
 1278 00c4 BDE8F047 		pop	{r4, r5, r6, r7, r8, r9, r10, lr}
 1279              		.cfi_restore 14
 1280              		.cfi_restore 10
 1281              		.cfi_restore 9
 1282              		.cfi_restore 8
 1283              		.cfi_restore 7
 1284              		.cfi_restore 6
 1285              		.cfi_restore 5
 1286              		.cfi_restore 4
 1287              		.cfi_def_cfa_offset 0
1081:.\Generated_Source\PSoC5/cyPm.c **** }
 1288              		.loc 1 1081 0
 1289 00c8 FFF7FEBF 		b	CyExitCriticalSection
 1290              	.LVL49:
 1291              	.L108:
 1292              		.align	2
 1293              	.L107:
 1294 00cc 93430040 		.word	1073759123
 1295 00d0 00000000 		.word	.LANCHOR0
 1296 00d4 98430040 		.word	1073759128
 1297 00d8 99430040 		.word	1073759129
 1298 00dc 9A430040 		.word	1073759130
 1299 00e0 00420040 		.word	1073758720
 1300              		.cfi_endproc
 1301              	.LFE66:
 1302              		.size	CyPmSleep, .-CyPmSleep
 1303              		.section	.text.CyPmHibernateEx,"ax",%progbits
 1304              		.align	1
 1305              		.global	CyPmHibernateEx
 1306              		.thumb
 1307              		.thumb_func
 1308              		.type	CyPmHibernateEx, %function
 1309              	CyPmHibernateEx:
 1310              	.LFB68:
1194:.\Generated_Source\PSoC5/cyPm.c ****     uint8 interruptState;
 1311              		.loc 1 1194 0
 1312              		.cfi_startproc
 1313              		@ args = 0, pretend = 0, frame = 8
 1314              		@ frame_needed = 0, uses_anonymous_args = 0
 1315              	.LVL50:
 1316 0000 2DE9F74F 		push	{r0, r1, r2, r4, r5, r6, r7, r8, r9, r10, fp, lr}
 1317              		.cfi_def_cfa_offset 48
 1318              		.cfi_offset 4, -36
 1319              		.cfi_offset 5, -32
 1320              		.cfi_offset 6, -28
ARM GAS  C:\Users\PIET~1.COU\AppData\Local\Temp\ccUpISSh.s 			page 61


 1321              		.cfi_offset 7, -24
 1322              		.cfi_offset 8, -20
 1323              		.cfi_offset 9, -16
 1324              		.cfi_offset 10, -12
 1325              		.cfi_offset 11, -8
 1326              		.cfi_offset 14, -4
1194:.\Generated_Source\PSoC5/cyPm.c ****     uint8 interruptState;
 1327              		.loc 1 1194 0
 1328 0004 0646     		mov	r6, r0
1198:.\Generated_Source\PSoC5/cyPm.c **** 
 1329              		.loc 1 1198 0
 1330 0006 FFF7FEFF 		bl	CyEnterCriticalSection
 1331              	.LVL51:
1206:.\Generated_Source\PSoC5/cyPm.c ****         {
 1332              		.loc 1 1206 0
 1333 000a 8B4D     		ldr	r5, .L139
1198:.\Generated_Source\PSoC5/cyPm.c **** 
 1334              		.loc 1 1198 0
 1335 000c 0190     		str	r0, [sp, #4]
 1336              	.LVL52:
1206:.\Generated_Source\PSoC5/cyPm.c ****         {
 1337              		.loc 1 1206 0
 1338 000e 2B78     		ldrb	r3, [r5]	@ zero_extendqisi2
 1339 0010 1907     		lsls	r1, r3, #28
 1340 0012 00F10B81 		bmi	.L137
1209:.\Generated_Source\PSoC5/cyPm.c ****         }
 1341              		.loc 1 1209 0
 1342 0016 894C     		ldr	r4, .L139+4
 1343              	.LBB10:
 1344              	.LBB11:
1390:.\Generated_Source\PSoC5/cyPm.c **** 
 1345              		.loc 1 1390 0
 1346 0018 0120     		movs	r0, #1
 1347              	.LBE11:
 1348              	.LBE10:
1209:.\Generated_Source\PSoC5/cyPm.c ****         }
 1349              		.loc 1 1209 0
 1350 001a 2378     		ldrb	r3, [r4]	@ zero_extendqisi2
 1351 001c 03F01F03 		and	r3, r3, #31
 1352 0020 2370     		strb	r3, [r4]
 1353              	.LVL53:
 1354              	.LBB17:
 1355              	.LBB14:
1371:.\Generated_Source\PSoC5/cyPm.c ****     {
 1356              		.loc 1 1371 0
 1357 0022 874B     		ldr	r3, .L139+8
 1358 0024 1A78     		ldrb	r2, [r3]	@ zero_extendqisi2
 1359 0026 5207     		lsls	r2, r2, #29
1385:.\Generated_Source\PSoC5/cyPm.c ****     }
 1360              		.loc 1 1385 0
 1361 0028 42BF     		ittt	mi
 1362 002a 1A78     		ldrbmi	r2, [r3]	@ zero_extendqisi2
 1363 002c 02F0FB02 		andmi	r2, r2, #251
 1364 0030 1A70     		strbmi	r2, [r3]
1390:.\Generated_Source\PSoC5/cyPm.c **** 
 1365              		.loc 1 1390 0
 1366 0032 FFF7FEFF 		bl	CyILO_SetPowerMode
ARM GAS  C:\Users\PIET~1.COU\AppData\Local\Temp\ccUpISSh.s 			page 62


 1367              	.LVL54:
 1368 0036 834B     		ldr	r3, .L139+12
1393:.\Generated_Source\PSoC5/cyPm.c ****                                 CY_PM_DISABLED : CY_PM_ENABLED;
 1369              		.loc 1 1393 0
 1370 0038 8349     		ldr	r1, .L139+16
1390:.\Generated_Source\PSoC5/cyPm.c **** 
 1371              		.loc 1 1390 0
 1372 003a 1870     		strb	r0, [r3]
1393:.\Generated_Source\PSoC5/cyPm.c ****                                 CY_PM_DISABLED : CY_PM_ENABLED;
 1373              		.loc 1 1393 0
 1374 003c 0A78     		ldrb	r2, [r1]	@ zero_extendqisi2
 1375 003e 9B46     		mov	fp, r3
1394:.\Generated_Source\PSoC5/cyPm.c **** 
 1376              		.loc 1 1394 0
 1377 0040 C2F34002 		ubfx	r2, r2, #1, #1
1393:.\Generated_Source\PSoC5/cyPm.c ****                                 CY_PM_DISABLED : CY_PM_ENABLED;
 1378              		.loc 1 1393 0
 1379 0044 5A70     		strb	r2, [r3, #1]
1397:.\Generated_Source\PSoC5/cyPm.c ****                                 CY_PM_DISABLED : CY_PM_ENABLED;
 1380              		.loc 1 1397 0
 1381 0046 0A78     		ldrb	r2, [r1]	@ zero_extendqisi2
1402:.\Generated_Source\PSoC5/cyPm.c ****     {
 1382              		.loc 1 1402 0
 1383 0048 01F28331 		addw	r1, r1, #899
1398:.\Generated_Source\PSoC5/cyPm.c **** 
 1384              		.loc 1 1398 0
 1385 004c C2F38002 		ubfx	r2, r2, #2, #1
1397:.\Generated_Source\PSoC5/cyPm.c ****                                 CY_PM_DISABLED : CY_PM_ENABLED;
 1386              		.loc 1 1397 0
 1387 0050 9A70     		strb	r2, [r3, #2]
1402:.\Generated_Source\PSoC5/cyPm.c ****     {
 1388              		.loc 1 1402 0
 1389 0052 2278     		ldrb	r2, [r4]	@ zero_extendqisi2
 1390 0054 02F01002 		and	r2, r2, #16
 1391 0058 02F0FF00 		and	r0, r2, #255
 1392 005c 2AB9     		cbnz	r2, .L112
1405:.\Generated_Source\PSoC5/cyPm.c ****         CY_PM_PWRSYS_SLP_TR_REG |= CY_PM_PWRSYS_SLP_TR_BYPASS;
 1393              		.loc 1 1405 0
 1394 005e D870     		strb	r0, [r3, #3]
1406:.\Generated_Source\PSoC5/cyPm.c ****     }
 1395              		.loc 1 1406 0
 1396 0060 0A78     		ldrb	r2, [r1]	@ zero_extendqisi2
 1397 0062 42F01002 		orr	r2, r2, #16
 1398 0066 0A70     		strb	r2, [r1]
 1399 0068 01E0     		b	.L113
 1400              	.L112:
1410:.\Generated_Source\PSoC5/cyPm.c ****     }
 1401              		.loc 1 1410 0
 1402 006a 0122     		movs	r2, #1
 1403 006c DA70     		strb	r2, [r3, #3]
 1404              	.L113:
 1405              	.LBB12:
 1406              	.LBB13:
1852:.\Generated_Source\PSoC5/cyPm.c ****     }
1853:.\Generated_Source\PSoC5/cyPm.c **** }
1854:.\Generated_Source\PSoC5/cyPm.c **** 
1855:.\Generated_Source\PSoC5/cyPm.c **** 
ARM GAS  C:\Users\PIET~1.COU\AppData\Local\Temp\ccUpISSh.s 			page 63


1856:.\Generated_Source\PSoC5/cyPm.c **** /*******************************************************************************
1857:.\Generated_Source\PSoC5/cyPm.c **** * Function Name: CyPmHviLviSaveDisable
1858:.\Generated_Source\PSoC5/cyPm.c **** ********************************************************************************
1859:.\Generated_Source\PSoC5/cyPm.c **** *
1860:.\Generated_Source\PSoC5/cyPm.c **** * Summary:
1861:.\Generated_Source\PSoC5/cyPm.c **** *  Saves analog and digital LVI and HVI configuration and disables them.
1862:.\Generated_Source\PSoC5/cyPm.c **** *
1863:.\Generated_Source\PSoC5/cyPm.c **** * Parameters:
1864:.\Generated_Source\PSoC5/cyPm.c **** *  None
1865:.\Generated_Source\PSoC5/cyPm.c **** *
1866:.\Generated_Source\PSoC5/cyPm.c **** * Return:
1867:.\Generated_Source\PSoC5/cyPm.c **** *  None
1868:.\Generated_Source\PSoC5/cyPm.c **** *
1869:.\Generated_Source\PSoC5/cyPm.c **** * Reentrant:
1870:.\Generated_Source\PSoC5/cyPm.c **** *  No
1871:.\Generated_Source\PSoC5/cyPm.c **** *
1872:.\Generated_Source\PSoC5/cyPm.c **** *******************************************************************************/
1873:.\Generated_Source\PSoC5/cyPm.c **** static void CyPmHviLviSaveDisable(void) 
1874:.\Generated_Source\PSoC5/cyPm.c **** {
1875:.\Generated_Source\PSoC5/cyPm.c ****     if(0u != (CY_VD_LVI_HVI_CONTROL_REG & CY_VD_LVID_EN))
 1407              		.loc 1 1875 0
 1408 006e 774F     		ldr	r7, .L139+20
 1409 0070 3A78     		ldrb	r2, [r7]	@ zero_extendqisi2
 1410 0072 12F00102 		ands	r2, r2, #1
 1411 0076 11D0     		beq	.L114
1876:.\Generated_Source\PSoC5/cyPm.c ****     {
1877:.\Generated_Source\PSoC5/cyPm.c ****         cyPmBackup.lvidEn = CY_PM_ENABLED;
 1412              		.loc 1 1877 0
 1413 0078 0122     		movs	r2, #1
 1414 007a 8BF82520 		strb	r2, [fp, #37]
1878:.\Generated_Source\PSoC5/cyPm.c ****         cyPmBackup.lvidTrip = CY_VD_LVI_TRIP_REG & CY_VD_LVI_TRIP_LVID_MASK;
 1415              		.loc 1 1878 0
 1416 007e 744A     		ldr	r2, .L139+24
 1417 0080 1278     		ldrb	r2, [r2]	@ zero_extendqisi2
 1418 0082 02F00F02 		and	r2, r2, #15
 1419 0086 8BF82620 		strb	r2, [fp, #38]
1879:.\Generated_Source\PSoC5/cyPm.c **** 
1880:.\Generated_Source\PSoC5/cyPm.c ****         /* Save state of reset device at specified Vddd threshold */
1881:.\Generated_Source\PSoC5/cyPm.c ****         cyPmBackup.lvidRst = (0u == (CY_VD_PRES_CONTROL_REG & CY_VD_PRESD_EN)) ? \
 1420              		.loc 1 1881 0
 1421 008a 724A     		ldr	r2, .L139+28
 1422 008c 1278     		ldrb	r2, [r2]	@ zero_extendqisi2
1882:.\Generated_Source\PSoC5/cyPm.c ****                              CY_PM_DISABLED : CY_PM_ENABLED;
 1423              		.loc 1 1882 0
 1424 008e C2F38012 		ubfx	r2, r2, #6, #1
1881:.\Generated_Source\PSoC5/cyPm.c ****                              CY_PM_DISABLED : CY_PM_ENABLED;
 1425              		.loc 1 1881 0
 1426 0092 8BF82A20 		strb	r2, [fp, #42]
1883:.\Generated_Source\PSoC5/cyPm.c **** 
1884:.\Generated_Source\PSoC5/cyPm.c ****         CyVdLvDigitDisable();
 1427              		.loc 1 1884 0
 1428 0096 FFF7FEFF 		bl	CyVdLvDigitDisable
 1429              	.LVL55:
 1430 009a 01E0     		b	.L115
 1431              	.L114:
1885:.\Generated_Source\PSoC5/cyPm.c ****     }
1886:.\Generated_Source\PSoC5/cyPm.c ****     else
ARM GAS  C:\Users\PIET~1.COU\AppData\Local\Temp\ccUpISSh.s 			page 64


1887:.\Generated_Source\PSoC5/cyPm.c ****     {
1888:.\Generated_Source\PSoC5/cyPm.c ****         cyPmBackup.lvidEn = CY_PM_DISABLED;
 1432              		.loc 1 1888 0
 1433 009c 8BF82520 		strb	r2, [fp, #37]
 1434              	.L115:
1889:.\Generated_Source\PSoC5/cyPm.c ****     }
1890:.\Generated_Source\PSoC5/cyPm.c **** 
1891:.\Generated_Source\PSoC5/cyPm.c ****     if(0u != (CY_VD_LVI_HVI_CONTROL_REG & CY_VD_LVIA_EN))
 1435              		.loc 1 1891 0
 1436 00a0 3A78     		ldrb	r2, [r7]	@ zero_extendqisi2
 1437 00a2 02F00202 		and	r2, r2, #2
 1438 00a6 02F0FF01 		and	r1, r2, #255
 1439 00aa 7AB1     		cbz	r2, .L116
1892:.\Generated_Source\PSoC5/cyPm.c ****     {
1893:.\Generated_Source\PSoC5/cyPm.c ****         cyPmBackup.lviaEn = CY_PM_ENABLED;
 1440              		.loc 1 1893 0
 1441 00ac 0122     		movs	r2, #1
 1442 00ae 8BF82720 		strb	r2, [fp, #39]
1894:.\Generated_Source\PSoC5/cyPm.c ****         cyPmBackup.lviaTrip = CY_VD_LVI_TRIP_REG >> 4u;
 1443              		.loc 1 1894 0
 1444 00b2 674A     		ldr	r2, .L139+24
 1445 00b4 1278     		ldrb	r2, [r2]	@ zero_extendqisi2
 1446 00b6 1209     		lsrs	r2, r2, #4
 1447 00b8 8BF82820 		strb	r2, [fp, #40]
1895:.\Generated_Source\PSoC5/cyPm.c **** 
1896:.\Generated_Source\PSoC5/cyPm.c ****         /* Save state of reset device at specified Vdda threshold */
1897:.\Generated_Source\PSoC5/cyPm.c ****         cyPmBackup.lviaRst = (0u == (CY_VD_PRES_CONTROL_REG & CY_VD_PRESA_EN)) ? \
 1448              		.loc 1 1897 0
 1449 00bc 654A     		ldr	r2, .L139+28
 1450 00be 1278     		ldrb	r2, [r2]	@ zero_extendqisi2
1898:.\Generated_Source\PSoC5/cyPm.c ****                              CY_PM_DISABLED : CY_PM_ENABLED;
 1451              		.loc 1 1898 0
 1452 00c0 D209     		lsrs	r2, r2, #7
1897:.\Generated_Source\PSoC5/cyPm.c ****                              CY_PM_DISABLED : CY_PM_ENABLED;
 1453              		.loc 1 1897 0
 1454 00c2 8BF82B20 		strb	r2, [fp, #43]
1899:.\Generated_Source\PSoC5/cyPm.c **** 
1900:.\Generated_Source\PSoC5/cyPm.c ****         CyVdLvAnalogDisable();
 1455              		.loc 1 1900 0
 1456 00c6 FFF7FEFF 		bl	CyVdLvAnalogDisable
 1457              	.LVL56:
 1458 00ca 01E0     		b	.L117
 1459              	.L116:
1901:.\Generated_Source\PSoC5/cyPm.c ****     }
1902:.\Generated_Source\PSoC5/cyPm.c ****     else
1903:.\Generated_Source\PSoC5/cyPm.c ****     {
1904:.\Generated_Source\PSoC5/cyPm.c ****         cyPmBackup.lviaEn = CY_PM_DISABLED;
 1460              		.loc 1 1904 0
 1461 00cc 8BF82710 		strb	r1, [fp, #39]
 1462              	.L117:
1905:.\Generated_Source\PSoC5/cyPm.c ****     }
1906:.\Generated_Source\PSoC5/cyPm.c **** 
1907:.\Generated_Source\PSoC5/cyPm.c ****     if(0u != (CY_VD_LVI_HVI_CONTROL_REG & CY_VD_HVIA_EN))
 1463              		.loc 1 1907 0
 1464 00d0 3A78     		ldrb	r2, [r7]	@ zero_extendqisi2
 1465 00d2 02F00402 		and	r2, r2, #4
 1466 00d6 02F0FF01 		and	r1, r2, #255
ARM GAS  C:\Users\PIET~1.COU\AppData\Local\Temp\ccUpISSh.s 			page 65


 1467 00da 2AB1     		cbz	r2, .L118
1908:.\Generated_Source\PSoC5/cyPm.c ****     {
1909:.\Generated_Source\PSoC5/cyPm.c ****         cyPmBackup.hviaEn = CY_PM_ENABLED;
 1468              		.loc 1 1909 0
 1469 00dc 0122     		movs	r2, #1
 1470 00de 8BF82920 		strb	r2, [fp, #41]
1910:.\Generated_Source\PSoC5/cyPm.c ****         CyVdHvAnalogDisable();
 1471              		.loc 1 1910 0
 1472 00e2 FFF7FEFF 		bl	CyVdHvAnalogDisable
 1473              	.LVL57:
 1474 00e6 01E0     		b	.L119
 1475              	.L118:
1911:.\Generated_Source\PSoC5/cyPm.c ****     }
1912:.\Generated_Source\PSoC5/cyPm.c ****     else
1913:.\Generated_Source\PSoC5/cyPm.c ****     {
1914:.\Generated_Source\PSoC5/cyPm.c ****         cyPmBackup.hviaEn = CY_PM_DISABLED;
 1476              		.loc 1 1914 0
 1477 00e8 8BF82910 		strb	r1, [fp, #41]
 1478              	.L119:
 1479              	.LBE13:
 1480              	.LBE12:
1431:.\Generated_Source\PSoC5/cyPm.c ****     cyPmBackup.wakeupTrim1 = CY_PM_PWRSYS_WAKE_TR1_REG;
 1481              		.loc 1 1431 0
 1482 00ec DFF878A1 		ldr	r10, .L139+48
1425:.\Generated_Source\PSoC5/cyPm.c **** 
 1483              		.loc 1 1425 0
 1484 00f0 FFF7FEFF 		bl	CyPmHibSlpSaveSet
 1485              	.LVL58:
1431:.\Generated_Source\PSoC5/cyPm.c ****     cyPmBackup.wakeupTrim1 = CY_PM_PWRSYS_WAKE_TR1_REG;
 1486              		.loc 1 1431 0
 1487 00f4 9AF80020 		ldrb	r2, [r10]	@ zero_extendqisi2
1432:.\Generated_Source\PSoC5/cyPm.c **** 
 1488              		.loc 1 1432 0
 1489 00f8 DFF87091 		ldr	r9, .L139+52
1431:.\Generated_Source\PSoC5/cyPm.c ****     cyPmBackup.wakeupTrim1 = CY_PM_PWRSYS_WAKE_TR1_REG;
 1490              		.loc 1 1431 0
 1491 00fc 8BF80720 		strb	r2, [fp, #7]
1432:.\Generated_Source\PSoC5/cyPm.c **** 
 1492              		.loc 1 1432 0
 1493 0100 99F80020 		ldrb	r2, [r9]	@ zero_extendqisi2
 1494              	.LBE14:
 1495              	.LBE17:
1227:.\Generated_Source\PSoC5/cyPm.c ****     CY_PM_WAKEUP_CFG0_REG = ((uint8) (wakeupSource >> 4u) & CY_PM_WAKEUP_PICU);
 1496              		.loc 1 1227 0
 1497 0104 544B     		ldr	r3, .L139+32
 1498              	.LBB18:
 1499              	.LBB15:
1432:.\Generated_Source\PSoC5/cyPm.c **** 
 1500              		.loc 1 1432 0
 1501 0106 8BF80820 		strb	r2, [fp, #8]
1434:.\Generated_Source\PSoC5/cyPm.c ****     CY_PM_PWRSYS_WAKE_TR1_REG = CY_PM_PWRSYS_WAKE_TR1;
 1502              		.loc 1 1434 0
 1503 010a FF22     		movs	r2, #255
 1504 010c 8AF80020 		strb	r2, [r10]
1435:.\Generated_Source\PSoC5/cyPm.c **** }
 1505              		.loc 1 1435 0
 1506 0110 B022     		movs	r2, #176
ARM GAS  C:\Users\PIET~1.COU\AppData\Local\Temp\ccUpISSh.s 			page 66


 1507 0112 89F80020 		strb	r2, [r9]
 1508              	.LBE15:
 1509              	.LBE18:
1227:.\Generated_Source\PSoC5/cyPm.c ****     CY_PM_WAKEUP_CFG0_REG = ((uint8) (wakeupSource >> 4u) & CY_PM_WAKEUP_PICU);
 1510              		.loc 1 1227 0
 1511 0116 1A78     		ldrb	r2, [r3]	@ zero_extendqisi2
1231:.\Generated_Source\PSoC5/cyPm.c ****     CY_PM_WAKEUP_CFG1_REG = (((uint8) wakeupSource) & CY_PM_WAKEUP_SRC_CMPS_MASK);
 1512              		.loc 1 1231 0
 1513 0118 504F     		ldr	r7, .L139+36
1227:.\Generated_Source\PSoC5/cyPm.c ****     CY_PM_WAKEUP_CFG0_REG = ((uint8) (wakeupSource >> 4u) & CY_PM_WAKEUP_PICU);
 1514              		.loc 1 1227 0
 1515 011a 8BF80420 		strb	r2, [fp, #4]
1228:.\Generated_Source\PSoC5/cyPm.c **** 
 1516              		.loc 1 1228 0
 1517 011e 3209     		lsrs	r2, r6, #4
 1518 0120 02F00402 		and	r2, r2, #4
 1519 0124 D2B2     		uxtb	r2, r2
 1520 0126 1A70     		strb	r2, [r3]
1231:.\Generated_Source\PSoC5/cyPm.c ****     CY_PM_WAKEUP_CFG1_REG = (((uint8) wakeupSource) & CY_PM_WAKEUP_SRC_CMPS_MASK);
 1521              		.loc 1 1231 0
 1522 0128 3A78     		ldrb	r2, [r7]	@ zero_extendqisi2
1232:.\Generated_Source\PSoC5/cyPm.c **** 
 1523              		.loc 1 1232 0
 1524 012a 06F00F06 		and	r6, r6, #15
1231:.\Generated_Source\PSoC5/cyPm.c ****     CY_PM_WAKEUP_CFG1_REG = (((uint8) wakeupSource) & CY_PM_WAKEUP_SRC_CMPS_MASK);
 1525              		.loc 1 1231 0
 1526 012e 8BF80520 		strb	r2, [fp, #5]
1232:.\Generated_Source\PSoC5/cyPm.c **** 
 1527              		.loc 1 1232 0
 1528 0132 3E70     		strb	r6, [r7]
1234:.\Generated_Source\PSoC5/cyPm.c ****     CY_PM_WAKEUP_CFG2_REG = 0x00u;
 1529              		.loc 1 1234 0
 1530 0134 4A4E     		ldr	r6, .L139+40
1235:.\Generated_Source\PSoC5/cyPm.c **** 
 1531              		.loc 1 1235 0
 1532 0136 0020     		movs	r0, #0
1234:.\Generated_Source\PSoC5/cyPm.c ****     CY_PM_WAKEUP_CFG2_REG = 0x00u;
 1533              		.loc 1 1234 0
 1534 0138 3278     		ldrb	r2, [r6]	@ zero_extendqisi2
 1535              	.LBB19:
 1536              	.LBB16:
1431:.\Generated_Source\PSoC5/cyPm.c ****     cyPmBackup.wakeupTrim1 = CY_PM_PWRSYS_WAKE_TR1_REG;
 1537              		.loc 1 1431 0
 1538 013a 4249     		ldr	r1, .L139+12
 1539              	.LBE16:
 1540              	.LBE19:
1234:.\Generated_Source\PSoC5/cyPm.c ****     CY_PM_WAKEUP_CFG2_REG = 0x00u;
 1541              		.loc 1 1234 0
 1542 013c 8BF80620 		strb	r2, [fp, #6]
1239:.\Generated_Source\PSoC5/cyPm.c ****     {
 1543              		.loc 1 1239 0
 1544 0140 484A     		ldr	r2, .L139+44
1235:.\Generated_Source\PSoC5/cyPm.c **** 
 1545              		.loc 1 1235 0
 1546 0142 3070     		strb	r0, [r6]
1239:.\Generated_Source\PSoC5/cyPm.c ****     {
 1547              		.loc 1 1239 0
ARM GAS  C:\Users\PIET~1.COU\AppData\Local\Temp\ccUpISSh.s 			page 67


 1548 0144 92F800E0 		ldrb	lr, [r2]	@ zero_extendqisi2
 1549 0148 9846     		mov	r8, r3
 1550 014a 1EF0070F 		tst	lr, #7
 1551 014e 03D1     		bne	.L138
1242:.\Generated_Source\PSoC5/cyPm.c ****     }
 1552              		.loc 1 1242 0
 1553 0150 0122     		movs	r2, #1
 1554 0152 81F82D20 		strb	r2, [r1, #45]
 1555 0156 0AE0     		b	.L122
 1556              	.L138:
1247:.\Generated_Source\PSoC5/cyPm.c **** 
 1557              		.loc 1 1247 0
 1558 0158 81F82D00 		strb	r0, [r1, #45]
1250:.\Generated_Source\PSoC5/cyPm.c **** 
 1559              		.loc 1 1250 0
 1560 015c 1078     		ldrb	r0, [r2]	@ zero_extendqisi2
 1561 015e 00F00700 		and	r0, r0, #7
 1562 0162 81F82C00 		strb	r0, [r1, #44]
1253:.\Generated_Source\PSoC5/cyPm.c ****     }
 1563              		.loc 1 1253 0
 1564 0166 1178     		ldrb	r1, [r2]	@ zero_extendqisi2
 1565 0168 01F0F801 		and	r1, r1, #248
 1566 016c 1170     		strb	r1, [r2]
 1567              	.L122:
1258:.\Generated_Source\PSoC5/cyPm.c **** 
 1568              		.loc 1 1258 0
 1569 016e 2A78     		ldrb	r2, [r5]	@ zero_extendqisi2
 1570 0170 02F0F802 		and	r2, r2, #248
 1571 0174 42F00402 		orr	r2, r2, #4
 1572 0178 2A70     		strb	r2, [r5]
1261:.\Generated_Source\PSoC5/cyPm.c **** 
 1573              		.loc 1 1261 0
 1574 017a 2A78     		ldrb	r2, [r5]	@ zero_extendqisi2
1264:.\Generated_Source\PSoC5/cyPm.c ****     CY_NOP;
 1575              		.loc 1 1264 0
 1576              	@ 1264 ".\Generated_Source\PSoC5\cyPm.c" 1
 1577 017c 00BF     		NOP
 1578              	
 1579              	@ 0 "" 2
1265:.\Generated_Source\PSoC5/cyPm.c **** 
 1580              		.loc 1 1265 0
 1581              	@ 1265 ".\Generated_Source\PSoC5\cyPm.c" 1
 1582 017e 00BF     		NOP
 1583              	
 1584              	@ 0 "" 2
1268:.\Generated_Source\PSoC5/cyPm.c **** 
 1585              		.loc 1 1268 0
 1586              	@ 1268 ".\Generated_Source\PSoC5\cyPm.c" 1
 1587 0180 30BF     		WFI 
 1588              	
 1589              	@ 0 "" 2
1275:.\Generated_Source\PSoC5/cyPm.c ****     {
 1590              		.loc 1 1275 0
 1591              		.thumb
 1592 0182 9BF82D20 		ldrb	r2, [fp, #45]	@ zero_extendqisi2
 1593 0186 012A     		cmp	r2, #1
 1594 0188 08D0     		beq	.L123
ARM GAS  C:\Users\PIET~1.COU\AppData\Local\Temp\ccUpISSh.s 			page 68


1277:.\Generated_Source\PSoC5/cyPm.c ****                                     cyPmBackup.imoActFreq;
 1595              		.loc 1 1277 0
 1596 018a 3648     		ldr	r0, .L139+44
 1597 018c 0278     		ldrb	r2, [r0]	@ zero_extendqisi2
 1598 018e 02F0F801 		and	r1, r2, #248
 1599 0192 2C4A     		ldr	r2, .L139+12
 1600 0194 92F82C20 		ldrb	r2, [r2, #44]	@ zero_extendqisi2
 1601 0198 0A43     		orrs	r2, r2, r1
 1602 019a 0270     		strb	r2, [r0]
 1603              	.L123:
 1604              	.LBB20:
 1605              	.LBB21:
 1606              	.LBB22:
 1607              	.LBB23:
1915:.\Generated_Source\PSoC5/cyPm.c ****     }
1916:.\Generated_Source\PSoC5/cyPm.c **** }
1917:.\Generated_Source\PSoC5/cyPm.c **** 
1918:.\Generated_Source\PSoC5/cyPm.c **** 
1919:.\Generated_Source\PSoC5/cyPm.c **** /*******************************************************************************
1920:.\Generated_Source\PSoC5/cyPm.c **** * Function Name: CyPmHviLviRestore
1921:.\Generated_Source\PSoC5/cyPm.c **** ********************************************************************************
1922:.\Generated_Source\PSoC5/cyPm.c **** *
1923:.\Generated_Source\PSoC5/cyPm.c **** * Summary:
1924:.\Generated_Source\PSoC5/cyPm.c **** *  Restores the analog and digital LVI and HVI configuration.
1925:.\Generated_Source\PSoC5/cyPm.c **** *
1926:.\Generated_Source\PSoC5/cyPm.c **** * Parameters:
1927:.\Generated_Source\PSoC5/cyPm.c **** *  None
1928:.\Generated_Source\PSoC5/cyPm.c **** *
1929:.\Generated_Source\PSoC5/cyPm.c **** * Return:
1930:.\Generated_Source\PSoC5/cyPm.c **** *  None
1931:.\Generated_Source\PSoC5/cyPm.c **** *
1932:.\Generated_Source\PSoC5/cyPm.c **** * Reentrant:
1933:.\Generated_Source\PSoC5/cyPm.c **** *  No
1934:.\Generated_Source\PSoC5/cyPm.c **** *
1935:.\Generated_Source\PSoC5/cyPm.c **** *******************************************************************************/
1936:.\Generated_Source\PSoC5/cyPm.c **** static void CyPmHviLviRestore(void) 
1937:.\Generated_Source\PSoC5/cyPm.c **** {
1938:.\Generated_Source\PSoC5/cyPm.c ****     /* Restore LVI/HVI configuration */
1939:.\Generated_Source\PSoC5/cyPm.c ****     if(CY_PM_ENABLED == cyPmBackup.lvidEn)
 1608              		.loc 1 1939 0
 1609 019c 9BF82510 		ldrb	r1, [fp, #37]	@ zero_extendqisi2
 1610 01a0 284A     		ldr	r2, .L139+12
 1611 01a2 0129     		cmp	r1, #1
 1612 01a4 05D1     		bne	.L124
1940:.\Generated_Source\PSoC5/cyPm.c ****     {
1941:.\Generated_Source\PSoC5/cyPm.c ****         CyVdLvDigitEnable(cyPmBackup.lvidRst, cyPmBackup.lvidTrip);
 1613              		.loc 1 1941 0
 1614 01a6 92F82A00 		ldrb	r0, [r2, #42]	@ zero_extendqisi2
 1615 01aa 92F82610 		ldrb	r1, [r2, #38]	@ zero_extendqisi2
 1616 01ae FFF7FEFF 		bl	CyVdLvDigitEnable
 1617              	.LVL59:
 1618              	.L124:
1942:.\Generated_Source\PSoC5/cyPm.c ****     }
1943:.\Generated_Source\PSoC5/cyPm.c **** 
1944:.\Generated_Source\PSoC5/cyPm.c ****     if(CY_PM_ENABLED == cyPmBackup.lviaEn)
 1619              		.loc 1 1944 0
 1620 01b2 9BF82710 		ldrb	r1, [fp, #39]	@ zero_extendqisi2
ARM GAS  C:\Users\PIET~1.COU\AppData\Local\Temp\ccUpISSh.s 			page 69


 1621 01b6 234A     		ldr	r2, .L139+12
 1622 01b8 0129     		cmp	r1, #1
 1623 01ba 05D1     		bne	.L125
1945:.\Generated_Source\PSoC5/cyPm.c ****     {
1946:.\Generated_Source\PSoC5/cyPm.c ****         CyVdLvAnalogEnable(cyPmBackup.lviaRst, cyPmBackup.lviaTrip);
 1624              		.loc 1 1946 0
 1625 01bc 92F82B00 		ldrb	r0, [r2, #43]	@ zero_extendqisi2
 1626 01c0 92F82810 		ldrb	r1, [r2, #40]	@ zero_extendqisi2
 1627 01c4 FFF7FEFF 		bl	CyVdLvAnalogEnable
 1628              	.LVL60:
 1629              	.L125:
1947:.\Generated_Source\PSoC5/cyPm.c ****     }
1948:.\Generated_Source\PSoC5/cyPm.c **** 
1949:.\Generated_Source\PSoC5/cyPm.c ****     if(CY_PM_ENABLED == cyPmBackup.hviaEn)
 1630              		.loc 1 1949 0
 1631 01c8 9BF82920 		ldrb	r2, [fp, #41]	@ zero_extendqisi2
 1632 01cc 012A     		cmp	r2, #1
 1633 01ce 01D1     		bne	.L126
1950:.\Generated_Source\PSoC5/cyPm.c ****     {
1951:.\Generated_Source\PSoC5/cyPm.c ****         CyVdHvAnalogEnable();
 1634              		.loc 1 1951 0
 1635 01d0 FFF7FEFF 		bl	CyVdHvAnalogEnable
 1636              	.LVL61:
 1637              	.L126:
 1638              	.LBE23:
 1639              	.LBE22:
1464:.\Generated_Source\PSoC5/cyPm.c **** 
 1640              		.loc 1 1464 0
 1641 01d4 FFF7FEFF 		bl	CyPmHibSlpRestore
 1642              	.LVL62:
1467:.\Generated_Source\PSoC5/cyPm.c ****     {
 1643              		.loc 1 1467 0
 1644 01d8 9BF80120 		ldrb	r2, [fp, #1]	@ zero_extendqisi2
 1645 01dc 012A     		cmp	r2, #1
 1646 01de 01D1     		bne	.L127
1470:.\Generated_Source\PSoC5/cyPm.c ****     }
 1647              		.loc 1 1470 0
 1648 01e0 FFF7FEFF 		bl	CyILO_Start1K
 1649              	.LVL63:
 1650              	.L127:
1474:.\Generated_Source\PSoC5/cyPm.c ****     {
 1651              		.loc 1 1474 0
 1652 01e4 9BF80220 		ldrb	r2, [fp, #2]	@ zero_extendqisi2
 1653 01e8 012A     		cmp	r2, #1
 1654 01ea 01D1     		bne	.L128
1477:.\Generated_Source\PSoC5/cyPm.c ****     }
 1655              		.loc 1 1477 0
 1656 01ec FFF7FEFF 		bl	CyILO_Start100K
 1657              	.LVL64:
 1658              	.L128:
1481:.\Generated_Source\PSoC5/cyPm.c **** 
 1659              		.loc 1 1481 0
 1660 01f0 9BF80000 		ldrb	r0, [fp]	@ zero_extendqisi2
 1661 01f4 FFF7FEFF 		bl	CyILO_SetPowerMode
 1662              	.LVL65:
1484:.\Generated_Source\PSoC5/cyPm.c ****     {
 1663              		.loc 1 1484 0
ARM GAS  C:\Users\PIET~1.COU\AppData\Local\Temp\ccUpISSh.s 			page 70


 1664 01f8 9BF80320 		ldrb	r2, [fp, #3]	@ zero_extendqisi2
 1665 01fc 1AB9     		cbnz	r2, .L129
1487:.\Generated_Source\PSoC5/cyPm.c ****     }
 1666              		.loc 1 1487 0
 1667 01fe 2278     		ldrb	r2, [r4]	@ zero_extendqisi2
 1668 0200 02F0EF02 		and	r2, r2, #239
 1669 0204 2270     		strb	r2, [r4]
 1670              	.L129:
1494:.\Generated_Source\PSoC5/cyPm.c ****     CY_PM_PWRSYS_WAKE_TR1_REG = cyPmBackup.wakeupTrim1;
 1671              		.loc 1 1494 0
 1672 0206 9BF80720 		ldrb	r2, [fp, #7]	@ zero_extendqisi2
 1673 020a 8AF80020 		strb	r2, [r10]
1495:.\Generated_Source\PSoC5/cyPm.c **** }
 1674              		.loc 1 1495 0
 1675 020e 9BF80820 		ldrb	r2, [fp, #8]	@ zero_extendqisi2
 1676 0212 89F80020 		strb	r2, [r9]
 1677              	.LBE21:
 1678              	.LBE20:
1286:.\Generated_Source\PSoC5/cyPm.c ****     CY_PM_WAKEUP_CFG1_REG = cyPmBackup.wakeupCfg1;
 1679              		.loc 1 1286 0
 1680 0216 9BF80420 		ldrb	r2, [fp, #4]	@ zero_extendqisi2
 1681 021a 88F80020 		strb	r2, [r8]
1287:.\Generated_Source\PSoC5/cyPm.c ****     CY_PM_WAKEUP_CFG2_REG = cyPmBackup.wakeupCfg2;
 1682              		.loc 1 1287 0
 1683 021e 9BF80520 		ldrb	r2, [fp, #5]	@ zero_extendqisi2
 1684 0222 3A70     		strb	r2, [r7]
1288:.\Generated_Source\PSoC5/cyPm.c **** 
 1685              		.loc 1 1288 0
 1686 0224 9BF80630 		ldrb	r3, [fp, #6]	@ zero_extendqisi2
 1687 0228 3370     		strb	r3, [r6]
1291:.\Generated_Source\PSoC5/cyPm.c **** }
 1688              		.loc 1 1291 0
 1689 022a 0198     		ldr	r0, [sp, #4]
 1690              	.L137:
1292:.\Generated_Source\PSoC5/cyPm.c **** 
 1691              		.loc 1 1292 0
 1692 022c 03B0     		add	sp, sp, #12
 1693              		.cfi_def_cfa_offset 36
 1694              		@ sp needed
 1695 022e BDE8F04F 		pop	{r4, r5, r6, r7, r8, r9, r10, fp, lr}
 1696              		.cfi_restore 14
 1697              		.cfi_restore 11
 1698              		.cfi_restore 10
 1699              		.cfi_restore 9
 1700              		.cfi_restore 8
 1701              		.cfi_restore 7
 1702              		.cfi_restore 6
 1703              		.cfi_restore 5
 1704              		.cfi_restore 4
 1705              		.cfi_def_cfa_offset 0
1291:.\Generated_Source\PSoC5/cyPm.c **** }
 1706              		.loc 1 1291 0
 1707 0232 FFF7FEBF 		b	CyExitCriticalSection
 1708              	.LVL66:
 1709              	.L140:
 1710 0236 00BF     		.align	2
 1711              	.L139:
ARM GAS  C:\Users\PIET~1.COU\AppData\Local\Temp\ccUpISSh.s 			page 71


 1712 0238 93430040 		.word	1073759123
 1713 023c 83460040 		.word	1073759875
 1714 0240 31430040 		.word	1073759025
 1715 0244 00000000 		.word	.LANCHOR0
 1716 0248 00430040 		.word	1073758976
 1717 024c F5460040 		.word	1073759989
 1718 0250 F4460040 		.word	1073759988
 1719 0254 F7460040 		.word	1073759991
 1720 0258 98430040 		.word	1073759128
 1721 025c 99430040 		.word	1073759129
 1722 0260 9A430040 		.word	1073759130
 1723 0264 00420040 		.word	1073758720
 1724 0268 85460040 		.word	1073759877
 1725 026c 86460040 		.word	1073759878
 1726              		.cfi_endproc
 1727              	.LFE68:
 1728              		.size	CyPmHibernateEx, .-CyPmHibernateEx
 1729              		.section	.text.CyPmHibernate,"ax",%progbits
 1730              		.align	1
 1731              		.global	CyPmHibernate
 1732              		.thumb
 1733              		.thumb_func
 1734              		.type	CyPmHibernate, %function
 1735              	CyPmHibernate:
 1736              	.LFB67:
1128:.\Generated_Source\PSoC5/cyPm.c ****     CyPmHibernateEx(CY_PM_HIB_SRC_PICU);
 1737              		.loc 1 1128 0
 1738              		.cfi_startproc
 1739              		@ args = 0, pretend = 0, frame = 0
 1740              		@ frame_needed = 0, uses_anonymous_args = 0
 1741              		@ link register save eliminated.
1129:.\Generated_Source\PSoC5/cyPm.c **** }
 1742              		.loc 1 1129 0
 1743 0000 4020     		movs	r0, #64
 1744 0002 FFF7FEBF 		b	CyPmHibernateEx
 1745              	.LVL67:
 1746              		.cfi_endproc
 1747              	.LFE67:
 1748              		.size	CyPmHibernate, .-CyPmHibernate
 1749              		.section	.text.CyPmReadStatus,"ax",%progbits
 1750              		.align	1
 1751              		.global	CyPmReadStatus
 1752              		.thumb
 1753              		.thumb_func
 1754              		.type	CyPmReadStatus, %function
 1755              	CyPmReadStatus:
 1756              	.LFB69:
1325:.\Generated_Source\PSoC5/cyPm.c ****     static uint8 interruptStatus;
 1757              		.loc 1 1325 0
 1758              		.cfi_startproc
 1759              		@ args = 0, pretend = 0, frame = 0
 1760              		@ frame_needed = 0, uses_anonymous_args = 0
 1761              	.LVL68:
 1762 0000 38B5     		push	{r3, r4, r5, lr}
 1763              		.cfi_def_cfa_offset 16
 1764              		.cfi_offset 3, -16
 1765              		.cfi_offset 4, -12
ARM GAS  C:\Users\PIET~1.COU\AppData\Local\Temp\ccUpISSh.s 			page 72


 1766              		.cfi_offset 5, -8
 1767              		.cfi_offset 14, -4
1325:.\Generated_Source\PSoC5/cyPm.c ****     static uint8 interruptStatus;
 1768              		.loc 1 1325 0
 1769 0002 0546     		mov	r5, r0
1331:.\Generated_Source\PSoC5/cyPm.c **** 
 1770              		.loc 1 1331 0
 1771 0004 FFF7FEFF 		bl	CyEnterCriticalSection
 1772              	.LVL69:
1334:.\Generated_Source\PSoC5/cyPm.c ****     tmpStatus = interruptStatus & (CY_PM_FTW_INT | CY_PM_CTW_INT | CY_PM_ONEPPS_INT);
 1773              		.loc 1 1334 0
 1774 0008 074A     		ldr	r2, .L143
 1775 000a 084B     		ldr	r3, .L143+4
 1776 000c 1C78     		ldrb	r4, [r3]	@ zero_extendqisi2
 1777 000e 92F84230 		ldrb	r3, [r2, #66]	@ zero_extendqisi2
 1778 0012 1C43     		orrs	r4, r4, r3
 1779              	.LVL70:
1336:.\Generated_Source\PSoC5/cyPm.c **** 
 1780              		.loc 1 1336 0
 1781 0014 24EA0505 		bic	r5, r4, r5
 1782 0018 82F84250 		strb	r5, [r2, #66]
1339:.\Generated_Source\PSoC5/cyPm.c **** 
 1783              		.loc 1 1339 0
 1784 001c FFF7FEFF 		bl	CyExitCriticalSection
 1785              	.LVL71:
1342:.\Generated_Source\PSoC5/cyPm.c **** 
 1786              		.loc 1 1342 0
 1787 0020 04F00700 		and	r0, r4, #7
 1788 0024 38BD     		pop	{r3, r4, r5, pc}
 1789              	.LVL72:
 1790              	.L144:
 1791 0026 00BF     		.align	2
 1792              	.L143:
 1793 0028 00000000 		.word	.LANCHOR0
 1794 002c 90430040 		.word	1073759120
 1795              		.cfi_endproc
 1796              	.LFE69:
 1797              		.size	CyPmReadStatus, .-CyPmReadStatus
 1798              		.section	.text.CyPmCtwSetInterval,"ax",%progbits
 1799              		.align	1
 1800              		.global	CyPmCtwSetInterval
 1801              		.thumb
 1802              		.thumb_func
 1803              		.type	CyPmCtwSetInterval, %function
 1804              	CyPmCtwSetInterval:
 1805              	.LFB72:
1520:.\Generated_Source\PSoC5/cyPm.c ****     /* Disable CTW interrupt enable */
 1806              		.loc 1 1520 0
 1807              		.cfi_startproc
 1808              		@ args = 0, pretend = 0, frame = 0
 1809              		@ frame_needed = 0, uses_anonymous_args = 0
 1810              	.LVL73:
 1811 0000 38B5     		push	{r3, r4, r5, lr}
 1812              		.cfi_def_cfa_offset 16
 1813              		.cfi_offset 3, -16
 1814              		.cfi_offset 4, -12
 1815              		.cfi_offset 5, -8
ARM GAS  C:\Users\PIET~1.COU\AppData\Local\Temp\ccUpISSh.s 			page 73


 1816              		.cfi_offset 14, -4
1522:.\Generated_Source\PSoC5/cyPm.c **** 
 1817              		.loc 1 1522 0
 1818 0002 114C     		ldr	r4, .L149
1520:.\Generated_Source\PSoC5/cyPm.c ****     /* Disable CTW interrupt enable */
 1819              		.loc 1 1520 0
 1820 0004 0546     		mov	r5, r0
1522:.\Generated_Source\PSoC5/cyPm.c **** 
 1821              		.loc 1 1522 0
 1822 0006 2378     		ldrb	r3, [r4]	@ zero_extendqisi2
 1823 0008 03F0F703 		and	r3, r3, #247
 1824 000c 2370     		strb	r3, [r4]
1525:.\Generated_Source\PSoC5/cyPm.c **** 
 1825              		.loc 1 1525 0
 1826 000e FFF7FEFF 		bl	CyILO_Start1K
 1827              	.LVL74:
1528:.\Generated_Source\PSoC5/cyPm.c ****     {
 1828              		.loc 1 1528 0
 1829 0012 2378     		ldrb	r3, [r4]	@ zero_extendqisi2
 1830 0014 13F0040F 		tst	r3, #4
 1831 0018 0C4B     		ldr	r3, .L149+4
 1832 001a 0CD0     		beq	.L146
1531:.\Generated_Source\PSoC5/cyPm.c ****         {
 1833              		.loc 1 1531 0
 1834 001c 1A78     		ldrb	r2, [r3]	@ zero_extendqisi2
 1835 001e AA42     		cmp	r2, r5
 1836 0020 11D0     		beq	.L145
1534:.\Generated_Source\PSoC5/cyPm.c ****             CY_PM_TW_CFG1_REG = ctwInterval;
 1837              		.loc 1 1534 0
 1838 0022 2278     		ldrb	r2, [r4]	@ zero_extendqisi2
 1839 0024 02F0FB02 		and	r2, r2, #251
 1840 0028 2270     		strb	r2, [r4]
1535:.\Generated_Source\PSoC5/cyPm.c ****             CY_PM_TW_CFG2_REG |= CY_PM_CTW_EN;
 1841              		.loc 1 1535 0
 1842 002a 1D70     		strb	r5, [r3]
1536:.\Generated_Source\PSoC5/cyPm.c ****         }   /* Required interval is already set */
 1843              		.loc 1 1536 0
 1844 002c 2378     		ldrb	r3, [r4]	@ zero_extendqisi2
 1845 002e 43F00403 		orr	r3, r3, #4
 1846 0032 2370     		strb	r3, [r4]
 1847 0034 38BD     		pop	{r3, r4, r5, pc}
 1848              	.L146:
1542:.\Generated_Source\PSoC5/cyPm.c ****         {
 1849              		.loc 1 1542 0
 1850 0036 1978     		ldrb	r1, [r3]	@ zero_extendqisi2
 1851 0038 A942     		cmp	r1, r5
1545:.\Generated_Source\PSoC5/cyPm.c ****         }   /* Required interval is already set */
 1852              		.loc 1 1545 0
 1853 003a 18BF     		it	ne
 1854 003c 1D70     		strbne	r5, [r3]
1549:.\Generated_Source\PSoC5/cyPm.c ****     }
 1855              		.loc 1 1549 0
 1856 003e 2378     		ldrb	r3, [r4]	@ zero_extendqisi2
 1857 0040 43F00403 		orr	r3, r3, #4
 1858 0044 2370     		strb	r3, [r4]
 1859              	.L145:
 1860 0046 38BD     		pop	{r3, r4, r5, pc}
ARM GAS  C:\Users\PIET~1.COU\AppData\Local\Temp\ccUpISSh.s 			page 74


 1861              	.L150:
 1862              		.align	2
 1863              	.L149:
 1864 0048 82430040 		.word	1073759106
 1865 004c 81430040 		.word	1073759105
 1866              		.cfi_endproc
 1867              	.LFE72:
 1868              		.size	CyPmCtwSetInterval, .-CyPmCtwSetInterval
 1869              		.section	.text.CyPmOppsSet,"ax",%progbits
 1870              		.align	1
 1871              		.global	CyPmOppsSet
 1872              		.thumb
 1873              		.thumb_func
 1874              		.type	CyPmOppsSet, %function
 1875              	CyPmOppsSet:
 1876              	.LFB73:
1572:.\Generated_Source\PSoC5/cyPm.c ****     /* Enable 32kHz XTAL if needed */
 1877              		.loc 1 1572 0
 1878              		.cfi_startproc
 1879              		@ args = 0, pretend = 0, frame = 0
 1880              		@ frame_needed = 0, uses_anonymous_args = 0
 1881 0000 08B5     		push	{r3, lr}
 1882              		.cfi_def_cfa_offset 8
 1883              		.cfi_offset 3, -8
 1884              		.cfi_offset 14, -4
1574:.\Generated_Source\PSoC5/cyPm.c ****     {
 1885              		.loc 1 1574 0
 1886 0002 084B     		ldr	r3, .L153
 1887 0004 1B78     		ldrb	r3, [r3]	@ zero_extendqisi2
 1888 0006 DB07     		lsls	r3, r3, #31
 1889 0008 01D4     		bmi	.L152
1577:.\Generated_Source\PSoC5/cyPm.c ****     }
 1890              		.loc 1 1577 0
 1891 000a FFF7FEFF 		bl	CyXTAL_32KHZ_Start
 1892              	.LVL75:
 1893              	.L152:
1581:.\Generated_Source\PSoC5/cyPm.c **** 
 1894              		.loc 1 1581 0
 1895 000e 064B     		ldr	r3, .L153+4
 1896 0010 1A78     		ldrb	r2, [r3]	@ zero_extendqisi2
 1897 0012 02F0DF02 		and	r2, r2, #223
 1898 0016 1A70     		strb	r2, [r3]
1584:.\Generated_Source\PSoC5/cyPm.c **** }
 1899              		.loc 1 1584 0
 1900 0018 1A78     		ldrb	r2, [r3]	@ zero_extendqisi2
 1901 001a 42F01002 		orr	r2, r2, #16
 1902 001e 1A70     		strb	r2, [r3]
 1903 0020 08BD     		pop	{r3, pc}
 1904              	.L154:
 1905 0022 00BF     		.align	2
 1906              	.L153:
 1907 0024 08430040 		.word	1073758984
 1908 0028 82430040 		.word	1073759106
 1909              		.cfi_endproc
 1910              	.LFE73:
 1911              		.size	CyPmOppsSet, .-CyPmOppsSet
 1912              		.section	.text.CyPmFtwSetInterval,"ax",%progbits
ARM GAS  C:\Users\PIET~1.COU\AppData\Local\Temp\ccUpISSh.s 			page 75


 1913              		.align	1
 1914              		.global	CyPmFtwSetInterval
 1915              		.thumb
 1916              		.thumb_func
 1917              		.type	CyPmFtwSetInterval, %function
 1918              	CyPmFtwSetInterval:
 1919              	.LFB74:
1609:.\Generated_Source\PSoC5/cyPm.c ****     /* Disable FTW interrupt enable */
 1920              		.loc 1 1609 0
 1921              		.cfi_startproc
 1922              		@ args = 0, pretend = 0, frame = 0
 1923              		@ frame_needed = 0, uses_anonymous_args = 0
 1924              	.LVL76:
 1925 0000 38B5     		push	{r3, r4, r5, lr}
 1926              		.cfi_def_cfa_offset 16
 1927              		.cfi_offset 3, -16
 1928              		.cfi_offset 4, -12
 1929              		.cfi_offset 5, -8
 1930              		.cfi_offset 14, -4
1611:.\Generated_Source\PSoC5/cyPm.c **** 
 1931              		.loc 1 1611 0
 1932 0002 114C     		ldr	r4, .L159
1609:.\Generated_Source\PSoC5/cyPm.c ****     /* Disable FTW interrupt enable */
 1933              		.loc 1 1609 0
 1934 0004 0546     		mov	r5, r0
1611:.\Generated_Source\PSoC5/cyPm.c **** 
 1935              		.loc 1 1611 0
 1936 0006 2378     		ldrb	r3, [r4]	@ zero_extendqisi2
 1937 0008 03F0FD03 		and	r3, r3, #253
 1938 000c 2370     		strb	r3, [r4]
1614:.\Generated_Source\PSoC5/cyPm.c **** 
 1939              		.loc 1 1614 0
 1940 000e FFF7FEFF 		bl	CyILO_Start100K
 1941              	.LVL77:
1617:.\Generated_Source\PSoC5/cyPm.c ****     {
 1942              		.loc 1 1617 0
 1943 0012 2378     		ldrb	r3, [r4]	@ zero_extendqisi2
 1944 0014 13F0010F 		tst	r3, #1
 1945 0018 0C4B     		ldr	r3, .L159+4
 1946 001a 0CD0     		beq	.L156
1620:.\Generated_Source\PSoC5/cyPm.c ****         {
 1947              		.loc 1 1620 0
 1948 001c 1A78     		ldrb	r2, [r3]	@ zero_extendqisi2
 1949 001e AA42     		cmp	r2, r5
 1950 0020 11D0     		beq	.L155
1623:.\Generated_Source\PSoC5/cyPm.c ****             CY_PM_TW_CFG0_REG = ftwInterval;
 1951              		.loc 1 1623 0
 1952 0022 2278     		ldrb	r2, [r4]	@ zero_extendqisi2
 1953 0024 02F0FE02 		and	r2, r2, #254
 1954 0028 2270     		strb	r2, [r4]
1624:.\Generated_Source\PSoC5/cyPm.c ****             CY_PM_TW_CFG2_REG |= CY_PM_FTW_EN;
 1955              		.loc 1 1624 0
 1956 002a 1D70     		strb	r5, [r3]
1625:.\Generated_Source\PSoC5/cyPm.c ****         }   /* Required interval is already set */
 1957              		.loc 1 1625 0
 1958 002c 2378     		ldrb	r3, [r4]	@ zero_extendqisi2
 1959 002e 43F00103 		orr	r3, r3, #1
ARM GAS  C:\Users\PIET~1.COU\AppData\Local\Temp\ccUpISSh.s 			page 76


 1960 0032 2370     		strb	r3, [r4]
 1961 0034 38BD     		pop	{r3, r4, r5, pc}
 1962              	.L156:
1631:.\Generated_Source\PSoC5/cyPm.c ****         {
 1963              		.loc 1 1631 0
 1964 0036 1978     		ldrb	r1, [r3]	@ zero_extendqisi2
 1965 0038 A942     		cmp	r1, r5
1634:.\Generated_Source\PSoC5/cyPm.c ****         }   /* Required interval is already set */
 1966              		.loc 1 1634 0
 1967 003a 18BF     		it	ne
 1968 003c 1D70     		strbne	r5, [r3]
1638:.\Generated_Source\PSoC5/cyPm.c ****     }
 1969              		.loc 1 1638 0
 1970 003e 2378     		ldrb	r3, [r4]	@ zero_extendqisi2
 1971 0040 43F00103 		orr	r3, r3, #1
 1972 0044 2370     		strb	r3, [r4]
 1973              	.L155:
 1974 0046 38BD     		pop	{r3, r4, r5, pc}
 1975              	.L160:
 1976              		.align	2
 1977              	.L159:
 1978 0048 82430040 		.word	1073759106
 1979 004c 80430040 		.word	1073759104
 1980              		.cfi_endproc
 1981              	.LFE74:
 1982              		.size	CyPmFtwSetInterval, .-CyPmFtwSetInterval
 1983              		.section	.rodata
 1984              		.set	.LANCHOR1,. + 0
 1985              		.type	cyPmImoFreqReg2Mhz, %object
 1986              		.size	cyPmImoFreqReg2Mhz, 7
 1987              	cyPmImoFreqReg2Mhz:
 1988 0000 0C       		.byte	12
 1989 0001 06       		.byte	6
 1990 0002 18       		.byte	24
 1991 0003 03       		.byte	3
 1992 0004 30       		.byte	48
 1993 0005 3E       		.byte	62
 1994 0006 4A       		.byte	74
 1995              	.LC0:
 1996 0007 02       		.byte	2
 1997 0008 01       		.byte	1
 1998 0009 03       		.byte	3
 1999 000a 00       		.byte	0
 2000 000b 04       		.byte	4
 2001 000c 05       		.byte	5
 2002 000d 06       		.byte	6
 2003              		.bss
 2004              		.align	1
 2005              		.set	.LANCHOR0,. + 0
 2006              		.type	cyPmBackup, %object
 2007              		.size	cyPmBackup, 47
 2008              	cyPmBackup:
 2009 0000 00000000 		.space	47
 2009      00000000 
 2009      00000000 
 2009      00000000 
 2009      00000000 
ARM GAS  C:\Users\PIET~1.COU\AppData\Local\Temp\ccUpISSh.s 			page 77


 2010 002f 00       		.space	1
 2011              		.type	cyPmClockBackup, %object
 2012              		.size	cyPmClockBackup, 18
 2013              	cyPmClockBackup:
 2014 0030 00000000 		.space	18
 2014      00000000 
 2014      00000000 
 2014      00000000 
 2014      0000
 2015              		.type	interruptStatus.5629, %object
 2016              		.size	interruptStatus.5629, 1
 2017              	interruptStatus.5629:
 2018 0042 00       		.space	1
 2019 0043 00       		.text
 2020              	.Letext0:
 2021              		.file 2 "c:\\program files (x86)\\cypress\\psoc creator\\3.3\\psoc creator\\import\\gnu\\arm\\4.9.
 2022              		.file 3 "c:\\program files (x86)\\cypress\\psoc creator\\3.3\\psoc creator\\import\\gnu\\arm\\4.9.
 2023              		.file 4 ".\\Generated_Source\\PSoC5\\cytypes.h"
 2024              		.file 5 ".\\Generated_Source\\PSoC5\\cyPm.h"
 2025              		.file 6 ".\\Generated_Source\\PSoC5\\CyFlash.h"
 2026              		.file 7 ".\\Generated_Source\\PSoC5\\CyLib.h"
 2027              		.file 8 "Generated_Source\\PSoC5/core_cm3.h"
 2028              		.section	.debug_info,"",%progbits
 2029              	.Ldebug_info0:
 2030 0000 C6090000 		.4byte	0x9c6
 2031 0004 0400     		.2byte	0x4
 2032 0006 00000000 		.4byte	.Ldebug_abbrev0
 2033 000a 04       		.byte	0x4
 2034 000b 01       		.uleb128 0x1
 2035 000c 18020000 		.4byte	.LASF115
 2036 0010 01       		.byte	0x1
 2037 0011 AF000000 		.4byte	.LASF116
 2038 0015 F3000000 		.4byte	.LASF117
 2039 0019 28000000 		.4byte	.Ldebug_ranges0+0x28
 2040 001d 00000000 		.4byte	0
 2041 0021 00000000 		.4byte	.Ldebug_line0
 2042 0025 02       		.uleb128 0x2
 2043 0026 01       		.byte	0x1
 2044 0027 06       		.byte	0x6
 2045 0028 C4030000 		.4byte	.LASF0
 2046 002c 02       		.uleb128 0x2
 2047 002d 01       		.byte	0x1
 2048 002e 08       		.byte	0x8
 2049 002f 35030000 		.4byte	.LASF1
 2050 0033 02       		.uleb128 0x2
 2051 0034 02       		.byte	0x2
 2052 0035 05       		.byte	0x5
 2053 0036 6E000000 		.4byte	.LASF2
 2054 003a 02       		.uleb128 0x2
 2055 003b 02       		.byte	0x2
 2056 003c 07       		.byte	0x7
 2057 003d C1040000 		.4byte	.LASF3
 2058 0041 03       		.uleb128 0x3
 2059 0042 09060000 		.4byte	.LASF9
 2060 0046 02       		.byte	0x2
 2061 0047 3F       		.byte	0x3f
 2062 0048 4C000000 		.4byte	0x4c
ARM GAS  C:\Users\PIET~1.COU\AppData\Local\Temp\ccUpISSh.s 			page 78


 2063 004c 02       		.uleb128 0x2
 2064 004d 04       		.byte	0x4
 2065 004e 05       		.byte	0x5
 2066 004f 00030000 		.4byte	.LASF4
 2067 0053 02       		.uleb128 0x2
 2068 0054 04       		.byte	0x4
 2069 0055 07       		.byte	0x7
 2070 0056 46050000 		.4byte	.LASF5
 2071 005a 02       		.uleb128 0x2
 2072 005b 08       		.byte	0x8
 2073 005c 05       		.byte	0x5
 2074 005d D8020000 		.4byte	.LASF6
 2075 0061 02       		.uleb128 0x2
 2076 0062 08       		.byte	0x8
 2077 0063 07       		.byte	0x7
 2078 0064 DC030000 		.4byte	.LASF7
 2079 0068 04       		.uleb128 0x4
 2080 0069 04       		.byte	0x4
 2081 006a 05       		.byte	0x5
 2082 006b 696E7400 		.ascii	"int\000"
 2083 006f 02       		.uleb128 0x2
 2084 0070 04       		.byte	0x4
 2085 0071 07       		.byte	0x7
 2086 0072 DE060000 		.4byte	.LASF8
 2087 0076 03       		.uleb128 0x3
 2088 0077 A2040000 		.4byte	.LASF10
 2089 007b 03       		.byte	0x3
 2090 007c 2C       		.byte	0x2c
 2091 007d 41000000 		.4byte	0x41
 2092 0081 03       		.uleb128 0x3
 2093 0082 05040000 		.4byte	.LASF11
 2094 0086 04       		.byte	0x4
 2095 0087 C2       		.byte	0xc2
 2096 0088 2C000000 		.4byte	0x2c
 2097 008c 03       		.uleb128 0x3
 2098 008d 98010000 		.4byte	.LASF12
 2099 0091 04       		.byte	0x4
 2100 0092 C3       		.byte	0xc3
 2101 0093 3A000000 		.4byte	0x3a
 2102 0097 03       		.uleb128 0x3
 2103 0098 2D050000 		.4byte	.LASF13
 2104 009c 04       		.byte	0x4
 2105 009d C4       		.byte	0xc4
 2106 009e 53000000 		.4byte	0x53
 2107 00a2 02       		.uleb128 0x2
 2108 00a3 04       		.byte	0x4
 2109 00a4 04       		.byte	0x4
 2110 00a5 AD020000 		.4byte	.LASF14
 2111 00a9 02       		.uleb128 0x2
 2112 00aa 08       		.byte	0x8
 2113 00ab 04       		.byte	0x4
 2114 00ac 80050000 		.4byte	.LASF15
 2115 00b0 02       		.uleb128 0x2
 2116 00b1 01       		.byte	0x1
 2117 00b2 08       		.byte	0x8
 2118 00b3 8B040000 		.4byte	.LASF16
 2119 00b7 05       		.uleb128 0x5
ARM GAS  C:\Users\PIET~1.COU\AppData\Local\Temp\ccUpISSh.s 			page 79


 2120 00b8 90040000 		.4byte	.LASF17
 2121 00bc 04       		.byte	0x4
 2122 00bd 6401     		.2byte	0x164
 2123 00bf 53000000 		.4byte	0x53
 2124 00c3 05       		.uleb128 0x5
 2125 00c4 41050000 		.4byte	.LASF18
 2126 00c8 04       		.byte	0x4
 2127 00c9 6C01     		.2byte	0x16c
 2128 00cb CF000000 		.4byte	0xcf
 2129 00cf 06       		.uleb128 0x6
 2130 00d0 81000000 		.4byte	0x81
 2131 00d4 02       		.uleb128 0x2
 2132 00d5 04       		.byte	0x4
 2133 00d6 07       		.byte	0x7
 2134 00d7 65060000 		.4byte	.LASF19
 2135 00db 07       		.uleb128 0x7
 2136 00dc 97050000 		.4byte	.LASF36
 2137 00e0 12       		.byte	0x12
 2138 00e1 05       		.byte	0x5
 2139 00e2 F9       		.byte	0xf9
 2140 00e3 A7010000 		.4byte	0x1a7
 2141 00e7 08       		.uleb128 0x8
 2142 00e8 CD010000 		.4byte	.LASF20
 2143 00ec 05       		.byte	0x5
 2144 00ed FC       		.byte	0xfc
 2145 00ee 81000000 		.4byte	0x81
 2146 00f2 00       		.byte	0
 2147 00f3 08       		.uleb128 0x8
 2148 00f4 78000000 		.4byte	.LASF21
 2149 00f8 05       		.byte	0x5
 2150 00f9 FD       		.byte	0xfd
 2151 00fa 81000000 		.4byte	0x81
 2152 00fe 01       		.byte	0x1
 2153 00ff 08       		.uleb128 0x8
 2154 0100 C4060000 		.4byte	.LASF22
 2155 0104 05       		.byte	0x5
 2156 0105 FE       		.byte	0xfe
 2157 0106 81000000 		.4byte	0x81
 2158 010a 02       		.byte	0x2
 2159 010b 08       		.uleb128 0x8
 2160 010c 25030000 		.4byte	.LASF23
 2161 0110 05       		.byte	0x5
 2162 0111 FF       		.byte	0xff
 2163 0112 81000000 		.4byte	0x81
 2164 0116 03       		.byte	0x3
 2165 0117 09       		.uleb128 0x9
 2166 0118 80010000 		.4byte	.LASF24
 2167 011c 05       		.byte	0x5
 2168 011d 0001     		.2byte	0x100
 2169 011f 81000000 		.4byte	0x81
 2170 0123 04       		.byte	0x4
 2171 0124 09       		.uleb128 0x9
 2172 0125 D4010000 		.4byte	.LASF25
 2173 0129 05       		.byte	0x5
 2174 012a 0101     		.2byte	0x101
 2175 012c 81000000 		.4byte	0x81
 2176 0130 05       		.byte	0x5
ARM GAS  C:\Users\PIET~1.COU\AppData\Local\Temp\ccUpISSh.s 			page 80


 2177 0131 09       		.uleb128 0x9
 2178 0132 6E010000 		.4byte	.LASF26
 2179 0136 05       		.byte	0x5
 2180 0137 0201     		.2byte	0x102
 2181 0139 81000000 		.4byte	0x81
 2182 013d 06       		.byte	0x6
 2183 013e 09       		.uleb128 0x9
 2184 013f 22060000 		.4byte	.LASF27
 2185 0143 05       		.byte	0x5
 2186 0144 0301     		.2byte	0x103
 2187 0146 81000000 		.4byte	0x81
 2188 014a 07       		.byte	0x7
 2189 014b 09       		.uleb128 0x9
 2190 014c 1E040000 		.4byte	.LASF28
 2191 0150 05       		.byte	0x5
 2192 0151 0401     		.2byte	0x104
 2193 0153 81000000 		.4byte	0x81
 2194 0157 08       		.byte	0x8
 2195 0158 09       		.uleb128 0x9
 2196 0159 68000000 		.4byte	.LASF29
 2197 015d 05       		.byte	0x5
 2198 015e 0501     		.2byte	0x105
 2199 0160 81000000 		.4byte	0x81
 2200 0164 09       		.byte	0x9
 2201 0165 09       		.uleb128 0x9
 2202 0166 63010000 		.4byte	.LASF30
 2203 016a 05       		.byte	0x5
 2204 016b 0601     		.2byte	0x106
 2205 016d 81000000 		.4byte	0x81
 2206 0171 0A       		.byte	0xa
 2207 0172 09       		.uleb128 0x9
 2208 0173 F6020000 		.4byte	.LASF31
 2209 0177 05       		.byte	0x5
 2210 0178 0701     		.2byte	0x107
 2211 017a 8C000000 		.4byte	0x8c
 2212 017e 0C       		.byte	0xc
 2213 017f 09       		.uleb128 0x9
 2214 0180 54010000 		.4byte	.LASF32
 2215 0184 05       		.byte	0x5
 2216 0185 0801     		.2byte	0x108
 2217 0187 81000000 		.4byte	0x81
 2218 018b 0E       		.byte	0xe
 2219 018c 09       		.uleb128 0x9
 2220 018d 55040000 		.4byte	.LASF33
 2221 0191 05       		.byte	0x5
 2222 0192 0901     		.2byte	0x109
 2223 0194 81000000 		.4byte	0x81
 2224 0198 0F       		.byte	0xf
 2225 0199 09       		.uleb128 0x9
 2226 019a 34050000 		.4byte	.LASF34
 2227 019e 05       		.byte	0x5
 2228 019f 0A01     		.2byte	0x10a
 2229 01a1 81000000 		.4byte	0x81
 2230 01a5 10       		.byte	0x10
 2231 01a6 00       		.byte	0
 2232 01a7 05       		.uleb128 0x5
 2233 01a8 F1040000 		.4byte	.LASF35
ARM GAS  C:\Users\PIET~1.COU\AppData\Local\Temp\ccUpISSh.s 			page 81


 2234 01ac 05       		.byte	0x5
 2235 01ad 0C01     		.2byte	0x10c
 2236 01af DB000000 		.4byte	0xdb
 2237 01b3 0A       		.uleb128 0xa
 2238 01b4 AD050000 		.4byte	.LASF37
 2239 01b8 2F       		.byte	0x2f
 2240 01b9 05       		.byte	0x5
 2241 01ba 0F01     		.2byte	0x10f
 2242 01bc C5020000 		.4byte	0x2c5
 2243 01c0 09       		.uleb128 0x9
 2244 01c1 65040000 		.4byte	.LASF38
 2245 01c5 05       		.byte	0x5
 2246 01c6 1101     		.2byte	0x111
 2247 01c8 81000000 		.4byte	0x81
 2248 01cc 00       		.byte	0
 2249 01cd 09       		.uleb128 0x9
 2250 01ce 8A060000 		.4byte	.LASF39
 2251 01d2 05       		.byte	0x5
 2252 01d3 1201     		.2byte	0x112
 2253 01d5 81000000 		.4byte	0x81
 2254 01d9 01       		.byte	0x1
 2255 01da 09       		.uleb128 0x9
 2256 01db 8A010000 		.4byte	.LASF40
 2257 01df 05       		.byte	0x5
 2258 01e0 1301     		.2byte	0x113
 2259 01e2 81000000 		.4byte	0x81
 2260 01e6 02       		.byte	0x2
 2261 01e7 09       		.uleb128 0x9
 2262 01e8 52000000 		.4byte	.LASF41
 2263 01ec 05       		.byte	0x5
 2264 01ed 1501     		.2byte	0x115
 2265 01ef 81000000 		.4byte	0x81
 2266 01f3 03       		.byte	0x3
 2267 01f4 09       		.uleb128 0x9
 2268 01f5 E8050000 		.4byte	.LASF42
 2269 01f9 05       		.byte	0x5
 2270 01fa 1F01     		.2byte	0x11f
 2271 01fc 81000000 		.4byte	0x81
 2272 0200 04       		.byte	0x4
 2273 0201 09       		.uleb128 0x9
 2274 0202 F3050000 		.4byte	.LASF43
 2275 0206 05       		.byte	0x5
 2276 0207 2001     		.2byte	0x120
 2277 0209 81000000 		.4byte	0x81
 2278 020d 05       		.byte	0x5
 2279 020e 09       		.uleb128 0x9
 2280 020f FE050000 		.4byte	.LASF44
 2281 0213 05       		.byte	0x5
 2282 0214 2101     		.2byte	0x121
 2283 0216 81000000 		.4byte	0x81
 2284 021a 06       		.byte	0x6
 2285 021b 09       		.uleb128 0x9
 2286 021c AC030000 		.4byte	.LASF45
 2287 0220 05       		.byte	0x5
 2288 0221 2301     		.2byte	0x123
 2289 0223 81000000 		.4byte	0x81
 2290 0227 07       		.byte	0x7
ARM GAS  C:\Users\PIET~1.COU\AppData\Local\Temp\ccUpISSh.s 			page 82


 2291 0228 09       		.uleb128 0x9
 2292 0229 B8030000 		.4byte	.LASF46
 2293 022d 05       		.byte	0x5
 2294 022e 2401     		.2byte	0x124
 2295 0230 81000000 		.4byte	0x81
 2296 0234 08       		.byte	0x8
 2297 0235 09       		.uleb128 0x9
 2298 0236 38010000 		.4byte	.LASF47
 2299 023a 05       		.byte	0x5
 2300 023b 2601     		.2byte	0x126
 2301 023d C5020000 		.4byte	0x2c5
 2302 0241 09       		.byte	0x9
 2303 0242 09       		.uleb128 0x9
 2304 0243 F8060000 		.4byte	.LASF48
 2305 0247 05       		.byte	0x5
 2306 0248 2901     		.2byte	0x129
 2307 024a 81000000 		.4byte	0x81
 2308 024e 25       		.byte	0x25
 2309 024f 09       		.uleb128 0x9
 2310 0250 99040000 		.4byte	.LASF49
 2311 0254 05       		.byte	0x5
 2312 0255 2A01     		.2byte	0x12a
 2313 0257 81000000 		.4byte	0x81
 2314 025b 26       		.byte	0x26
 2315 025c 09       		.uleb128 0x9
 2316 025d A6020000 		.4byte	.LASF50
 2317 0261 05       		.byte	0x5
 2318 0262 2B01     		.2byte	0x12b
 2319 0264 81000000 		.4byte	0x81
 2320 0268 27       		.byte	0x27
 2321 0269 09       		.uleb128 0x9
 2322 026a 00000000 		.4byte	.LASF51
 2323 026e 05       		.byte	0x5
 2324 026f 2C01     		.2byte	0x12c
 2325 0271 81000000 		.4byte	0x81
 2326 0275 28       		.byte	0x28
 2327 0276 09       		.uleb128 0x9
 2328 0277 EA040000 		.4byte	.LASF52
 2329 027b 05       		.byte	0x5
 2330 027c 2D01     		.2byte	0x12d
 2331 027e 81000000 		.4byte	0x81
 2332 0282 29       		.byte	0x29
 2333 0283 09       		.uleb128 0x9
 2334 0284 78010000 		.4byte	.LASF53
 2335 0288 05       		.byte	0x5
 2336 0289 2E01     		.2byte	0x12e
 2337 028b 81000000 		.4byte	0x81
 2338 028f 2A       		.byte	0x2a
 2339 0290 09       		.uleb128 0x9
 2340 0291 2D030000 		.4byte	.LASF54
 2341 0295 05       		.byte	0x5
 2342 0296 2F01     		.2byte	0x12f
 2343 0298 81000000 		.4byte	0x81
 2344 029c 2B       		.byte	0x2b
 2345 029d 09       		.uleb128 0x9
 2346 029e 91000000 		.4byte	.LASF55
 2347 02a2 05       		.byte	0x5
ARM GAS  C:\Users\PIET~1.COU\AppData\Local\Temp\ccUpISSh.s 			page 83


 2348 02a3 3101     		.2byte	0x131
 2349 02a5 81000000 		.4byte	0x81
 2350 02a9 2C       		.byte	0x2c
 2351 02aa 09       		.uleb128 0x9
 2352 02ab 87050000 		.4byte	.LASF56
 2353 02af 05       		.byte	0x5
 2354 02b0 3201     		.2byte	0x132
 2355 02b2 81000000 		.4byte	0x81
 2356 02b6 2D       		.byte	0x2d
 2357 02b7 09       		.uleb128 0x9
 2358 02b8 A0030000 		.4byte	.LASF57
 2359 02bc 05       		.byte	0x5
 2360 02bd 3401     		.2byte	0x134
 2361 02bf 81000000 		.4byte	0x81
 2362 02c3 2E       		.byte	0x2e
 2363 02c4 00       		.byte	0
 2364 02c5 0B       		.uleb128 0xb
 2365 02c6 81000000 		.4byte	0x81
 2366 02ca D5020000 		.4byte	0x2d5
 2367 02ce 0C       		.uleb128 0xc
 2368 02cf D4000000 		.4byte	0xd4
 2369 02d3 1B       		.byte	0x1b
 2370 02d4 00       		.byte	0
 2371 02d5 05       		.uleb128 0x5
 2372 02d6 6C050000 		.4byte	.LASF58
 2373 02da 05       		.byte	0x5
 2374 02db 3601     		.2byte	0x136
 2375 02dd B3010000 		.4byte	0x1b3
 2376 02e1 0D       		.uleb128 0xd
 2377 02e2 06020000 		.4byte	.LASF59
 2378 02e6 01       		.byte	0x1
 2379 02e7 8106     		.2byte	0x681
 2380 02e9 00000000 		.4byte	.LFB75
 2381 02ed C0010000 		.4byte	.LFE75-.LFB75
 2382 02f1 01       		.uleb128 0x1
 2383 02f2 9C       		.byte	0x9c
 2384 02f3 0D       		.uleb128 0xd
 2385 02f4 AC010000 		.4byte	.LASF60
 2386 02f8 01       		.byte	0x1
 2387 02f9 0407     		.2byte	0x704
 2388 02fb 00000000 		.4byte	.LFB76
 2389 02ff C0000000 		.4byte	.LFE76-.LFB76
 2390 0303 01       		.uleb128 0x1
 2391 0304 9C       		.byte	0x9c
 2392 0305 0E       		.uleb128 0xe
 2393 0306 BE010000 		.4byte	.LASF61
 2394 030a 01       		.byte	0x1
 2395 030b 51       		.byte	0x51
 2396 030c 00000000 		.4byte	.LFB63
 2397 0310 E0010000 		.4byte	.LFE63-.LFB63
 2398 0314 01       		.uleb128 0x1
 2399 0315 9C       		.byte	0x9c
 2400 0316 D7030000 		.4byte	0x3d7
 2401 031a 0F       		.uleb128 0xf
 2402 031b 3A000000 		.4byte	.LVL0
 2403 031f 55080000 		.4byte	0x855
 2404 0323 2E030000 		.4byte	0x32e
ARM GAS  C:\Users\PIET~1.COU\AppData\Local\Temp\ccUpISSh.s 			page 84


 2405 0327 10       		.uleb128 0x10
 2406 0328 01       		.uleb128 0x1
 2407 0329 50       		.byte	0x50
 2408 032a 02       		.uleb128 0x2
 2409 032b 08       		.byte	0x8
 2410 032c 37       		.byte	0x37
 2411 032d 00       		.byte	0
 2412 032e 11       		.uleb128 0x11
 2413 032f 9A000000 		.4byte	.LVL1
 2414 0333 66080000 		.4byte	0x866
 2415 0337 11       		.uleb128 0x11
 2416 0338 AE000000 		.4byte	.LVL2
 2417 033c 77080000 		.4byte	0x877
 2418 0340 0F       		.uleb128 0xf
 2419 0341 BA000000 		.4byte	.LVL3
 2420 0345 7E080000 		.4byte	0x87e
 2421 0349 53030000 		.4byte	0x353
 2422 034d 10       		.uleb128 0x10
 2423 034e 01       		.uleb128 0x1
 2424 034f 50       		.byte	0x50
 2425 0350 01       		.uleb128 0x1
 2426 0351 34       		.byte	0x34
 2427 0352 00       		.byte	0
 2428 0353 11       		.uleb128 0x11
 2429 0354 D8000000 		.4byte	.LVL4
 2430 0358 8F080000 		.4byte	0x88f
 2431 035c 0F       		.uleb128 0xf
 2432 035d DE000000 		.4byte	.LVL5
 2433 0361 A0080000 		.4byte	0x8a0
 2434 0365 6F030000 		.4byte	0x36f
 2435 0369 10       		.uleb128 0x10
 2436 036a 01       		.uleb128 0x1
 2437 036b 50       		.byte	0x50
 2438 036c 01       		.uleb128 0x1
 2439 036d 36       		.byte	0x36
 2440 036e 00       		.byte	0
 2441 036f 0F       		.uleb128 0xf
 2442 0370 06010000 		.4byte	.LVL6
 2443 0374 B1080000 		.4byte	0x8b1
 2444 0378 82030000 		.4byte	0x382
 2445 037c 10       		.uleb128 0x10
 2446 037d 01       		.uleb128 0x1
 2447 037e 50       		.byte	0x50
 2448 037f 01       		.uleb128 0x1
 2449 0380 30       		.byte	0x30
 2450 0381 00       		.byte	0
 2451 0382 11       		.uleb128 0x11
 2452 0383 30010000 		.4byte	.LVL7
 2453 0387 C2080000 		.4byte	0x8c2
 2454 038b 0F       		.uleb128 0xf
 2455 038c 42010000 		.4byte	.LVL8
 2456 0390 C9080000 		.4byte	0x8c9
 2457 0394 9E030000 		.4byte	0x39e
 2458 0398 10       		.uleb128 0x10
 2459 0399 01       		.uleb128 0x1
 2460 039a 50       		.byte	0x50
 2461 039b 01       		.uleb128 0x1
ARM GAS  C:\Users\PIET~1.COU\AppData\Local\Temp\ccUpISSh.s 			page 85


 2462 039c 30       		.byte	0x30
 2463 039d 00       		.byte	0
 2464 039e 0F       		.uleb128 0xf
 2465 039f 4E010000 		.4byte	.LVL9
 2466 03a3 66080000 		.4byte	0x866
 2467 03a7 B1030000 		.4byte	0x3b1
 2468 03ab 10       		.uleb128 0x10
 2469 03ac 01       		.uleb128 0x1
 2470 03ad 50       		.byte	0x50
 2471 03ae 01       		.uleb128 0x1
 2472 03af 30       		.byte	0x30
 2473 03b0 00       		.byte	0
 2474 03b1 0F       		.uleb128 0xf
 2475 03b2 66010000 		.4byte	.LVL10
 2476 03b6 DA080000 		.4byte	0x8da
 2477 03ba C4030000 		.4byte	0x3c4
 2478 03be 10       		.uleb128 0x10
 2479 03bf 01       		.uleb128 0x1
 2480 03c0 50       		.byte	0x50
 2481 03c1 01       		.uleb128 0x1
 2482 03c2 30       		.byte	0x30
 2483 03c3 00       		.byte	0
 2484 03c4 11       		.uleb128 0x11
 2485 03c5 76010000 		.4byte	.LVL11
 2486 03c9 55080000 		.4byte	0x855
 2487 03cd 11       		.uleb128 0x11
 2488 03ce 8A010000 		.4byte	.LVL12
 2489 03d2 EB080000 		.4byte	0x8eb
 2490 03d6 00       		.byte	0
 2491 03d7 12       		.uleb128 0x12
 2492 03d8 F3030000 		.4byte	.LASF62
 2493 03dc 01       		.byte	0x1
 2494 03dd 1B01     		.2byte	0x11b
 2495 03df 00000000 		.4byte	.LFB64
 2496 03e3 0C020000 		.4byte	.LFE64-.LFB64
 2497 03e7 01       		.uleb128 0x1
 2498 03e8 9C       		.byte	0x9c
 2499 03e9 08050000 		.4byte	0x508
 2500 03ed 13       		.uleb128 0x13
 2501 03ee 72040000 		.4byte	.LASF63
 2502 03f2 01       		.byte	0x1
 2503 03f3 1D01     		.2byte	0x11d
 2504 03f5 B7000000 		.4byte	0xb7
 2505 03f9 10       		.byte	0x10
 2506 03fa 14       		.uleb128 0x14
 2507 03fb 6900     		.ascii	"i\000"
 2508 03fd 01       		.byte	0x1
 2509 03fe 1E01     		.2byte	0x11e
 2510 0400 8C000000 		.4byte	0x8c
 2511 0404 00000000 		.4byte	.LLST0
 2512 0408 15       		.uleb128 0x15
 2513 0409 EB060000 		.4byte	.LASF64
 2514 040d 01       		.byte	0x1
 2515 040e 1F01     		.2byte	0x11f
 2516 0410 8C000000 		.4byte	0x8c
 2517 0414 38000000 		.4byte	.LLST1
 2518 0418 16       		.uleb128 0x16
ARM GAS  C:\Users\PIET~1.COU\AppData\Local\Temp\ccUpISSh.s 			page 86


 2519 0419 3F000000 		.4byte	.LASF65
 2520 041d 01       		.byte	0x1
 2521 041e 2301     		.2byte	0x123
 2522 0420 18050000 		.4byte	0x518
 2523 0424 02       		.uleb128 0x2
 2524 0425 91       		.byte	0x91
 2525 0426 60       		.sleb128 -32
 2526 0427 11       		.uleb128 0x11
 2527 0428 34000000 		.4byte	.LVL14
 2528 042c F2080000 		.4byte	0x8f2
 2529 0430 0F       		.uleb128 0xf
 2530 0431 4C000000 		.4byte	.LVL15
 2531 0435 55080000 		.4byte	0x855
 2532 0439 44040000 		.4byte	0x444
 2533 043d 10       		.uleb128 0x10
 2534 043e 01       		.uleb128 0x1
 2535 043f 50       		.byte	0x50
 2536 0440 02       		.uleb128 0x2
 2537 0441 08       		.byte	0x8
 2538 0442 37       		.byte	0x37
 2539 0443 00       		.byte	0
 2540 0444 0F       		.uleb128 0xf
 2541 0445 5E000000 		.4byte	.LVL16
 2542 0449 03090000 		.4byte	0x903
 2543 044d 57040000 		.4byte	0x457
 2544 0451 10       		.uleb128 0x10
 2545 0452 01       		.uleb128 0x1
 2546 0453 50       		.byte	0x50
 2547 0454 01       		.uleb128 0x1
 2548 0455 30       		.byte	0x30
 2549 0456 00       		.byte	0
 2550 0457 11       		.uleb128 0x11
 2551 0458 78000000 		.4byte	.LVL18
 2552 045c F2080000 		.4byte	0x8f2
 2553 0460 11       		.uleb128 0x11
 2554 0461 9A000000 		.4byte	.LVL21
 2555 0465 C9080000 		.4byte	0x8c9
 2556 0469 11       		.uleb128 0x11
 2557 046a A2000000 		.4byte	.LVL22
 2558 046e 66080000 		.4byte	0x866
 2559 0472 0F       		.uleb128 0xf
 2560 0473 C2000000 		.4byte	.LVL23
 2561 0477 7E080000 		.4byte	0x87e
 2562 047b 85040000 		.4byte	0x485
 2563 047f 10       		.uleb128 0x10
 2564 0480 01       		.uleb128 0x1
 2565 0481 50       		.byte	0x50
 2566 0482 01       		.uleb128 0x1
 2567 0483 38       		.byte	0x38
 2568 0484 00       		.byte	0
 2569 0485 11       		.uleb128 0x11
 2570 0486 D4000000 		.4byte	.LVL24
 2571 048a 7E080000 		.4byte	0x87e
 2572 048e 11       		.uleb128 0x11
 2573 048f 06010000 		.4byte	.LVL25
 2574 0493 8F080000 		.4byte	0x88f
 2575 0497 11       		.uleb128 0x11
ARM GAS  C:\Users\PIET~1.COU\AppData\Local\Temp\ccUpISSh.s 			page 87


 2576 0498 0E010000 		.4byte	.LVL26
 2577 049c B1080000 		.4byte	0x8b1
 2578 04a0 11       		.uleb128 0x11
 2579 04a1 1A010000 		.4byte	.LVL27
 2580 04a5 18090000 		.4byte	0x918
 2581 04a9 0F       		.uleb128 0xf
 2582 04aa 4E010000 		.4byte	.LVL28
 2583 04ae 1F090000 		.4byte	0x91f
 2584 04b2 BC040000 		.4byte	0x4bc
 2585 04b6 10       		.uleb128 0x10
 2586 04b7 01       		.uleb128 0x1
 2587 04b8 50       		.byte	0x50
 2588 04b9 01       		.uleb128 0x1
 2589 04ba 30       		.byte	0x30
 2590 04bb 00       		.byte	0
 2591 04bc 0F       		.uleb128 0xf
 2592 04bd 54010000 		.4byte	.LVL29
 2593 04c1 A0080000 		.4byte	0x8a0
 2594 04c5 D0040000 		.4byte	0x4d0
 2595 04c9 10       		.uleb128 0x10
 2596 04ca 01       		.uleb128 0x1
 2597 04cb 50       		.byte	0x50
 2598 04cc 02       		.uleb128 0x2
 2599 04cd 08       		.byte	0x8
 2600 04ce 50       		.byte	0x50
 2601 04cf 00       		.byte	0
 2602 04d0 0F       		.uleb128 0xf
 2603 04d1 62010000 		.4byte	.LVL31
 2604 04d5 A0080000 		.4byte	0x8a0
 2605 04d9 E3040000 		.4byte	0x4e3
 2606 04dd 10       		.uleb128 0x10
 2607 04de 01       		.uleb128 0x1
 2608 04df 50       		.byte	0x50
 2609 04e0 01       		.uleb128 0x1
 2610 04e1 31       		.byte	0x31
 2611 04e2 00       		.byte	0
 2612 04e3 11       		.uleb128 0x11
 2613 04e4 8C010000 		.4byte	.LVL34
 2614 04e8 C9080000 		.4byte	0x8c9
 2615 04ec 11       		.uleb128 0x11
 2616 04ed 94010000 		.4byte	.LVL35
 2617 04f1 66080000 		.4byte	0x866
 2618 04f5 11       		.uleb128 0x11
 2619 04f6 A6010000 		.4byte	.LVL36
 2620 04fa 34090000 		.4byte	0x934
 2621 04fe 11       		.uleb128 0x11
 2622 04ff BC010000 		.4byte	.LVL40
 2623 0503 DA080000 		.4byte	0x8da
 2624 0507 00       		.byte	0
 2625 0508 0B       		.uleb128 0xb
 2626 0509 81000000 		.4byte	0x81
 2627 050d 18050000 		.4byte	0x518
 2628 0511 0C       		.uleb128 0xc
 2629 0512 D4000000 		.4byte	0xd4
 2630 0516 06       		.byte	0x6
 2631 0517 00       		.byte	0
 2632 0518 17       		.uleb128 0x17
ARM GAS  C:\Users\PIET~1.COU\AppData\Local\Temp\ccUpISSh.s 			page 88


 2633 0519 08050000 		.4byte	0x508
 2634 051d 12       		.uleb128 0x12
 2635 051e 43030000 		.4byte	.LASF66
 2636 0522 01       		.byte	0x1
 2637 0523 8502     		.2byte	0x285
 2638 0525 00000000 		.4byte	.LFB65
 2639 0529 60000000 		.4byte	.LFE65-.LFB65
 2640 052d 01       		.uleb128 0x1
 2641 052e 9C       		.byte	0x9c
 2642 052f 54050000 		.4byte	0x554
 2643 0533 18       		.uleb128 0x18
 2644 0534 D4040000 		.4byte	.LASF67
 2645 0538 01       		.byte	0x1
 2646 0539 8502     		.2byte	0x285
 2647 053b 8C000000 		.4byte	0x8c
 2648 053f 64000000 		.4byte	.LLST2
 2649 0543 18       		.uleb128 0x18
 2650 0544 7D060000 		.4byte	.LASF68
 2651 0548 01       		.byte	0x1
 2652 0549 8502     		.2byte	0x285
 2653 054b 8C000000 		.4byte	0x8c
 2654 054f 85000000 		.4byte	.LLST3
 2655 0553 00       		.byte	0
 2656 0554 12       		.uleb128 0x12
 2657 0555 5E000000 		.4byte	.LASF69
 2658 0559 01       		.byte	0x1
 2659 055a 5103     		.2byte	0x351
 2660 055c 00000000 		.4byte	.LFB66
 2661 0560 E4000000 		.4byte	.LFE66-.LFB66
 2662 0564 01       		.uleb128 0x1
 2663 0565 9C       		.byte	0x9c
 2664 0566 BF050000 		.4byte	0x5bf
 2665 056a 18       		.uleb128 0x18
 2666 056b D4040000 		.4byte	.LASF67
 2667 056f 01       		.byte	0x1
 2668 0570 5103     		.2byte	0x351
 2669 0572 81000000 		.4byte	0x81
 2670 0576 A6000000 		.4byte	.LLST4
 2671 057a 18       		.uleb128 0x18
 2672 057b 7D060000 		.4byte	.LASF68
 2673 057f 01       		.byte	0x1
 2674 0580 5103     		.2byte	0x351
 2675 0582 8C000000 		.4byte	0x8c
 2676 0586 C7000000 		.4byte	.LLST5
 2677 058a 15       		.uleb128 0x15
 2678 058b 0B050000 		.4byte	.LASF70
 2679 058f 01       		.byte	0x1
 2680 0590 5303     		.2byte	0x353
 2681 0592 81000000 		.4byte	0x81
 2682 0596 E8000000 		.4byte	.LLST6
 2683 059a 11       		.uleb128 0x11
 2684 059b 0A000000 		.4byte	.LVL45
 2685 059f 3B090000 		.4byte	0x93b
 2686 05a3 11       		.uleb128 0x11
 2687 05a4 30000000 		.4byte	.LVL47
 2688 05a8 E1020000 		.4byte	0x2e1
 2689 05ac 11       		.uleb128 0x11
ARM GAS  C:\Users\PIET~1.COU\AppData\Local\Temp\ccUpISSh.s 			page 89


 2690 05ad B6000000 		.4byte	.LVL48
 2691 05b1 F3020000 		.4byte	0x2f3
 2692 05b5 19       		.uleb128 0x19
 2693 05b6 CC000000 		.4byte	.LVL49
 2694 05ba 46090000 		.4byte	0x946
 2695 05be 00       		.byte	0
 2696 05bf 1A       		.uleb128 0x1a
 2697 05c0 13060000 		.4byte	.LASF71
 2698 05c4 01       		.byte	0x1
 2699 05c5 5805     		.2byte	0x558
 2700 05c7 01       		.byte	0x1
 2701 05c8 1A       		.uleb128 0x1a
 2702 05c9 13000000 		.4byte	.LASF72
 2703 05cd 01       		.byte	0x1
 2704 05ce 5107     		.2byte	0x751
 2705 05d0 01       		.byte	0x1
 2706 05d1 1A       		.uleb128 0x1a
 2707 05d2 6E060000 		.4byte	.LASF73
 2708 05d6 01       		.byte	0x1
 2709 05d7 B205     		.2byte	0x5b2
 2710 05d9 01       		.byte	0x1
 2711 05da 1A       		.uleb128 0x1a
 2712 05db 79040000 		.4byte	.LASF74
 2713 05df 01       		.byte	0x1
 2714 05e0 9007     		.2byte	0x790
 2715 05e2 01       		.byte	0x1
 2716 05e3 12       		.uleb128 0x12
 2717 05e4 E3000000 		.4byte	.LASF75
 2718 05e8 01       		.byte	0x1
 2719 05e9 A904     		.2byte	0x4a9
 2720 05eb 00000000 		.4byte	.LFB68
 2721 05ef 70020000 		.4byte	.LFE68-.LFB68
 2722 05f3 01       		.uleb128 0x1
 2723 05f4 9C       		.byte	0x9c
 2724 05f5 F6060000 		.4byte	0x6f6
 2725 05f9 18       		.uleb128 0x18
 2726 05fa 7D060000 		.4byte	.LASF68
 2727 05fe 01       		.byte	0x1
 2728 05ff A904     		.2byte	0x4a9
 2729 0601 8C000000 		.4byte	0x8c
 2730 0605 FB000000 		.4byte	.LLST7
 2731 0609 15       		.uleb128 0x15
 2732 060a 0B050000 		.4byte	.LASF70
 2733 060e 01       		.byte	0x1
 2734 060f AB04     		.2byte	0x4ab
 2735 0611 81000000 		.4byte	0x81
 2736 0615 1C010000 		.4byte	.LLST8
 2737 0619 1B       		.uleb128 0x1b
 2738 061a BF050000 		.4byte	0x5bf
 2739 061e 18000000 		.4byte	.LBB10
 2740 0622 00000000 		.4byte	.Ldebug_ranges0+0
 2741 0626 01       		.byte	0x1
 2742 0627 C504     		.2byte	0x4c5
 2743 0629 7A060000 		.4byte	0x67a
 2744 062d 1C       		.uleb128 0x1c
 2745 062e C8050000 		.4byte	0x5c8
 2746 0632 6E000000 		.4byte	.LBB12
ARM GAS  C:\Users\PIET~1.COU\AppData\Local\Temp\ccUpISSh.s 			page 90


 2747 0636 7E000000 		.4byte	.LBE12-.LBB12
 2748 063a 01       		.byte	0x1
 2749 063b 8D05     		.2byte	0x58d
 2750 063d 5D060000 		.4byte	0x65d
 2751 0641 11       		.uleb128 0x11
 2752 0642 9A000000 		.4byte	.LVL55
 2753 0646 57090000 		.4byte	0x957
 2754 064a 11       		.uleb128 0x11
 2755 064b CA000000 		.4byte	.LVL56
 2756 064f 5E090000 		.4byte	0x95e
 2757 0653 11       		.uleb128 0x11
 2758 0654 E6000000 		.4byte	.LVL57
 2759 0658 65090000 		.4byte	0x965
 2760 065c 00       		.byte	0
 2761 065d 0F       		.uleb128 0xf
 2762 065e 36000000 		.4byte	.LVL54
 2763 0662 6C090000 		.4byte	0x96c
 2764 0666 70060000 		.4byte	0x670
 2765 066a 10       		.uleb128 0x10
 2766 066b 01       		.uleb128 0x1
 2767 066c 50       		.byte	0x50
 2768 066d 01       		.uleb128 0x1
 2769 066e 31       		.byte	0x31
 2770 066f 00       		.byte	0
 2771 0670 11       		.uleb128 0x11
 2772 0671 F4000000 		.4byte	.LVL58
 2773 0675 E1020000 		.4byte	0x2e1
 2774 0679 00       		.byte	0
 2775 067a 1C       		.uleb128 0x1c
 2776 067b D1050000 		.4byte	0x5d1
 2777 067f 9C010000 		.4byte	.LBB20
 2778 0683 7A000000 		.4byte	.LBE20-.LBB20
 2779 0687 01       		.byte	0x1
 2780 0688 0305     		.2byte	0x503
 2781 068a E3060000 		.4byte	0x6e3
 2782 068e 1C       		.uleb128 0x1c
 2783 068f DA050000 		.4byte	0x5da
 2784 0693 9C010000 		.4byte	.LBB22
 2785 0697 38000000 		.4byte	.LBE22-.LBB22
 2786 069b 01       		.byte	0x1
 2787 069c B505     		.2byte	0x5b5
 2788 069e BE060000 		.4byte	0x6be
 2789 06a2 11       		.uleb128 0x11
 2790 06a3 B2010000 		.4byte	.LVL59
 2791 06a7 81090000 		.4byte	0x981
 2792 06ab 11       		.uleb128 0x11
 2793 06ac C8010000 		.4byte	.LVL60
 2794 06b0 97090000 		.4byte	0x997
 2795 06b4 11       		.uleb128 0x11
 2796 06b5 D4010000 		.4byte	.LVL61
 2797 06b9 AD090000 		.4byte	0x9ad
 2798 06bd 00       		.byte	0
 2799 06be 11       		.uleb128 0x11
 2800 06bf D8010000 		.4byte	.LVL62
 2801 06c3 F3020000 		.4byte	0x2f3
 2802 06c7 11       		.uleb128 0x11
 2803 06c8 E4010000 		.4byte	.LVL63
ARM GAS  C:\Users\PIET~1.COU\AppData\Local\Temp\ccUpISSh.s 			page 91


 2804 06cc B4090000 		.4byte	0x9b4
 2805 06d0 11       		.uleb128 0x11
 2806 06d1 F0010000 		.4byte	.LVL64
 2807 06d5 BB090000 		.4byte	0x9bb
 2808 06d9 11       		.uleb128 0x11
 2809 06da F8010000 		.4byte	.LVL65
 2810 06de 6C090000 		.4byte	0x96c
 2811 06e2 00       		.byte	0
 2812 06e3 11       		.uleb128 0x11
 2813 06e4 0A000000 		.4byte	.LVL51
 2814 06e8 3B090000 		.4byte	0x93b
 2815 06ec 19       		.uleb128 0x19
 2816 06ed 36020000 		.4byte	.LVL66
 2817 06f1 46090000 		.4byte	0x946
 2818 06f5 00       		.byte	0
 2819 06f6 12       		.uleb128 0x12
 2820 06f7 58030000 		.4byte	.LASF76
 2821 06fb 01       		.byte	0x1
 2822 06fc 6704     		.2byte	0x467
 2823 06fe 00000000 		.4byte	.LFB67
 2824 0702 06000000 		.4byte	.LFE67-.LFB67
 2825 0706 01       		.uleb128 0x1
 2826 0707 9C       		.byte	0x9c
 2827 0708 1D070000 		.4byte	0x71d
 2828 070c 1D       		.uleb128 0x1d
 2829 070d 06000000 		.4byte	.LVL67
 2830 0711 E3050000 		.4byte	0x5e3
 2831 0715 10       		.uleb128 0x10
 2832 0716 01       		.uleb128 0x1
 2833 0717 50       		.byte	0x50
 2834 0718 02       		.uleb128 0x2
 2835 0719 08       		.byte	0x8
 2836 071a 40       		.byte	0x40
 2837 071b 00       		.byte	0
 2838 071c 00       		.byte	0
 2839 071d 1E       		.uleb128 0x1e
 2840 071e 91030000 		.4byte	.LASF118
 2841 0722 01       		.byte	0x1
 2842 0723 2C05     		.2byte	0x52c
 2843 0725 81000000 		.4byte	0x81
 2844 0729 00000000 		.4byte	.LFB69
 2845 072d 30000000 		.4byte	.LFE69-.LFB69
 2846 0731 01       		.uleb128 0x1
 2847 0732 9C       		.byte	0x9c
 2848 0733 8C070000 		.4byte	0x78c
 2849 0737 18       		.uleb128 0x18
 2850 0738 0F070000 		.4byte	.LASF77
 2851 073c 01       		.byte	0x1
 2852 073d 2C05     		.2byte	0x52c
 2853 073f 81000000 		.4byte	0x81
 2854 0743 30010000 		.4byte	.LLST9
 2855 0747 16       		.uleb128 0x16
 2856 0748 55060000 		.4byte	.LASF78
 2857 074c 01       		.byte	0x1
 2858 074d 2E05     		.2byte	0x52e
 2859 074f 81000000 		.4byte	0x81
 2860 0753 05       		.uleb128 0x5
ARM GAS  C:\Users\PIET~1.COU\AppData\Local\Temp\ccUpISSh.s 			page 92


 2861 0754 03       		.byte	0x3
 2862 0755 42000000 		.4byte	interruptStatus.5629
 2863 0759 15       		.uleb128 0x15
 2864 075a 0B050000 		.4byte	.LASF70
 2865 075e 01       		.byte	0x1
 2866 075f 2F05     		.2byte	0x52f
 2867 0761 81000000 		.4byte	0x81
 2868 0765 51010000 		.4byte	.LLST10
 2869 0769 15       		.uleb128 0x15
 2870 076a 09000000 		.4byte	.LASF79
 2871 076e 01       		.byte	0x1
 2872 076f 3005     		.2byte	0x530
 2873 0771 81000000 		.4byte	0x81
 2874 0775 64010000 		.4byte	.LLST11
 2875 0779 11       		.uleb128 0x11
 2876 077a 08000000 		.4byte	.LVL69
 2877 077e 3B090000 		.4byte	0x93b
 2878 0782 11       		.uleb128 0x11
 2879 0783 20000000 		.4byte	.LVL71
 2880 0787 46090000 		.4byte	0x946
 2881 078b 00       		.byte	0
 2882 078c 12       		.uleb128 0x12
 2883 078d 2C060000 		.4byte	.LASF80
 2884 0791 01       		.byte	0x1
 2885 0792 EF05     		.2byte	0x5ef
 2886 0794 00000000 		.4byte	.LFB72
 2887 0798 50000000 		.4byte	.LFE72-.LFB72
 2888 079c 01       		.uleb128 0x1
 2889 079d 9C       		.byte	0x9c
 2890 079e BC070000 		.4byte	0x7bc
 2891 07a2 18       		.uleb128 0x18
 2892 07a3 36040000 		.4byte	.LASF81
 2893 07a7 01       		.byte	0x1
 2894 07a8 EF05     		.2byte	0x5ef
 2895 07aa 81000000 		.4byte	0x81
 2896 07ae 7B010000 		.4byte	.LLST12
 2897 07b2 11       		.uleb128 0x11
 2898 07b3 12000000 		.4byte	.LVL74
 2899 07b7 B4090000 		.4byte	0x9b4
 2900 07bb 00       		.byte	0
 2901 07bc 12       		.uleb128 0x12
 2902 07bd D1050000 		.4byte	.LASF82
 2903 07c1 01       		.byte	0x1
 2904 07c2 2306     		.2byte	0x623
 2905 07c4 00000000 		.4byte	.LFB73
 2906 07c8 2C000000 		.4byte	.LFE73-.LFB73
 2907 07cc 01       		.uleb128 0x1
 2908 07cd 9C       		.byte	0x9c
 2909 07ce DC070000 		.4byte	0x7dc
 2910 07d2 11       		.uleb128 0x11
 2911 07d3 0E000000 		.4byte	.LVL75
 2912 07d7 C2090000 		.4byte	0x9c2
 2913 07db 00       		.byte	0
 2914 07dc 12       		.uleb128 0x12
 2915 07dd A2060000 		.4byte	.LASF83
 2916 07e1 01       		.byte	0x1
 2917 07e2 4806     		.2byte	0x648
ARM GAS  C:\Users\PIET~1.COU\AppData\Local\Temp\ccUpISSh.s 			page 93


 2918 07e4 00000000 		.4byte	.LFB74
 2919 07e8 50000000 		.4byte	.LFE74-.LFB74
 2920 07ec 01       		.uleb128 0x1
 2921 07ed 9C       		.byte	0x9c
 2922 07ee 0C080000 		.4byte	0x80c
 2923 07f2 18       		.uleb128 0x18
 2924 07f3 E4010000 		.4byte	.LASF84
 2925 07f7 01       		.byte	0x1
 2926 07f8 4806     		.2byte	0x648
 2927 07fa 81000000 		.4byte	0x81
 2928 07fe 9C010000 		.4byte	.LLST13
 2929 0802 11       		.uleb128 0x11
 2930 0803 12000000 		.4byte	.LVL77
 2931 0807 BB090000 		.4byte	0x9bb
 2932 080b 00       		.byte	0
 2933 080c 1F       		.uleb128 0x1f
 2934 080d DF040000 		.4byte	.LASF85
 2935 0811 01       		.byte	0x1
 2936 0812 20       		.byte	0x20
 2937 0813 D5020000 		.4byte	0x2d5
 2938 0817 05       		.uleb128 0x5
 2939 0818 03       		.byte	0x3
 2940 0819 00000000 		.4byte	cyPmBackup
 2941 081d 1F       		.uleb128 0x1f
 2942 081e FF060000 		.4byte	.LASF86
 2943 0822 01       		.byte	0x1
 2944 0823 21       		.byte	0x21
 2945 0824 A7010000 		.4byte	0x1a7
 2946 0828 05       		.uleb128 0x5
 2947 0829 03       		.byte	0x3
 2948 082a 30000000 		.4byte	cyPmClockBackup
 2949 082e 1F       		.uleb128 0x1f
 2950 082f 42040000 		.4byte	.LASF87
 2951 0833 01       		.byte	0x1
 2952 0834 24       		.byte	0x24
 2953 0835 3F080000 		.4byte	0x83f
 2954 0839 05       		.uleb128 0x5
 2955 083a 03       		.byte	0x3
 2956 083b 00000000 		.4byte	cyPmImoFreqReg2Mhz
 2957 083f 17       		.uleb128 0x17
 2958 0840 08050000 		.4byte	0x508
 2959 0844 20       		.uleb128 0x20
 2960 0845 D1060000 		.4byte	.LASF119
 2961 0849 08       		.byte	0x8
 2962 084a 2A06     		.2byte	0x62a
 2963 084c 50080000 		.4byte	0x850
 2964 0850 06       		.uleb128 0x6
 2965 0851 76000000 		.4byte	0x76
 2966 0855 21       		.uleb128 0x21
 2967 0856 F0010000 		.4byte	.LASF88
 2968 085a 06       		.byte	0x6
 2969 085b 51       		.byte	0x51
 2970 085c 66080000 		.4byte	0x866
 2971 0860 22       		.uleb128 0x22
 2972 0861 81000000 		.4byte	0x81
 2973 0865 00       		.byte	0
 2974 0866 21       		.uleb128 0x21
ARM GAS  C:\Users\PIET~1.COU\AppData\Local\Temp\ccUpISSh.s 			page 94


 2975 0867 3F060000 		.4byte	.LASF89
 2976 086b 07       		.byte	0x7
 2977 086c 4E       		.byte	0x4e
 2978 086d 77080000 		.4byte	0x877
 2979 0871 22       		.uleb128 0x22
 2980 0872 81000000 		.4byte	0x81
 2981 0876 00       		.byte	0
 2982 0877 23       		.uleb128 0x23
 2983 0878 B5060000 		.4byte	.LASF94
 2984 087c 07       		.byte	0x7
 2985 087d 43       		.byte	0x43
 2986 087e 21       		.uleb128 0x21
 2987 087f 17030000 		.4byte	.LASF90
 2988 0883 07       		.byte	0x7
 2989 0884 49       		.byte	0x49
 2990 0885 8F080000 		.4byte	0x88f
 2991 0889 22       		.uleb128 0x22
 2992 088a 81000000 		.4byte	0x81
 2993 088e 00       		.byte	0
 2994 088f 21       		.uleb128 0x21
 2995 0890 96060000 		.4byte	.LASF91
 2996 0894 07       		.byte	0x7
 2997 0895 47       		.byte	0x47
 2998 0896 A0080000 		.4byte	0x8a0
 2999 089a 22       		.uleb128 0x22
 3000 089b 81000000 		.4byte	0x81
 3001 089f 00       		.byte	0
 3002 08a0 21       		.uleb128 0x21
 3003 08a1 4E030000 		.4byte	.LASF92
 3004 08a5 07       		.byte	0x7
 3005 08a6 78       		.byte	0x78
 3006 08a7 B1080000 		.4byte	0x8b1
 3007 08ab 22       		.uleb128 0x22
 3008 08ac 8C000000 		.4byte	0x8c
 3009 08b0 00       		.byte	0
 3010 08b1 21       		.uleb128 0x21
 3011 08b2 E6020000 		.4byte	.LASF93
 3012 08b6 07       		.byte	0x7
 3013 08b7 4A       		.byte	0x4a
 3014 08b8 C2080000 		.4byte	0x8c2
 3015 08bc 22       		.uleb128 0x22
 3016 08bd 81000000 		.4byte	0x81
 3017 08c1 00       		.byte	0
 3018 08c2 23       		.uleb128 0x23
 3019 08c3 B3020000 		.4byte	.LASF95
 3020 08c7 07       		.byte	0x7
 3021 08c8 4C       		.byte	0x4c
 3022 08c9 21       		.uleb128 0x21
 3023 08ca 66030000 		.4byte	.LASF96
 3024 08ce 07       		.byte	0x7
 3025 08cf 4F       		.byte	0x4f
 3026 08d0 DA080000 		.4byte	0x8da
 3027 08d4 22       		.uleb128 0x22
 3028 08d5 81000000 		.4byte	0x81
 3029 08d9 00       		.byte	0
 3030 08da 21       		.uleb128 0x21
 3031 08db 7D030000 		.4byte	.LASF97
ARM GAS  C:\Users\PIET~1.COU\AppData\Local\Temp\ccUpISSh.s 			page 95


 3032 08df 07       		.byte	0x7
 3033 08e0 50       		.byte	0x50
 3034 08e1 EB080000 		.4byte	0x8eb
 3035 08e5 22       		.uleb128 0x22
 3036 08e6 8C000000 		.4byte	0x8c
 3037 08ea 00       		.byte	0
 3038 08eb 23       		.uleb128 0x23
 3039 08ec D0030000 		.4byte	.LASF98
 3040 08f0 07       		.byte	0x7
 3041 08f1 67       		.byte	0x67
 3042 08f2 21       		.uleb128 0x21
 3043 08f3 28040000 		.4byte	.LASF99
 3044 08f7 07       		.byte	0x7
 3045 08f8 7A       		.byte	0x7a
 3046 08f9 03090000 		.4byte	0x903
 3047 08fd 22       		.uleb128 0x22
 3048 08fe 97000000 		.4byte	0x97
 3049 0902 00       		.byte	0
 3050 0903 24       		.uleb128 0x24
 3051 0904 9F010000 		.4byte	.LASF101
 3052 0908 07       		.byte	0x7
 3053 0909 66       		.byte	0x66
 3054 090a B7000000 		.4byte	0xb7
 3055 090e 18090000 		.4byte	0x918
 3056 0912 22       		.uleb128 0x22
 3057 0913 81000000 		.4byte	0x81
 3058 0917 00       		.byte	0
 3059 0918 23       		.uleb128 0x23
 3060 0919 58050000 		.4byte	.LASF100
 3061 091d 07       		.byte	0x7
 3062 091e 4B       		.byte	0x4b
 3063 091f 24       		.uleb128 0x24
 3064 0920 C8020000 		.4byte	.LASF102
 3065 0924 07       		.byte	0x7
 3066 0925 42       		.byte	0x42
 3067 0926 B7000000 		.4byte	0xb7
 3068 092a 34090000 		.4byte	0x934
 3069 092e 22       		.uleb128 0x22
 3070 092f 81000000 		.4byte	0x81
 3071 0933 00       		.byte	0
 3072 0934 23       		.uleb128 0x23
 3073 0935 DD050000 		.4byte	.LASF103
 3074 0939 07       		.byte	0x7
 3075 093a 48       		.byte	0x48
 3076 093b 25       		.uleb128 0x25
 3077 093c AA040000 		.4byte	.LASF120
 3078 0940 07       		.byte	0x7
 3079 0941 7E       		.byte	0x7e
 3080 0942 81000000 		.4byte	0x81
 3081 0946 21       		.uleb128 0x21
 3082 0947 29000000 		.4byte	.LASF104
 3083 094b 07       		.byte	0x7
 3084 094c 7F       		.byte	0x7f
 3085 094d 57090000 		.4byte	0x957
 3086 0951 22       		.uleb128 0x22
 3087 0952 81000000 		.4byte	0x81
 3088 0956 00       		.byte	0
ARM GAS  C:\Users\PIET~1.COU\AppData\Local\Temp\ccUpISSh.s 			page 96


 3089 0957 23       		.uleb128 0x23
 3090 0958 41010000 		.4byte	.LASF105
 3091 095c 07       		.byte	0x7
 3092 095d 9D       		.byte	0x9d
 3093 095e 23       		.uleb128 0x23
 3094 095f 24010000 		.4byte	.LASF106
 3095 0963 07       		.byte	0x7
 3096 0964 9E       		.byte	0x9e
 3097 0965 23       		.uleb128 0x23
 3098 0966 CF000000 		.4byte	.LASF107
 3099 096a 07       		.byte	0x7
 3100 096b A0       		.byte	0xa0
 3101 096c 24       		.uleb128 0x24
 3102 096d 1A050000 		.4byte	.LASF108
 3103 0971 07       		.byte	0x7
 3104 0972 5F       		.byte	0x5f
 3105 0973 81000000 		.4byte	0x81
 3106 0977 81090000 		.4byte	0x981
 3107 097b 22       		.uleb128 0x22
 3108 097c 81000000 		.4byte	0x81
 3109 0980 00       		.byte	0
 3110 0981 21       		.uleb128 0x21
 3111 0982 7F000000 		.4byte	.LASF109
 3112 0986 07       		.byte	0x7
 3113 0987 9B       		.byte	0x9b
 3114 0988 97090000 		.4byte	0x997
 3115 098c 22       		.uleb128 0x22
 3116 098d 81000000 		.4byte	0x81
 3117 0991 22       		.uleb128 0x22
 3118 0992 81000000 		.4byte	0x81
 3119 0996 00       		.byte	0
 3120 0997 21       		.uleb128 0x21
 3121 0998 0B040000 		.4byte	.LASF110
 3122 099c 07       		.byte	0x7
 3123 099d 9C       		.byte	0x9c
 3124 099e AD090000 		.4byte	0x9ad
 3125 09a2 22       		.uleb128 0x22
 3126 09a3 81000000 		.4byte	0x81
 3127 09a7 22       		.uleb128 0x22
 3128 09a8 81000000 		.4byte	0x81
 3129 09ac 00       		.byte	0
 3130 09ad 23       		.uleb128 0x23
 3131 09ae 9C000000 		.4byte	.LASF111
 3132 09b2 07       		.byte	0x7
 3133 09b3 9F       		.byte	0x9f
 3134 09b4 23       		.uleb128 0x23
 3135 09b5 09030000 		.4byte	.LASF112
 3136 09b9 07       		.byte	0x7
 3137 09ba 58       		.byte	0x58
 3138 09bb 23       		.uleb128 0x23
 3139 09bc 14070000 		.4byte	.LASF113
 3140 09c0 07       		.byte	0x7
 3141 09c1 5A       		.byte	0x5a
 3142 09c2 23       		.uleb128 0x23
 3143 09c3 BE050000 		.4byte	.LASF114
 3144 09c7 07       		.byte	0x7
 3145 09c8 63       		.byte	0x63
ARM GAS  C:\Users\PIET~1.COU\AppData\Local\Temp\ccUpISSh.s 			page 97


 3146 09c9 00       		.byte	0
 3147              		.section	.debug_abbrev,"",%progbits
 3148              	.Ldebug_abbrev0:
 3149 0000 01       		.uleb128 0x1
 3150 0001 11       		.uleb128 0x11
 3151 0002 01       		.byte	0x1
 3152 0003 25       		.uleb128 0x25
 3153 0004 0E       		.uleb128 0xe
 3154 0005 13       		.uleb128 0x13
 3155 0006 0B       		.uleb128 0xb
 3156 0007 03       		.uleb128 0x3
 3157 0008 0E       		.uleb128 0xe
 3158 0009 1B       		.uleb128 0x1b
 3159 000a 0E       		.uleb128 0xe
 3160 000b 55       		.uleb128 0x55
 3161 000c 17       		.uleb128 0x17
 3162 000d 11       		.uleb128 0x11
 3163 000e 01       		.uleb128 0x1
 3164 000f 10       		.uleb128 0x10
 3165 0010 17       		.uleb128 0x17
 3166 0011 00       		.byte	0
 3167 0012 00       		.byte	0
 3168 0013 02       		.uleb128 0x2
 3169 0014 24       		.uleb128 0x24
 3170 0015 00       		.byte	0
 3171 0016 0B       		.uleb128 0xb
 3172 0017 0B       		.uleb128 0xb
 3173 0018 3E       		.uleb128 0x3e
 3174 0019 0B       		.uleb128 0xb
 3175 001a 03       		.uleb128 0x3
 3176 001b 0E       		.uleb128 0xe
 3177 001c 00       		.byte	0
 3178 001d 00       		.byte	0
 3179 001e 03       		.uleb128 0x3
 3180 001f 16       		.uleb128 0x16
 3181 0020 00       		.byte	0
 3182 0021 03       		.uleb128 0x3
 3183 0022 0E       		.uleb128 0xe
 3184 0023 3A       		.uleb128 0x3a
 3185 0024 0B       		.uleb128 0xb
 3186 0025 3B       		.uleb128 0x3b
 3187 0026 0B       		.uleb128 0xb
 3188 0027 49       		.uleb128 0x49
 3189 0028 13       		.uleb128 0x13
 3190 0029 00       		.byte	0
 3191 002a 00       		.byte	0
 3192 002b 04       		.uleb128 0x4
 3193 002c 24       		.uleb128 0x24
 3194 002d 00       		.byte	0
 3195 002e 0B       		.uleb128 0xb
 3196 002f 0B       		.uleb128 0xb
 3197 0030 3E       		.uleb128 0x3e
 3198 0031 0B       		.uleb128 0xb
 3199 0032 03       		.uleb128 0x3
 3200 0033 08       		.uleb128 0x8
 3201 0034 00       		.byte	0
 3202 0035 00       		.byte	0
ARM GAS  C:\Users\PIET~1.COU\AppData\Local\Temp\ccUpISSh.s 			page 98


 3203 0036 05       		.uleb128 0x5
 3204 0037 16       		.uleb128 0x16
 3205 0038 00       		.byte	0
 3206 0039 03       		.uleb128 0x3
 3207 003a 0E       		.uleb128 0xe
 3208 003b 3A       		.uleb128 0x3a
 3209 003c 0B       		.uleb128 0xb
 3210 003d 3B       		.uleb128 0x3b
 3211 003e 05       		.uleb128 0x5
 3212 003f 49       		.uleb128 0x49
 3213 0040 13       		.uleb128 0x13
 3214 0041 00       		.byte	0
 3215 0042 00       		.byte	0
 3216 0043 06       		.uleb128 0x6
 3217 0044 35       		.uleb128 0x35
 3218 0045 00       		.byte	0
 3219 0046 49       		.uleb128 0x49
 3220 0047 13       		.uleb128 0x13
 3221 0048 00       		.byte	0
 3222 0049 00       		.byte	0
 3223 004a 07       		.uleb128 0x7
 3224 004b 13       		.uleb128 0x13
 3225 004c 01       		.byte	0x1
 3226 004d 03       		.uleb128 0x3
 3227 004e 0E       		.uleb128 0xe
 3228 004f 0B       		.uleb128 0xb
 3229 0050 0B       		.uleb128 0xb
 3230 0051 3A       		.uleb128 0x3a
 3231 0052 0B       		.uleb128 0xb
 3232 0053 3B       		.uleb128 0x3b
 3233 0054 0B       		.uleb128 0xb
 3234 0055 01       		.uleb128 0x1
 3235 0056 13       		.uleb128 0x13
 3236 0057 00       		.byte	0
 3237 0058 00       		.byte	0
 3238 0059 08       		.uleb128 0x8
 3239 005a 0D       		.uleb128 0xd
 3240 005b 00       		.byte	0
 3241 005c 03       		.uleb128 0x3
 3242 005d 0E       		.uleb128 0xe
 3243 005e 3A       		.uleb128 0x3a
 3244 005f 0B       		.uleb128 0xb
 3245 0060 3B       		.uleb128 0x3b
 3246 0061 0B       		.uleb128 0xb
 3247 0062 49       		.uleb128 0x49
 3248 0063 13       		.uleb128 0x13
 3249 0064 38       		.uleb128 0x38
 3250 0065 0B       		.uleb128 0xb
 3251 0066 00       		.byte	0
 3252 0067 00       		.byte	0
 3253 0068 09       		.uleb128 0x9
 3254 0069 0D       		.uleb128 0xd
 3255 006a 00       		.byte	0
 3256 006b 03       		.uleb128 0x3
 3257 006c 0E       		.uleb128 0xe
 3258 006d 3A       		.uleb128 0x3a
 3259 006e 0B       		.uleb128 0xb
ARM GAS  C:\Users\PIET~1.COU\AppData\Local\Temp\ccUpISSh.s 			page 99


 3260 006f 3B       		.uleb128 0x3b
 3261 0070 05       		.uleb128 0x5
 3262 0071 49       		.uleb128 0x49
 3263 0072 13       		.uleb128 0x13
 3264 0073 38       		.uleb128 0x38
 3265 0074 0B       		.uleb128 0xb
 3266 0075 00       		.byte	0
 3267 0076 00       		.byte	0
 3268 0077 0A       		.uleb128 0xa
 3269 0078 13       		.uleb128 0x13
 3270 0079 01       		.byte	0x1
 3271 007a 03       		.uleb128 0x3
 3272 007b 0E       		.uleb128 0xe
 3273 007c 0B       		.uleb128 0xb
 3274 007d 0B       		.uleb128 0xb
 3275 007e 3A       		.uleb128 0x3a
 3276 007f 0B       		.uleb128 0xb
 3277 0080 3B       		.uleb128 0x3b
 3278 0081 05       		.uleb128 0x5
 3279 0082 01       		.uleb128 0x1
 3280 0083 13       		.uleb128 0x13
 3281 0084 00       		.byte	0
 3282 0085 00       		.byte	0
 3283 0086 0B       		.uleb128 0xb
 3284 0087 01       		.uleb128 0x1
 3285 0088 01       		.byte	0x1
 3286 0089 49       		.uleb128 0x49
 3287 008a 13       		.uleb128 0x13
 3288 008b 01       		.uleb128 0x1
 3289 008c 13       		.uleb128 0x13
 3290 008d 00       		.byte	0
 3291 008e 00       		.byte	0
 3292 008f 0C       		.uleb128 0xc
 3293 0090 21       		.uleb128 0x21
 3294 0091 00       		.byte	0
 3295 0092 49       		.uleb128 0x49
 3296 0093 13       		.uleb128 0x13
 3297 0094 2F       		.uleb128 0x2f
 3298 0095 0B       		.uleb128 0xb
 3299 0096 00       		.byte	0
 3300 0097 00       		.byte	0
 3301 0098 0D       		.uleb128 0xd
 3302 0099 2E       		.uleb128 0x2e
 3303 009a 00       		.byte	0
 3304 009b 03       		.uleb128 0x3
 3305 009c 0E       		.uleb128 0xe
 3306 009d 3A       		.uleb128 0x3a
 3307 009e 0B       		.uleb128 0xb
 3308 009f 3B       		.uleb128 0x3b
 3309 00a0 05       		.uleb128 0x5
 3310 00a1 27       		.uleb128 0x27
 3311 00a2 19       		.uleb128 0x19
 3312 00a3 11       		.uleb128 0x11
 3313 00a4 01       		.uleb128 0x1
 3314 00a5 12       		.uleb128 0x12
 3315 00a6 06       		.uleb128 0x6
 3316 00a7 40       		.uleb128 0x40
ARM GAS  C:\Users\PIET~1.COU\AppData\Local\Temp\ccUpISSh.s 			page 100


 3317 00a8 18       		.uleb128 0x18
 3318 00a9 9742     		.uleb128 0x2117
 3319 00ab 19       		.uleb128 0x19
 3320 00ac 00       		.byte	0
 3321 00ad 00       		.byte	0
 3322 00ae 0E       		.uleb128 0xe
 3323 00af 2E       		.uleb128 0x2e
 3324 00b0 01       		.byte	0x1
 3325 00b1 3F       		.uleb128 0x3f
 3326 00b2 19       		.uleb128 0x19
 3327 00b3 03       		.uleb128 0x3
 3328 00b4 0E       		.uleb128 0xe
 3329 00b5 3A       		.uleb128 0x3a
 3330 00b6 0B       		.uleb128 0xb
 3331 00b7 3B       		.uleb128 0x3b
 3332 00b8 0B       		.uleb128 0xb
 3333 00b9 27       		.uleb128 0x27
 3334 00ba 19       		.uleb128 0x19
 3335 00bb 11       		.uleb128 0x11
 3336 00bc 01       		.uleb128 0x1
 3337 00bd 12       		.uleb128 0x12
 3338 00be 06       		.uleb128 0x6
 3339 00bf 40       		.uleb128 0x40
 3340 00c0 18       		.uleb128 0x18
 3341 00c1 9742     		.uleb128 0x2117
 3342 00c3 19       		.uleb128 0x19
 3343 00c4 01       		.uleb128 0x1
 3344 00c5 13       		.uleb128 0x13
 3345 00c6 00       		.byte	0
 3346 00c7 00       		.byte	0
 3347 00c8 0F       		.uleb128 0xf
 3348 00c9 898201   		.uleb128 0x4109
 3349 00cc 01       		.byte	0x1
 3350 00cd 11       		.uleb128 0x11
 3351 00ce 01       		.uleb128 0x1
 3352 00cf 31       		.uleb128 0x31
 3353 00d0 13       		.uleb128 0x13
 3354 00d1 01       		.uleb128 0x1
 3355 00d2 13       		.uleb128 0x13
 3356 00d3 00       		.byte	0
 3357 00d4 00       		.byte	0
 3358 00d5 10       		.uleb128 0x10
 3359 00d6 8A8201   		.uleb128 0x410a
 3360 00d9 00       		.byte	0
 3361 00da 02       		.uleb128 0x2
 3362 00db 18       		.uleb128 0x18
 3363 00dc 9142     		.uleb128 0x2111
 3364 00de 18       		.uleb128 0x18
 3365 00df 00       		.byte	0
 3366 00e0 00       		.byte	0
 3367 00e1 11       		.uleb128 0x11
 3368 00e2 898201   		.uleb128 0x4109
 3369 00e5 00       		.byte	0
 3370 00e6 11       		.uleb128 0x11
 3371 00e7 01       		.uleb128 0x1
 3372 00e8 31       		.uleb128 0x31
 3373 00e9 13       		.uleb128 0x13
ARM GAS  C:\Users\PIET~1.COU\AppData\Local\Temp\ccUpISSh.s 			page 101


 3374 00ea 00       		.byte	0
 3375 00eb 00       		.byte	0
 3376 00ec 12       		.uleb128 0x12
 3377 00ed 2E       		.uleb128 0x2e
 3378 00ee 01       		.byte	0x1
 3379 00ef 3F       		.uleb128 0x3f
 3380 00f0 19       		.uleb128 0x19
 3381 00f1 03       		.uleb128 0x3
 3382 00f2 0E       		.uleb128 0xe
 3383 00f3 3A       		.uleb128 0x3a
 3384 00f4 0B       		.uleb128 0xb
 3385 00f5 3B       		.uleb128 0x3b
 3386 00f6 05       		.uleb128 0x5
 3387 00f7 27       		.uleb128 0x27
 3388 00f8 19       		.uleb128 0x19
 3389 00f9 11       		.uleb128 0x11
 3390 00fa 01       		.uleb128 0x1
 3391 00fb 12       		.uleb128 0x12
 3392 00fc 06       		.uleb128 0x6
 3393 00fd 40       		.uleb128 0x40
 3394 00fe 18       		.uleb128 0x18
 3395 00ff 9742     		.uleb128 0x2117
 3396 0101 19       		.uleb128 0x19
 3397 0102 01       		.uleb128 0x1
 3398 0103 13       		.uleb128 0x13
 3399 0104 00       		.byte	0
 3400 0105 00       		.byte	0
 3401 0106 13       		.uleb128 0x13
 3402 0107 34       		.uleb128 0x34
 3403 0108 00       		.byte	0
 3404 0109 03       		.uleb128 0x3
 3405 010a 0E       		.uleb128 0xe
 3406 010b 3A       		.uleb128 0x3a
 3407 010c 0B       		.uleb128 0xb
 3408 010d 3B       		.uleb128 0x3b
 3409 010e 05       		.uleb128 0x5
 3410 010f 49       		.uleb128 0x49
 3411 0110 13       		.uleb128 0x13
 3412 0111 1C       		.uleb128 0x1c
 3413 0112 0B       		.uleb128 0xb
 3414 0113 00       		.byte	0
 3415 0114 00       		.byte	0
 3416 0115 14       		.uleb128 0x14
 3417 0116 34       		.uleb128 0x34
 3418 0117 00       		.byte	0
 3419 0118 03       		.uleb128 0x3
 3420 0119 08       		.uleb128 0x8
 3421 011a 3A       		.uleb128 0x3a
 3422 011b 0B       		.uleb128 0xb
 3423 011c 3B       		.uleb128 0x3b
 3424 011d 05       		.uleb128 0x5
 3425 011e 49       		.uleb128 0x49
 3426 011f 13       		.uleb128 0x13
 3427 0120 02       		.uleb128 0x2
 3428 0121 17       		.uleb128 0x17
 3429 0122 00       		.byte	0
 3430 0123 00       		.byte	0
ARM GAS  C:\Users\PIET~1.COU\AppData\Local\Temp\ccUpISSh.s 			page 102


 3431 0124 15       		.uleb128 0x15
 3432 0125 34       		.uleb128 0x34
 3433 0126 00       		.byte	0
 3434 0127 03       		.uleb128 0x3
 3435 0128 0E       		.uleb128 0xe
 3436 0129 3A       		.uleb128 0x3a
 3437 012a 0B       		.uleb128 0xb
 3438 012b 3B       		.uleb128 0x3b
 3439 012c 05       		.uleb128 0x5
 3440 012d 49       		.uleb128 0x49
 3441 012e 13       		.uleb128 0x13
 3442 012f 02       		.uleb128 0x2
 3443 0130 17       		.uleb128 0x17
 3444 0131 00       		.byte	0
 3445 0132 00       		.byte	0
 3446 0133 16       		.uleb128 0x16
 3447 0134 34       		.uleb128 0x34
 3448 0135 00       		.byte	0
 3449 0136 03       		.uleb128 0x3
 3450 0137 0E       		.uleb128 0xe
 3451 0138 3A       		.uleb128 0x3a
 3452 0139 0B       		.uleb128 0xb
 3453 013a 3B       		.uleb128 0x3b
 3454 013b 05       		.uleb128 0x5
 3455 013c 49       		.uleb128 0x49
 3456 013d 13       		.uleb128 0x13
 3457 013e 02       		.uleb128 0x2
 3458 013f 18       		.uleb128 0x18
 3459 0140 00       		.byte	0
 3460 0141 00       		.byte	0
 3461 0142 17       		.uleb128 0x17
 3462 0143 26       		.uleb128 0x26
 3463 0144 00       		.byte	0
 3464 0145 49       		.uleb128 0x49
 3465 0146 13       		.uleb128 0x13
 3466 0147 00       		.byte	0
 3467 0148 00       		.byte	0
 3468 0149 18       		.uleb128 0x18
 3469 014a 05       		.uleb128 0x5
 3470 014b 00       		.byte	0
 3471 014c 03       		.uleb128 0x3
 3472 014d 0E       		.uleb128 0xe
 3473 014e 3A       		.uleb128 0x3a
 3474 014f 0B       		.uleb128 0xb
 3475 0150 3B       		.uleb128 0x3b
 3476 0151 05       		.uleb128 0x5
 3477 0152 49       		.uleb128 0x49
 3478 0153 13       		.uleb128 0x13
 3479 0154 02       		.uleb128 0x2
 3480 0155 17       		.uleb128 0x17
 3481 0156 00       		.byte	0
 3482 0157 00       		.byte	0
 3483 0158 19       		.uleb128 0x19
 3484 0159 898201   		.uleb128 0x4109
 3485 015c 00       		.byte	0
 3486 015d 11       		.uleb128 0x11
 3487 015e 01       		.uleb128 0x1
ARM GAS  C:\Users\PIET~1.COU\AppData\Local\Temp\ccUpISSh.s 			page 103


 3488 015f 9542     		.uleb128 0x2115
 3489 0161 19       		.uleb128 0x19
 3490 0162 31       		.uleb128 0x31
 3491 0163 13       		.uleb128 0x13
 3492 0164 00       		.byte	0
 3493 0165 00       		.byte	0
 3494 0166 1A       		.uleb128 0x1a
 3495 0167 2E       		.uleb128 0x2e
 3496 0168 00       		.byte	0
 3497 0169 03       		.uleb128 0x3
 3498 016a 0E       		.uleb128 0xe
 3499 016b 3A       		.uleb128 0x3a
 3500 016c 0B       		.uleb128 0xb
 3501 016d 3B       		.uleb128 0x3b
 3502 016e 05       		.uleb128 0x5
 3503 016f 27       		.uleb128 0x27
 3504 0170 19       		.uleb128 0x19
 3505 0171 20       		.uleb128 0x20
 3506 0172 0B       		.uleb128 0xb
 3507 0173 00       		.byte	0
 3508 0174 00       		.byte	0
 3509 0175 1B       		.uleb128 0x1b
 3510 0176 1D       		.uleb128 0x1d
 3511 0177 01       		.byte	0x1
 3512 0178 31       		.uleb128 0x31
 3513 0179 13       		.uleb128 0x13
 3514 017a 52       		.uleb128 0x52
 3515 017b 01       		.uleb128 0x1
 3516 017c 55       		.uleb128 0x55
 3517 017d 17       		.uleb128 0x17
 3518 017e 58       		.uleb128 0x58
 3519 017f 0B       		.uleb128 0xb
 3520 0180 59       		.uleb128 0x59
 3521 0181 05       		.uleb128 0x5
 3522 0182 01       		.uleb128 0x1
 3523 0183 13       		.uleb128 0x13
 3524 0184 00       		.byte	0
 3525 0185 00       		.byte	0
 3526 0186 1C       		.uleb128 0x1c
 3527 0187 1D       		.uleb128 0x1d
 3528 0188 01       		.byte	0x1
 3529 0189 31       		.uleb128 0x31
 3530 018a 13       		.uleb128 0x13
 3531 018b 11       		.uleb128 0x11
 3532 018c 01       		.uleb128 0x1
 3533 018d 12       		.uleb128 0x12
 3534 018e 06       		.uleb128 0x6
 3535 018f 58       		.uleb128 0x58
 3536 0190 0B       		.uleb128 0xb
 3537 0191 59       		.uleb128 0x59
 3538 0192 05       		.uleb128 0x5
 3539 0193 01       		.uleb128 0x1
 3540 0194 13       		.uleb128 0x13
 3541 0195 00       		.byte	0
 3542 0196 00       		.byte	0
 3543 0197 1D       		.uleb128 0x1d
 3544 0198 898201   		.uleb128 0x4109
ARM GAS  C:\Users\PIET~1.COU\AppData\Local\Temp\ccUpISSh.s 			page 104


 3545 019b 01       		.byte	0x1
 3546 019c 11       		.uleb128 0x11
 3547 019d 01       		.uleb128 0x1
 3548 019e 9542     		.uleb128 0x2115
 3549 01a0 19       		.uleb128 0x19
 3550 01a1 31       		.uleb128 0x31
 3551 01a2 13       		.uleb128 0x13
 3552 01a3 00       		.byte	0
 3553 01a4 00       		.byte	0
 3554 01a5 1E       		.uleb128 0x1e
 3555 01a6 2E       		.uleb128 0x2e
 3556 01a7 01       		.byte	0x1
 3557 01a8 3F       		.uleb128 0x3f
 3558 01a9 19       		.uleb128 0x19
 3559 01aa 03       		.uleb128 0x3
 3560 01ab 0E       		.uleb128 0xe
 3561 01ac 3A       		.uleb128 0x3a
 3562 01ad 0B       		.uleb128 0xb
 3563 01ae 3B       		.uleb128 0x3b
 3564 01af 05       		.uleb128 0x5
 3565 01b0 27       		.uleb128 0x27
 3566 01b1 19       		.uleb128 0x19
 3567 01b2 49       		.uleb128 0x49
 3568 01b3 13       		.uleb128 0x13
 3569 01b4 11       		.uleb128 0x11
 3570 01b5 01       		.uleb128 0x1
 3571 01b6 12       		.uleb128 0x12
 3572 01b7 06       		.uleb128 0x6
 3573 01b8 40       		.uleb128 0x40
 3574 01b9 18       		.uleb128 0x18
 3575 01ba 9742     		.uleb128 0x2117
 3576 01bc 19       		.uleb128 0x19
 3577 01bd 01       		.uleb128 0x1
 3578 01be 13       		.uleb128 0x13
 3579 01bf 00       		.byte	0
 3580 01c0 00       		.byte	0
 3581 01c1 1F       		.uleb128 0x1f
 3582 01c2 34       		.uleb128 0x34
 3583 01c3 00       		.byte	0
 3584 01c4 03       		.uleb128 0x3
 3585 01c5 0E       		.uleb128 0xe
 3586 01c6 3A       		.uleb128 0x3a
 3587 01c7 0B       		.uleb128 0xb
 3588 01c8 3B       		.uleb128 0x3b
 3589 01c9 0B       		.uleb128 0xb
 3590 01ca 49       		.uleb128 0x49
 3591 01cb 13       		.uleb128 0x13
 3592 01cc 02       		.uleb128 0x2
 3593 01cd 18       		.uleb128 0x18
 3594 01ce 00       		.byte	0
 3595 01cf 00       		.byte	0
 3596 01d0 20       		.uleb128 0x20
 3597 01d1 34       		.uleb128 0x34
 3598 01d2 00       		.byte	0
 3599 01d3 03       		.uleb128 0x3
 3600 01d4 0E       		.uleb128 0xe
 3601 01d5 3A       		.uleb128 0x3a
ARM GAS  C:\Users\PIET~1.COU\AppData\Local\Temp\ccUpISSh.s 			page 105


 3602 01d6 0B       		.uleb128 0xb
 3603 01d7 3B       		.uleb128 0x3b
 3604 01d8 05       		.uleb128 0x5
 3605 01d9 49       		.uleb128 0x49
 3606 01da 13       		.uleb128 0x13
 3607 01db 3F       		.uleb128 0x3f
 3608 01dc 19       		.uleb128 0x19
 3609 01dd 3C       		.uleb128 0x3c
 3610 01de 19       		.uleb128 0x19
 3611 01df 00       		.byte	0
 3612 01e0 00       		.byte	0
 3613 01e1 21       		.uleb128 0x21
 3614 01e2 2E       		.uleb128 0x2e
 3615 01e3 01       		.byte	0x1
 3616 01e4 3F       		.uleb128 0x3f
 3617 01e5 19       		.uleb128 0x19
 3618 01e6 03       		.uleb128 0x3
 3619 01e7 0E       		.uleb128 0xe
 3620 01e8 3A       		.uleb128 0x3a
 3621 01e9 0B       		.uleb128 0xb
 3622 01ea 3B       		.uleb128 0x3b
 3623 01eb 0B       		.uleb128 0xb
 3624 01ec 27       		.uleb128 0x27
 3625 01ed 19       		.uleb128 0x19
 3626 01ee 3C       		.uleb128 0x3c
 3627 01ef 19       		.uleb128 0x19
 3628 01f0 01       		.uleb128 0x1
 3629 01f1 13       		.uleb128 0x13
 3630 01f2 00       		.byte	0
 3631 01f3 00       		.byte	0
 3632 01f4 22       		.uleb128 0x22
 3633 01f5 05       		.uleb128 0x5
 3634 01f6 00       		.byte	0
 3635 01f7 49       		.uleb128 0x49
 3636 01f8 13       		.uleb128 0x13
 3637 01f9 00       		.byte	0
 3638 01fa 00       		.byte	0
 3639 01fb 23       		.uleb128 0x23
 3640 01fc 2E       		.uleb128 0x2e
 3641 01fd 00       		.byte	0
 3642 01fe 3F       		.uleb128 0x3f
 3643 01ff 19       		.uleb128 0x19
 3644 0200 03       		.uleb128 0x3
 3645 0201 0E       		.uleb128 0xe
 3646 0202 3A       		.uleb128 0x3a
 3647 0203 0B       		.uleb128 0xb
 3648 0204 3B       		.uleb128 0x3b
 3649 0205 0B       		.uleb128 0xb
 3650 0206 27       		.uleb128 0x27
 3651 0207 19       		.uleb128 0x19
 3652 0208 3C       		.uleb128 0x3c
 3653 0209 19       		.uleb128 0x19
 3654 020a 00       		.byte	0
 3655 020b 00       		.byte	0
 3656 020c 24       		.uleb128 0x24
 3657 020d 2E       		.uleb128 0x2e
 3658 020e 01       		.byte	0x1
ARM GAS  C:\Users\PIET~1.COU\AppData\Local\Temp\ccUpISSh.s 			page 106


 3659 020f 3F       		.uleb128 0x3f
 3660 0210 19       		.uleb128 0x19
 3661 0211 03       		.uleb128 0x3
 3662 0212 0E       		.uleb128 0xe
 3663 0213 3A       		.uleb128 0x3a
 3664 0214 0B       		.uleb128 0xb
 3665 0215 3B       		.uleb128 0x3b
 3666 0216 0B       		.uleb128 0xb
 3667 0217 27       		.uleb128 0x27
 3668 0218 19       		.uleb128 0x19
 3669 0219 49       		.uleb128 0x49
 3670 021a 13       		.uleb128 0x13
 3671 021b 3C       		.uleb128 0x3c
 3672 021c 19       		.uleb128 0x19
 3673 021d 01       		.uleb128 0x1
 3674 021e 13       		.uleb128 0x13
 3675 021f 00       		.byte	0
 3676 0220 00       		.byte	0
 3677 0221 25       		.uleb128 0x25
 3678 0222 2E       		.uleb128 0x2e
 3679 0223 00       		.byte	0
 3680 0224 3F       		.uleb128 0x3f
 3681 0225 19       		.uleb128 0x19
 3682 0226 03       		.uleb128 0x3
 3683 0227 0E       		.uleb128 0xe
 3684 0228 3A       		.uleb128 0x3a
 3685 0229 0B       		.uleb128 0xb
 3686 022a 3B       		.uleb128 0x3b
 3687 022b 0B       		.uleb128 0xb
 3688 022c 27       		.uleb128 0x27
 3689 022d 19       		.uleb128 0x19
 3690 022e 49       		.uleb128 0x49
 3691 022f 13       		.uleb128 0x13
 3692 0230 3C       		.uleb128 0x3c
 3693 0231 19       		.uleb128 0x19
 3694 0232 00       		.byte	0
 3695 0233 00       		.byte	0
 3696 0234 00       		.byte	0
 3697              		.section	.debug_loc,"",%progbits
 3698              	.Ldebug_loc0:
 3699              	.LLST0:
 3700 0000 66000000 		.4byte	.LVL17
 3701 0004 7E000000 		.4byte	.LVL19
 3702 0008 0100     		.2byte	0x1
 3703 000a 55       		.byte	0x55
 3704 000b 7E000000 		.4byte	.LVL19
 3705 000f 80000000 		.4byte	.LVL20
 3706 0013 0300     		.2byte	0x3
 3707 0015 75       		.byte	0x75
 3708 0016 7F       		.sleb128 -1
 3709 0017 9F       		.byte	0x9f
 3710 0018 5C010000 		.4byte	.LVL30
 3711 001c 70010000 		.4byte	.LVL32
 3712 0020 0100     		.2byte	0x1
 3713 0022 55       		.byte	0x55
 3714 0023 70010000 		.4byte	.LVL32
 3715 0027 72010000 		.4byte	.LVL33
ARM GAS  C:\Users\PIET~1.COU\AppData\Local\Temp\ccUpISSh.s 			page 107


 3716 002b 0300     		.2byte	0x3
 3717 002d 75       		.byte	0x75
 3718 002e 7F       		.sleb128 -1
 3719 002f 9F       		.byte	0x9f
 3720 0030 00000000 		.4byte	0
 3721 0034 00000000 		.4byte	0
 3722              	.LLST1:
 3723 0038 AC010000 		.4byte	.LVL37
 3724 003c B0010000 		.4byte	.LVL38
 3725 0040 0500     		.2byte	0x5
 3726 0042 72       		.byte	0x72
 3727 0043 00       		.sleb128 0
 3728 0044 38       		.byte	0x38
 3729 0045 24       		.byte	0x24
 3730 0046 9F       		.byte	0x9f
 3731 0047 B0010000 		.4byte	.LVL38
 3732 004b B4010000 		.4byte	.LVL39
 3733 004f 0B00     		.2byte	0xb
 3734 0051 72       		.byte	0x72
 3735 0052 00       		.sleb128 0
 3736 0053 38       		.byte	0x38
 3737 0054 24       		.byte	0x24
 3738 0055 73       		.byte	0x73
 3739 0056 00       		.sleb128 0
 3740 0057 08       		.byte	0x8
 3741 0058 FF       		.byte	0xff
 3742 0059 1A       		.byte	0x1a
 3743 005a 21       		.byte	0x21
 3744 005b 9F       		.byte	0x9f
 3745 005c 00000000 		.4byte	0
 3746 0060 00000000 		.4byte	0
 3747              	.LLST2:
 3748 0064 00000000 		.4byte	.LVL41
 3749 0068 16000000 		.4byte	.LVL42
 3750 006c 0100     		.2byte	0x1
 3751 006e 50       		.byte	0x50
 3752 006f 16000000 		.4byte	.LVL42
 3753 0073 60000000 		.4byte	.LFE65
 3754 0077 0400     		.2byte	0x4
 3755 0079 F3       		.byte	0xf3
 3756 007a 01       		.uleb128 0x1
 3757 007b 50       		.byte	0x50
 3758 007c 9F       		.byte	0x9f
 3759 007d 00000000 		.4byte	0
 3760 0081 00000000 		.4byte	0
 3761              	.LLST3:
 3762 0085 00000000 		.4byte	.LVL41
 3763 0089 24000000 		.4byte	.LVL43
 3764 008d 0100     		.2byte	0x1
 3765 008f 51       		.byte	0x51
 3766 0090 24000000 		.4byte	.LVL43
 3767 0094 60000000 		.4byte	.LFE65
 3768 0098 0400     		.2byte	0x4
 3769 009a F3       		.byte	0xf3
 3770 009b 01       		.uleb128 0x1
 3771 009c 51       		.byte	0x51
 3772 009d 9F       		.byte	0x9f
ARM GAS  C:\Users\PIET~1.COU\AppData\Local\Temp\ccUpISSh.s 			page 108


 3773 009e 00000000 		.4byte	0
 3774 00a2 00000000 		.4byte	0
 3775              	.LLST4:
 3776 00a6 00000000 		.4byte	.LVL44
 3777 00aa 09000000 		.4byte	.LVL45-1
 3778 00ae 0100     		.2byte	0x1
 3779 00b0 50       		.byte	0x50
 3780 00b1 09000000 		.4byte	.LVL45-1
 3781 00b5 E4000000 		.4byte	.LFE66
 3782 00b9 0400     		.2byte	0x4
 3783 00bb F3       		.byte	0xf3
 3784 00bc 01       		.uleb128 0x1
 3785 00bd 50       		.byte	0x50
 3786 00be 9F       		.byte	0x9f
 3787 00bf 00000000 		.4byte	0
 3788 00c3 00000000 		.4byte	0
 3789              	.LLST5:
 3790 00c7 00000000 		.4byte	.LVL44
 3791 00cb 09000000 		.4byte	.LVL45-1
 3792 00cf 0100     		.2byte	0x1
 3793 00d1 51       		.byte	0x51
 3794 00d2 09000000 		.4byte	.LVL45-1
 3795 00d6 E4000000 		.4byte	.LFE66
 3796 00da 0400     		.2byte	0x4
 3797 00dc F3       		.byte	0xf3
 3798 00dd 01       		.uleb128 0x1
 3799 00de 51       		.byte	0x51
 3800 00df 9F       		.byte	0x9f
 3801 00e0 00000000 		.4byte	0
 3802 00e4 00000000 		.4byte	0
 3803              	.LLST6:
 3804 00e8 0E000000 		.4byte	.LVL46
 3805 00ec 2F000000 		.4byte	.LVL47-1
 3806 00f0 0100     		.2byte	0x1
 3807 00f2 50       		.byte	0x50
 3808 00f3 00000000 		.4byte	0
 3809 00f7 00000000 		.4byte	0
 3810              	.LLST7:
 3811 00fb 00000000 		.4byte	.LVL50
 3812 00ff 09000000 		.4byte	.LVL51-1
 3813 0103 0100     		.2byte	0x1
 3814 0105 50       		.byte	0x50
 3815 0106 09000000 		.4byte	.LVL51-1
 3816 010a 70020000 		.4byte	.LFE68
 3817 010e 0400     		.2byte	0x4
 3818 0110 F3       		.byte	0xf3
 3819 0111 01       		.uleb128 0x1
 3820 0112 50       		.byte	0x50
 3821 0113 9F       		.byte	0x9f
 3822 0114 00000000 		.4byte	0
 3823 0118 00000000 		.4byte	0
 3824              	.LLST8:
 3825 011c 0E000000 		.4byte	.LVL52
 3826 0120 22000000 		.4byte	.LVL53
 3827 0124 0200     		.2byte	0x2
 3828 0126 91       		.byte	0x91
 3829 0127 54       		.sleb128 -44
ARM GAS  C:\Users\PIET~1.COU\AppData\Local\Temp\ccUpISSh.s 			page 109


 3830 0128 00000000 		.4byte	0
 3831 012c 00000000 		.4byte	0
 3832              	.LLST9:
 3833 0130 00000000 		.4byte	.LVL68
 3834 0134 07000000 		.4byte	.LVL69-1
 3835 0138 0100     		.2byte	0x1
 3836 013a 50       		.byte	0x50
 3837 013b 07000000 		.4byte	.LVL69-1
 3838 013f 30000000 		.4byte	.LFE69
 3839 0143 0400     		.2byte	0x4
 3840 0145 F3       		.byte	0xf3
 3841 0146 01       		.uleb128 0x1
 3842 0147 50       		.byte	0x50
 3843 0148 9F       		.byte	0x9f
 3844 0149 00000000 		.4byte	0
 3845 014d 00000000 		.4byte	0
 3846              	.LLST10:
 3847 0151 08000000 		.4byte	.LVL69
 3848 0155 1F000000 		.4byte	.LVL71-1
 3849 0159 0100     		.2byte	0x1
 3850 015b 50       		.byte	0x50
 3851 015c 00000000 		.4byte	0
 3852 0160 00000000 		.4byte	0
 3853              	.LLST11:
 3854 0164 14000000 		.4byte	.LVL70
 3855 0168 26000000 		.4byte	.LVL72
 3856 016c 0500     		.2byte	0x5
 3857 016e 74       		.byte	0x74
 3858 016f 00       		.sleb128 0
 3859 0170 37       		.byte	0x37
 3860 0171 1A       		.byte	0x1a
 3861 0172 9F       		.byte	0x9f
 3862 0173 00000000 		.4byte	0
 3863 0177 00000000 		.4byte	0
 3864              	.LLST12:
 3865 017b 00000000 		.4byte	.LVL73
 3866 017f 11000000 		.4byte	.LVL74-1
 3867 0183 0100     		.2byte	0x1
 3868 0185 50       		.byte	0x50
 3869 0186 11000000 		.4byte	.LVL74-1
 3870 018a 50000000 		.4byte	.LFE72
 3871 018e 0400     		.2byte	0x4
 3872 0190 F3       		.byte	0xf3
 3873 0191 01       		.uleb128 0x1
 3874 0192 50       		.byte	0x50
 3875 0193 9F       		.byte	0x9f
 3876 0194 00000000 		.4byte	0
 3877 0198 00000000 		.4byte	0
 3878              	.LLST13:
 3879 019c 00000000 		.4byte	.LVL76
 3880 01a0 11000000 		.4byte	.LVL77-1
 3881 01a4 0100     		.2byte	0x1
 3882 01a6 50       		.byte	0x50
 3883 01a7 11000000 		.4byte	.LVL77-1
 3884 01ab 50000000 		.4byte	.LFE74
 3885 01af 0400     		.2byte	0x4
 3886 01b1 F3       		.byte	0xf3
ARM GAS  C:\Users\PIET~1.COU\AppData\Local\Temp\ccUpISSh.s 			page 110


 3887 01b2 01       		.uleb128 0x1
 3888 01b3 50       		.byte	0x50
 3889 01b4 9F       		.byte	0x9f
 3890 01b5 00000000 		.4byte	0
 3891 01b9 00000000 		.4byte	0
 3892              		.section	.debug_aranges,"",%progbits
 3893 0000 74000000 		.4byte	0x74
 3894 0004 0200     		.2byte	0x2
 3895 0006 00000000 		.4byte	.Ldebug_info0
 3896 000a 04       		.byte	0x4
 3897 000b 00       		.byte	0
 3898 000c 0000     		.2byte	0
 3899 000e 0000     		.2byte	0
 3900 0010 00000000 		.4byte	.LFB75
 3901 0014 C0010000 		.4byte	.LFE75-.LFB75
 3902 0018 00000000 		.4byte	.LFB76
 3903 001c C0000000 		.4byte	.LFE76-.LFB76
 3904 0020 00000000 		.4byte	.LFB63
 3905 0024 E0010000 		.4byte	.LFE63-.LFB63
 3906 0028 00000000 		.4byte	.LFB64
 3907 002c 0C020000 		.4byte	.LFE64-.LFB64
 3908 0030 00000000 		.4byte	.LFB65
 3909 0034 60000000 		.4byte	.LFE65-.LFB65
 3910 0038 00000000 		.4byte	.LFB66
 3911 003c E4000000 		.4byte	.LFE66-.LFB66
 3912 0040 00000000 		.4byte	.LFB68
 3913 0044 70020000 		.4byte	.LFE68-.LFB68
 3914 0048 00000000 		.4byte	.LFB67
 3915 004c 06000000 		.4byte	.LFE67-.LFB67
 3916 0050 00000000 		.4byte	.LFB69
 3917 0054 30000000 		.4byte	.LFE69-.LFB69
 3918 0058 00000000 		.4byte	.LFB72
 3919 005c 50000000 		.4byte	.LFE72-.LFB72
 3920 0060 00000000 		.4byte	.LFB73
 3921 0064 2C000000 		.4byte	.LFE73-.LFB73
 3922 0068 00000000 		.4byte	.LFB74
 3923 006c 50000000 		.4byte	.LFE74-.LFB74
 3924 0070 00000000 		.4byte	0
 3925 0074 00000000 		.4byte	0
 3926              		.section	.debug_ranges,"",%progbits
 3927              	.Ldebug_ranges0:
 3928 0000 18000000 		.4byte	.LBB10
 3929 0004 1A000000 		.4byte	.LBE10
 3930 0008 22000000 		.4byte	.LBB17
 3931 000c 04010000 		.4byte	.LBE17
 3932 0010 06010000 		.4byte	.LBB18
 3933 0014 16010000 		.4byte	.LBE18
 3934 0018 3A010000 		.4byte	.LBB19
 3935 001c 3C010000 		.4byte	.LBE19
 3936 0020 00000000 		.4byte	0
 3937 0024 00000000 		.4byte	0
 3938 0028 00000000 		.4byte	.LFB75
 3939 002c C0010000 		.4byte	.LFE75
 3940 0030 00000000 		.4byte	.LFB76
 3941 0034 C0000000 		.4byte	.LFE76
 3942 0038 00000000 		.4byte	.LFB63
 3943 003c E0010000 		.4byte	.LFE63
ARM GAS  C:\Users\PIET~1.COU\AppData\Local\Temp\ccUpISSh.s 			page 111


 3944 0040 00000000 		.4byte	.LFB64
 3945 0044 0C020000 		.4byte	.LFE64
 3946 0048 00000000 		.4byte	.LFB65
 3947 004c 60000000 		.4byte	.LFE65
 3948 0050 00000000 		.4byte	.LFB66
 3949 0054 E4000000 		.4byte	.LFE66
 3950 0058 00000000 		.4byte	.LFB68
 3951 005c 70020000 		.4byte	.LFE68
 3952 0060 00000000 		.4byte	.LFB67
 3953 0064 06000000 		.4byte	.LFE67
 3954 0068 00000000 		.4byte	.LFB69
 3955 006c 30000000 		.4byte	.LFE69
 3956 0070 00000000 		.4byte	.LFB72
 3957 0074 50000000 		.4byte	.LFE72
 3958 0078 00000000 		.4byte	.LFB73
 3959 007c 2C000000 		.4byte	.LFE73
 3960 0080 00000000 		.4byte	.LFB74
 3961 0084 50000000 		.4byte	.LFE74
 3962 0088 00000000 		.4byte	0
 3963 008c 00000000 		.4byte	0
 3964              		.section	.debug_line,"",%progbits
 3965              	.Ldebug_line0:
 3966 0000 CC040000 		.section	.debug_str,"MS",%progbits,1
 3966      02008201 
 3966      00000201 
 3966      FB0E0D00 
 3966      01010101 
 3967              	.LASF51:
 3968 0000 6C766961 		.ascii	"lviaTrip\000"
 3968      54726970 
 3968      00
 3969              	.LASF79:
 3970 0009 746D7053 		.ascii	"tmpStatus\000"
 3970      74617475 
 3970      7300
 3971              	.LASF72:
 3972 0013 4379506D 		.ascii	"CyPmHviLviSaveDisable\000"
 3972      4876694C 
 3972      76695361 
 3972      76654469 
 3972      7361626C 
 3973              	.LASF104:
 3974 0029 43794578 		.ascii	"CyExitCriticalSection\000"
 3974      69744372 
 3974      69746963 
 3974      616C5365 
 3974      6374696F 
 3975              	.LASF65:
 3976 003f 6379506D 		.ascii	"cyPmImoFreqMhz2Reg\000"
 3976      496D6F46 
 3976      7265714D 
 3976      687A3252 
 3976      656700
 3977              	.LASF41:
 3978 0052 736C7054 		.ascii	"slpTrBypass\000"
 3978      72427970 
 3978      61737300 
ARM GAS  C:\Users\PIET~1.COU\AppData\Local\Temp\ccUpISSh.s 			page 112


 3979              	.LASF69:
 3980 005e 4379506D 		.ascii	"CyPmSleep\000"
 3980      536C6565 
 3980      7000
 3981              	.LASF29:
 3982 0068 696D6F32 		.ascii	"imo2x\000"
 3982      7800
 3983              	.LASF2:
 3984 006e 73686F72 		.ascii	"short int\000"
 3984      7420696E 
 3984      7400
 3985              	.LASF21:
 3986 0078 656E436C 		.ascii	"enClkD\000"
 3986      6B4400
 3987              	.LASF109:
 3988 007f 43795664 		.ascii	"CyVdLvDigitEnable\000"
 3988      4C764469 
 3988      67697445 
 3988      6E61626C 
 3988      6500
 3989              	.LASF55:
 3990 0091 696D6F41 		.ascii	"imoActFreq\000"
 3990      63744672 
 3990      657100
 3991              	.LASF111:
 3992 009c 43795664 		.ascii	"CyVdHvAnalogEnable\000"
 3992      4876416E 
 3992      616C6F67 
 3992      456E6162 
 3992      6C6500
 3993              	.LASF116:
 3994 00af 2E5C4765 		.ascii	".\\Generated_Source\\PSoC5\\cyPm.c\000"
 3994      6E657261 
 3994      7465645F 
 3994      536F7572 
 3994      63655C50 
 3995              	.LASF107:
 3996 00cf 43795664 		.ascii	"CyVdHvAnalogDisable\000"
 3996      4876416E 
 3996      616C6F67 
 3996      44697361 
 3996      626C6500 
 3997              	.LASF75:
 3998 00e3 4379506D 		.ascii	"CyPmHibernateEx\000"
 3998      48696265 
 3998      726E6174 
 3998      65457800 
 3999              	.LASF117:
 4000 00f3 473A5C50 		.ascii	"G:\\PSoC_5LP\\I2S_DMA_example\\InterIcSound01.cydsn"
 4000      536F435F 
 4000      354C505C 
 4000      4932535F 
 4000      444D415F 
 4001 0123 00       		.ascii	"\000"
 4002              	.LASF106:
 4003 0124 43795664 		.ascii	"CyVdLvAnalogDisable\000"
 4003      4C76416E 
ARM GAS  C:\Users\PIET~1.COU\AppData\Local\Temp\ccUpISSh.s 			page 113


 4003      616C6F67 
 4003      44697361 
 4003      626C6500 
 4004              	.LASF47:
 4005 0138 73636374 		.ascii	"scctData\000"
 4005      44617461 
 4005      00
 4006              	.LASF105:
 4007 0141 43795664 		.ascii	"CyVdLvDigitDisable\000"
 4007      4C764469 
 4007      67697444 
 4007      69736162 
 4007      6C6500
 4008              	.LASF32:
 4009 0154 706C6C45 		.ascii	"pllEnableState\000"
 4009      6E61626C 
 4009      65537461 
 4009      746500
 4010              	.LASF30:
 4011 0163 636C6B53 		.ascii	"clkSyncDiv\000"
 4011      796E6344 
 4011      697600
 4012              	.LASF26:
 4013 016e 696D6F45 		.ascii	"imoEnable\000"
 4013      6E61626C 
 4013      6500
 4014              	.LASF53:
 4015 0178 6C766964 		.ascii	"lvidRst\000"
 4015      52737400 
 4016              	.LASF24:
 4017 0180 696D6F55 		.ascii	"imoUsbClk\000"
 4017      7362436C 
 4017      6B00
 4018              	.LASF40:
 4019 018a 696C6F31 		.ascii	"ilo100kEnable\000"
 4019      30306B45 
 4019      6E61626C 
 4019      6500
 4020              	.LASF12:
 4021 0198 75696E74 		.ascii	"uint16\000"
 4021      313600
 4022              	.LASF101:
 4023 019f 43795854 		.ascii	"CyXTAL_Start\000"
 4023      414C5F53 
 4023      74617274 
 4023      00
 4024              	.LASF60:
 4025 01ac 4379506D 		.ascii	"CyPmHibSlpRestore\000"
 4025      48696253 
 4025      6C705265 
 4025      73746F72 
 4025      6500
 4026              	.LASF61:
 4027 01be 4379506D 		.ascii	"CyPmSaveClocks\000"
 4027      53617665 
 4027      436C6F63 
 4027      6B7300
ARM GAS  C:\Users\PIET~1.COU\AppData\Local\Temp\ccUpISSh.s 			page 114


 4028              	.LASF20:
 4029 01cd 656E436C 		.ascii	"enClkA\000"
 4029      6B4100
 4030              	.LASF25:
 4031 01d4 666C6173 		.ascii	"flashWaitCycles\000"
 4031      68576169 
 4031      74437963 
 4031      6C657300 
 4032              	.LASF84:
 4033 01e4 66747749 		.ascii	"ftwInterval\000"
 4033      6E746572 
 4033      76616C00 
 4034              	.LASF88:
 4035 01f0 4379466C 		.ascii	"CyFlash_SetWaitCycles\000"
 4035      6173685F 
 4035      53657457 
 4035      61697443 
 4035      79636C65 
 4036              	.LASF59:
 4037 0206 4379506D 		.ascii	"CyPmHibSlpSaveSet\000"
 4037      48696253 
 4037      6C705361 
 4037      76655365 
 4037      7400
 4038              	.LASF115:
 4039 0218 474E5520 		.ascii	"GNU C 4.9.3 20150303 (release) [ARM/embedded-4_9-br"
 4039      4320342E 
 4039      392E3320 
 4039      32303135 
 4039      30333033 
 4040 024b 616E6368 		.ascii	"anch revision 221220] -mcpu=cortex-m3 -mthumb -g -O"
 4040      20726576 
 4040      6973696F 
 4040      6E203232 
 4040      31323230 
 4041 027e 73202D66 		.ascii	"s -ffunction-sections -ffat-lto-objects\000"
 4041      66756E63 
 4041      74696F6E 
 4041      2D736563 
 4041      74696F6E 
 4042              	.LASF50:
 4043 02a6 6C766961 		.ascii	"lviaEn\000"
 4043      456E00
 4044              	.LASF14:
 4045 02ad 666C6F61 		.ascii	"float\000"
 4045      7400
 4046              	.LASF95:
 4047 02b3 4379494D 		.ascii	"CyIMO_DisableDoubler\000"
 4047      4F5F4469 
 4047      7361626C 
 4047      65446F75 
 4047      626C6572 
 4048              	.LASF102:
 4049 02c8 4379504C 		.ascii	"CyPLL_OUT_Start\000"
 4049      4C5F4F55 
 4049      545F5374 
 4049      61727400 
ARM GAS  C:\Users\PIET~1.COU\AppData\Local\Temp\ccUpISSh.s 			page 115


 4050              	.LASF6:
 4051 02d8 6C6F6E67 		.ascii	"long long int\000"
 4051      206C6F6E 
 4051      6720696E 
 4051      7400
 4052              	.LASF93:
 4053 02e6 4379494D 		.ascii	"CyIMO_SetSource\000"
 4053      4F5F5365 
 4053      74536F75 
 4053      72636500 
 4054              	.LASF31:
 4055 02f6 636C6B42 		.ascii	"clkBusDiv\000"
 4055      75734469 
 4055      7600
 4056              	.LASF4:
 4057 0300 6C6F6E67 		.ascii	"long int\000"
 4057      20696E74 
 4057      00
 4058              	.LASF112:
 4059 0309 4379494C 		.ascii	"CyILO_Start1K\000"
 4059      4F5F5374 
 4059      61727431 
 4059      4B00
 4060              	.LASF90:
 4061 0317 4379494D 		.ascii	"CyIMO_SetFreq\000"
 4061      4F5F5365 
 4061      74467265 
 4061      7100
 4062              	.LASF23:
 4063 0325 696D6F46 		.ascii	"imoFreq\000"
 4063      72657100 
 4064              	.LASF54:
 4065 032d 6C766961 		.ascii	"lviaRst\000"
 4065      52737400 
 4066              	.LASF1:
 4067 0335 756E7369 		.ascii	"unsigned char\000"
 4067      676E6564 
 4067      20636861 
 4067      7200
 4068              	.LASF66:
 4069 0343 4379506D 		.ascii	"CyPmAltAct\000"
 4069      416C7441 
 4069      637400
 4070              	.LASF92:
 4071 034e 43794465 		.ascii	"CyDelayUs\000"
 4071      6C617955 
 4071      7300
 4072              	.LASF76:
 4073 0358 4379506D 		.ascii	"CyPmHibernate\000"
 4073      48696265 
 4073      726E6174 
 4073      6500
 4074              	.LASF96:
 4075 0366 43794D61 		.ascii	"CyMasterClk_SetDivider\000"
 4075      73746572 
 4075      436C6B5F 
 4075      53657444 
ARM GAS  C:\Users\PIET~1.COU\AppData\Local\Temp\ccUpISSh.s 			page 116


 4075      69766964 
 4076              	.LASF97:
 4077 037d 43794275 		.ascii	"CyBusClk_SetDivider\000"
 4077      73436C6B 
 4077      5F536574 
 4077      44697669 
 4077      64657200 
 4078              	.LASF118:
 4079 0391 4379506D 		.ascii	"CyPmReadStatus\000"
 4079      52656164 
 4079      53746174 
 4079      757300
 4080              	.LASF57:
 4081 03a0 626F6F73 		.ascii	"boostRefExt\000"
 4081      74526566 
 4081      45787400 
 4082              	.LASF45:
 4083 03ac 77616B65 		.ascii	"wakeupTrim0\000"
 4083      75705472 
 4083      696D3000 
 4084              	.LASF46:
 4085 03b8 77616B65 		.ascii	"wakeupTrim1\000"
 4085      75705472 
 4085      696D3100 
 4086              	.LASF0:
 4087 03c4 7369676E 		.ascii	"signed char\000"
 4087      65642063 
 4087      68617200 
 4088              	.LASF98:
 4089 03d0 43795854 		.ascii	"CyXTAL_Stop\000"
 4089      414C5F53 
 4089      746F7000 
 4090              	.LASF7:
 4091 03dc 6C6F6E67 		.ascii	"long long unsigned int\000"
 4091      206C6F6E 
 4091      6720756E 
 4091      7369676E 
 4091      65642069 
 4092              	.LASF62:
 4093 03f3 4379506D 		.ascii	"CyPmRestoreClocks\000"
 4093      52657374 
 4093      6F726543 
 4093      6C6F636B 
 4093      7300
 4094              	.LASF11:
 4095 0405 75696E74 		.ascii	"uint8\000"
 4095      3800
 4096              	.LASF110:
 4097 040b 43795664 		.ascii	"CyVdLvAnalogEnable\000"
 4097      4C76416E 
 4097      616C6F67 
 4097      456E6162 
 4097      6C6500
 4098              	.LASF28:
 4099 041e 636C6B49 		.ascii	"clkImoSrc\000"
 4099      6D6F5372 
 4099      6300
ARM GAS  C:\Users\PIET~1.COU\AppData\Local\Temp\ccUpISSh.s 			page 117


 4100              	.LASF99:
 4101 0428 43794465 		.ascii	"CyDelayCycles\000"
 4101      6C617943 
 4101      79636C65 
 4101      7300
 4102              	.LASF81:
 4103 0436 63747749 		.ascii	"ctwInterval\000"
 4103      6E746572 
 4103      76616C00 
 4104              	.LASF87:
 4105 0442 6379506D 		.ascii	"cyPmImoFreqReg2Mhz\000"
 4105      496D6F46 
 4105      72657152 
 4105      6567324D 
 4105      687A00
 4106              	.LASF33:
 4107 0455 786D687A 		.ascii	"xmhzEnableState\000"
 4107      456E6162 
 4107      6C655374 
 4107      61746500 
 4108              	.LASF38:
 4109 0465 696C6F50 		.ascii	"iloPowerMode\000"
 4109      6F776572 
 4109      4D6F6465 
 4109      00
 4110              	.LASF63:
 4111 0472 73746174 		.ascii	"status\000"
 4111      757300
 4112              	.LASF74:
 4113 0479 4379506D 		.ascii	"CyPmHviLviRestore\000"
 4113      4876694C 
 4113      76695265 
 4113      73746F72 
 4113      6500
 4114              	.LASF16:
 4115 048b 63686172 		.ascii	"char\000"
 4115      00
 4116              	.LASF17:
 4117 0490 63797374 		.ascii	"cystatus\000"
 4117      61747573 
 4117      00
 4118              	.LASF49:
 4119 0499 6C766964 		.ascii	"lvidTrip\000"
 4119      54726970 
 4119      00
 4120              	.LASF10:
 4121 04a2 696E7433 		.ascii	"int32_t\000"
 4121      325F7400 
 4122              	.LASF120:
 4123 04aa 4379456E 		.ascii	"CyEnterCriticalSection\000"
 4123      74657243 
 4123      72697469 
 4123      63616C53 
 4123      65637469 
 4124              	.LASF3:
 4125 04c1 73686F72 		.ascii	"short unsigned int\000"
 4125      7420756E 
ARM GAS  C:\Users\PIET~1.COU\AppData\Local\Temp\ccUpISSh.s 			page 118


 4125      7369676E 
 4125      65642069 
 4125      6E7400
 4126              	.LASF67:
 4127 04d4 77616B65 		.ascii	"wakeupTime\000"
 4127      75705469 
 4127      6D6500
 4128              	.LASF85:
 4129 04df 6379506D 		.ascii	"cyPmBackup\000"
 4129      4261636B 
 4129      757000
 4130              	.LASF52:
 4131 04ea 68766961 		.ascii	"hviaEn\000"
 4131      456E00
 4132              	.LASF35:
 4133 04f1 43595F50 		.ascii	"CY_PM_CLOCK_BACKUP_STRUCT\000"
 4133      4D5F434C 
 4133      4F434B5F 
 4133      4241434B 
 4133      55505F53 
 4134              	.LASF70:
 4135 050b 696E7465 		.ascii	"interruptState\000"
 4135      72727570 
 4135      74537461 
 4135      746500
 4136              	.LASF108:
 4137 051a 4379494C 		.ascii	"CyILO_SetPowerMode\000"
 4137      4F5F5365 
 4137      74506F77 
 4137      65724D6F 
 4137      646500
 4138              	.LASF13:
 4139 052d 75696E74 		.ascii	"uint32\000"
 4139      333200
 4140              	.LASF34:
 4141 0534 636C6B44 		.ascii	"clkDistDelay\000"
 4141      69737444 
 4141      656C6179 
 4141      00
 4142              	.LASF18:
 4143 0541 72656738 		.ascii	"reg8\000"
 4143      00
 4144              	.LASF5:
 4145 0546 6C6F6E67 		.ascii	"long unsigned int\000"
 4145      20756E73 
 4145      69676E65 
 4145      6420696E 
 4145      7400
 4146              	.LASF100:
 4147 0558 4379494D 		.ascii	"CyIMO_EnableDoubler\000"
 4147      4F5F456E 
 4147      61626C65 
 4147      446F7562 
 4147      6C657200 
 4148              	.LASF58:
 4149 056c 43595F50 		.ascii	"CY_PM_BACKUP_STRUCT\000"
 4149      4D5F4241 
ARM GAS  C:\Users\PIET~1.COU\AppData\Local\Temp\ccUpISSh.s 			page 119


 4149      434B5550 
 4149      5F535452 
 4149      55435400 
 4150              	.LASF15:
 4151 0580 646F7562 		.ascii	"double\000"
 4151      6C6500
 4152              	.LASF56:
 4153 0587 696D6F41 		.ascii	"imoActFreq12Mhz\000"
 4153      63744672 
 4153      65713132 
 4153      4D687A00 
 4154              	.LASF36:
 4155 0597 6379506D 		.ascii	"cyPmClockBackupStruct\000"
 4155      436C6F63 
 4155      6B426163 
 4155      6B757053 
 4155      74727563 
 4156              	.LASF37:
 4157 05ad 6379506D 		.ascii	"cyPmBackupStruct\000"
 4157      4261636B 
 4157      75705374 
 4157      72756374 
 4157      00
 4158              	.LASF114:
 4159 05be 43795854 		.ascii	"CyXTAL_32KHZ_Start\000"
 4159      414C5F33 
 4159      324B485A 
 4159      5F537461 
 4159      727400
 4160              	.LASF82:
 4161 05d1 4379506D 		.ascii	"CyPmOppsSet\000"
 4161      4F707073 
 4161      53657400 
 4162              	.LASF103:
 4163 05dd 4379494D 		.ascii	"CyIMO_Stop\000"
 4163      4F5F5374 
 4163      6F7000
 4164              	.LASF42:
 4165 05e8 77616B65 		.ascii	"wakeupCfg0\000"
 4165      75704366 
 4165      673000
 4166              	.LASF43:
 4167 05f3 77616B65 		.ascii	"wakeupCfg1\000"
 4167      75704366 
 4167      673100
 4168              	.LASF44:
 4169 05fe 77616B65 		.ascii	"wakeupCfg2\000"
 4169      75704366 
 4169      673200
 4170              	.LASF9:
 4171 0609 5F5F696E 		.ascii	"__int32_t\000"
 4171      7433325F 
 4171      7400
 4172              	.LASF71:
 4173 0613 4379506D 		.ascii	"CyPmHibSaveSet\000"
 4173      48696253 
 4173      61766553 
ARM GAS  C:\Users\PIET~1.COU\AppData\Local\Temp\ccUpISSh.s 			page 120


 4173      657400
 4174              	.LASF27:
 4175 0622 696D6F43 		.ascii	"imoClkSrc\000"
 4175      6C6B5372 
 4175      6300
 4176              	.LASF80:
 4177 062c 4379506D 		.ascii	"CyPmCtwSetInterval\000"
 4177      43747753 
 4177      6574496E 
 4177      74657276 
 4177      616C00
 4178              	.LASF89:
 4179 063f 43794D61 		.ascii	"CyMasterClk_SetSource\000"
 4179      73746572 
 4179      436C6B5F 
 4179      53657453 
 4179      6F757263 
 4180              	.LASF78:
 4181 0655 696E7465 		.ascii	"interruptStatus\000"
 4181      72727570 
 4181      74537461 
 4181      74757300 
 4182              	.LASF19:
 4183 0665 73697A65 		.ascii	"sizetype\000"
 4183      74797065 
 4183      00
 4184              	.LASF73:
 4185 066e 4379506D 		.ascii	"CyPmHibRestore\000"
 4185      48696252 
 4185      6573746F 
 4185      726500
 4186              	.LASF68:
 4187 067d 77616B65 		.ascii	"wakeupSource\000"
 4187      7570536F 
 4187      75726365 
 4187      00
 4188              	.LASF39:
 4189 068a 696C6F31 		.ascii	"ilo1kEnable\000"
 4189      6B456E61 
 4189      626C6500 
 4190              	.LASF91:
 4191 0696 4379494D 		.ascii	"CyIMO_Start\000"
 4191      4F5F5374 
 4191      61727400 
 4192              	.LASF83:
 4193 06a2 4379506D 		.ascii	"CyPmFtwSetInterval\000"
 4193      46747753 
 4193      6574496E 
 4193      74657276 
 4193      616C00
 4194              	.LASF94:
 4195 06b5 4379504C 		.ascii	"CyPLL_OUT_Stop\000"
 4195      4C5F4F55 
 4195      545F5374 
 4195      6F7000
 4196              	.LASF22:
 4197 06c4 6D617374 		.ascii	"masterClkSrc\000"
ARM GAS  C:\Users\PIET~1.COU\AppData\Local\Temp\ccUpISSh.s 			page 121


 4197      6572436C 
 4197      6B537263 
 4197      00
 4198              	.LASF119:
 4199 06d1 49544D5F 		.ascii	"ITM_RxBuffer\000"
 4199      52784275 
 4199      66666572 
 4199      00
 4200              	.LASF8:
 4201 06de 756E7369 		.ascii	"unsigned int\000"
 4201      676E6564 
 4201      20696E74 
 4201      00
 4202              	.LASF64:
 4203 06eb 636C6B42 		.ascii	"clkBusDivTmp\000"
 4203      75734469 
 4203      76546D70 
 4203      00
 4204              	.LASF48:
 4205 06f8 6C766964 		.ascii	"lvidEn\000"
 4205      456E00
 4206              	.LASF86:
 4207 06ff 6379506D 		.ascii	"cyPmClockBackup\000"
 4207      436C6F63 
 4207      6B426163 
 4207      6B757000 
 4208              	.LASF77:
 4209 070f 6D61736B 		.ascii	"mask\000"
 4209      00
 4210              	.LASF113:
 4211 0714 4379494C 		.ascii	"CyILO_Start100K\000"
 4211      4F5F5374 
 4211      61727431 
 4211      30304B00 
 4212              		.ident	"GCC: (GNU Tools for ARM Embedded Processors) 4.9.3 20150303 (release) [ARM/embedded-4_9-br
