ARM GAS  C:\Users\PIET~1.COU\AppData\Local\Temp\ccC1mu7N.s 			page 1


   1              		.syntax unified
   2              		.cpu cortex-m3
   3              		.fpu softvfp
   4              		.eabi_attribute 20, 1
   5              		.eabi_attribute 21, 1
   6              		.eabi_attribute 23, 3
   7              		.eabi_attribute 24, 1
   8              		.eabi_attribute 25, 1
   9              		.eabi_attribute 26, 1
  10              		.eabi_attribute 30, 4
  11              		.eabi_attribute 34, 1
  12              		.eabi_attribute 18, 4
  13              		.thumb
  14              		.file	"SampleInKlaar.c"
  15              		.text
  16              	.Ltext0:
  17              		.cfi_sections	.debug_frame
  18              		.section	.text.SampleInKlaar_Interrupt,"ax",%progbits
  19              		.align	1
  20              		.global	SampleInKlaar_Interrupt
  21              		.thumb
  22              		.thumb_func
  23              		.type	SampleInKlaar_Interrupt, %function
  24              	SampleInKlaar_Interrupt:
  25              	.LFB66:
  26              		.file 1 ".\\Generated_Source\\PSoC5\\SampleInKlaar.c"
   1:.\Generated_Source\PSoC5/SampleInKlaar.c **** /*******************************************************************************
   2:.\Generated_Source\PSoC5/SampleInKlaar.c **** * File Name: SampleInKlaar.c  
   3:.\Generated_Source\PSoC5/SampleInKlaar.c **** * Version 1.70
   4:.\Generated_Source\PSoC5/SampleInKlaar.c **** *
   5:.\Generated_Source\PSoC5/SampleInKlaar.c **** *  Description:
   6:.\Generated_Source\PSoC5/SampleInKlaar.c **** *   API for controlling the state of an interrupt.
   7:.\Generated_Source\PSoC5/SampleInKlaar.c **** *
   8:.\Generated_Source\PSoC5/SampleInKlaar.c **** *
   9:.\Generated_Source\PSoC5/SampleInKlaar.c **** *  Note:
  10:.\Generated_Source\PSoC5/SampleInKlaar.c **** *
  11:.\Generated_Source\PSoC5/SampleInKlaar.c **** ********************************************************************************
  12:.\Generated_Source\PSoC5/SampleInKlaar.c **** * Copyright 2008-2015, Cypress Semiconductor Corporation.  All rights reserved.
  13:.\Generated_Source\PSoC5/SampleInKlaar.c **** * You may use this file only in accordance with the license, terms, conditions, 
  14:.\Generated_Source\PSoC5/SampleInKlaar.c **** * disclaimers, and limitations in the end user license agreement accompanying 
  15:.\Generated_Source\PSoC5/SampleInKlaar.c **** * the software package with which this file was provided.
  16:.\Generated_Source\PSoC5/SampleInKlaar.c **** *******************************************************************************/
  17:.\Generated_Source\PSoC5/SampleInKlaar.c **** 
  18:.\Generated_Source\PSoC5/SampleInKlaar.c **** 
  19:.\Generated_Source\PSoC5/SampleInKlaar.c **** #include <cydevice_trm.h>
  20:.\Generated_Source\PSoC5/SampleInKlaar.c **** #include <CyLib.h>
  21:.\Generated_Source\PSoC5/SampleInKlaar.c **** #include <SampleInKlaar.h>
  22:.\Generated_Source\PSoC5/SampleInKlaar.c **** #include "cyapicallbacks.h"
  23:.\Generated_Source\PSoC5/SampleInKlaar.c **** 
  24:.\Generated_Source\PSoC5/SampleInKlaar.c **** #if !defined(SampleInKlaar__REMOVED) /* Check for removal by optimization */
  25:.\Generated_Source\PSoC5/SampleInKlaar.c **** 
  26:.\Generated_Source\PSoC5/SampleInKlaar.c **** /*******************************************************************************
  27:.\Generated_Source\PSoC5/SampleInKlaar.c **** *  Place your includes, defines and code here 
  28:.\Generated_Source\PSoC5/SampleInKlaar.c **** ********************************************************************************/
  29:.\Generated_Source\PSoC5/SampleInKlaar.c **** /* `#START SampleInKlaar_intc` */
  30:.\Generated_Source\PSoC5/SampleInKlaar.c **** 
  31:.\Generated_Source\PSoC5/SampleInKlaar.c **** /* `#END` */
ARM GAS  C:\Users\PIET~1.COU\AppData\Local\Temp\ccC1mu7N.s 			page 2


  32:.\Generated_Source\PSoC5/SampleInKlaar.c **** 
  33:.\Generated_Source\PSoC5/SampleInKlaar.c **** #ifndef CYINT_IRQ_BASE
  34:.\Generated_Source\PSoC5/SampleInKlaar.c **** #define CYINT_IRQ_BASE      16
  35:.\Generated_Source\PSoC5/SampleInKlaar.c **** #endif /* CYINT_IRQ_BASE */
  36:.\Generated_Source\PSoC5/SampleInKlaar.c **** #ifndef CYINT_VECT_TABLE
  37:.\Generated_Source\PSoC5/SampleInKlaar.c **** #define CYINT_VECT_TABLE    ((cyisraddress **) CYREG_NVIC_VECT_OFFSET)
  38:.\Generated_Source\PSoC5/SampleInKlaar.c **** #endif /* CYINT_VECT_TABLE */
  39:.\Generated_Source\PSoC5/SampleInKlaar.c **** 
  40:.\Generated_Source\PSoC5/SampleInKlaar.c **** /* Declared in startup, used to set unused interrupts to. */
  41:.\Generated_Source\PSoC5/SampleInKlaar.c **** CY_ISR_PROTO(IntDefaultHandler);
  42:.\Generated_Source\PSoC5/SampleInKlaar.c **** 
  43:.\Generated_Source\PSoC5/SampleInKlaar.c **** 
  44:.\Generated_Source\PSoC5/SampleInKlaar.c **** /*******************************************************************************
  45:.\Generated_Source\PSoC5/SampleInKlaar.c **** * Function Name: SampleInKlaar_Start
  46:.\Generated_Source\PSoC5/SampleInKlaar.c **** ********************************************************************************
  47:.\Generated_Source\PSoC5/SampleInKlaar.c **** *
  48:.\Generated_Source\PSoC5/SampleInKlaar.c **** * Summary:
  49:.\Generated_Source\PSoC5/SampleInKlaar.c **** *  Set up the interrupt and enable it. This function disables the interrupt, 
  50:.\Generated_Source\PSoC5/SampleInKlaar.c **** *  sets the default interrupt vector, sets the priority from the value in the
  51:.\Generated_Source\PSoC5/SampleInKlaar.c **** *  Design Wide Resources Interrupt Editor, then enables the interrupt to the 
  52:.\Generated_Source\PSoC5/SampleInKlaar.c **** *  interrupt controller.
  53:.\Generated_Source\PSoC5/SampleInKlaar.c **** *
  54:.\Generated_Source\PSoC5/SampleInKlaar.c **** * Parameters:  
  55:.\Generated_Source\PSoC5/SampleInKlaar.c **** *   None
  56:.\Generated_Source\PSoC5/SampleInKlaar.c **** *
  57:.\Generated_Source\PSoC5/SampleInKlaar.c **** * Return:
  58:.\Generated_Source\PSoC5/SampleInKlaar.c **** *   None
  59:.\Generated_Source\PSoC5/SampleInKlaar.c **** *
  60:.\Generated_Source\PSoC5/SampleInKlaar.c **** *******************************************************************************/
  61:.\Generated_Source\PSoC5/SampleInKlaar.c **** void SampleInKlaar_Start(void)
  62:.\Generated_Source\PSoC5/SampleInKlaar.c **** {
  63:.\Generated_Source\PSoC5/SampleInKlaar.c ****     /* For all we know the interrupt is active. */
  64:.\Generated_Source\PSoC5/SampleInKlaar.c ****     SampleInKlaar_Disable();
  65:.\Generated_Source\PSoC5/SampleInKlaar.c **** 
  66:.\Generated_Source\PSoC5/SampleInKlaar.c ****     /* Set the ISR to point to the SampleInKlaar Interrupt. */
  67:.\Generated_Source\PSoC5/SampleInKlaar.c ****     SampleInKlaar_SetVector(&SampleInKlaar_Interrupt);
  68:.\Generated_Source\PSoC5/SampleInKlaar.c **** 
  69:.\Generated_Source\PSoC5/SampleInKlaar.c ****     /* Set the priority. */
  70:.\Generated_Source\PSoC5/SampleInKlaar.c ****     SampleInKlaar_SetPriority((uint8)SampleInKlaar_INTC_PRIOR_NUMBER);
  71:.\Generated_Source\PSoC5/SampleInKlaar.c **** 
  72:.\Generated_Source\PSoC5/SampleInKlaar.c ****     /* Enable it. */
  73:.\Generated_Source\PSoC5/SampleInKlaar.c ****     SampleInKlaar_Enable();
  74:.\Generated_Source\PSoC5/SampleInKlaar.c **** }
  75:.\Generated_Source\PSoC5/SampleInKlaar.c **** 
  76:.\Generated_Source\PSoC5/SampleInKlaar.c **** 
  77:.\Generated_Source\PSoC5/SampleInKlaar.c **** /*******************************************************************************
  78:.\Generated_Source\PSoC5/SampleInKlaar.c **** * Function Name: SampleInKlaar_StartEx
  79:.\Generated_Source\PSoC5/SampleInKlaar.c **** ********************************************************************************
  80:.\Generated_Source\PSoC5/SampleInKlaar.c **** *
  81:.\Generated_Source\PSoC5/SampleInKlaar.c **** * Summary:
  82:.\Generated_Source\PSoC5/SampleInKlaar.c **** *  Sets up the interrupt and enables it. This function disables the interrupt,
  83:.\Generated_Source\PSoC5/SampleInKlaar.c **** *  sets the interrupt vector based on the address passed in, sets the priority 
  84:.\Generated_Source\PSoC5/SampleInKlaar.c **** *  from the value in the Design Wide Resources Interrupt Editor, then enables 
  85:.\Generated_Source\PSoC5/SampleInKlaar.c **** *  the interrupt to the interrupt controller.
  86:.\Generated_Source\PSoC5/SampleInKlaar.c **** *  
  87:.\Generated_Source\PSoC5/SampleInKlaar.c **** *  When defining ISR functions, the CY_ISR and CY_ISR_PROTO macros should be 
  88:.\Generated_Source\PSoC5/SampleInKlaar.c **** *  used to provide consistent definition across compilers:
ARM GAS  C:\Users\PIET~1.COU\AppData\Local\Temp\ccC1mu7N.s 			page 3


  89:.\Generated_Source\PSoC5/SampleInKlaar.c **** *  
  90:.\Generated_Source\PSoC5/SampleInKlaar.c **** *  Function definition example:
  91:.\Generated_Source\PSoC5/SampleInKlaar.c **** *   CY_ISR(MyISR)
  92:.\Generated_Source\PSoC5/SampleInKlaar.c **** *   {
  93:.\Generated_Source\PSoC5/SampleInKlaar.c **** *   }
  94:.\Generated_Source\PSoC5/SampleInKlaar.c **** *   Function prototype example:
  95:.\Generated_Source\PSoC5/SampleInKlaar.c **** *   CY_ISR_PROTO(MyISR);
  96:.\Generated_Source\PSoC5/SampleInKlaar.c **** *
  97:.\Generated_Source\PSoC5/SampleInKlaar.c **** * Parameters:  
  98:.\Generated_Source\PSoC5/SampleInKlaar.c **** *   address: Address of the ISR to set in the interrupt vector table.
  99:.\Generated_Source\PSoC5/SampleInKlaar.c **** *
 100:.\Generated_Source\PSoC5/SampleInKlaar.c **** * Return:
 101:.\Generated_Source\PSoC5/SampleInKlaar.c **** *   None
 102:.\Generated_Source\PSoC5/SampleInKlaar.c **** *
 103:.\Generated_Source\PSoC5/SampleInKlaar.c **** *******************************************************************************/
 104:.\Generated_Source\PSoC5/SampleInKlaar.c **** void SampleInKlaar_StartEx(cyisraddress address)
 105:.\Generated_Source\PSoC5/SampleInKlaar.c **** {
 106:.\Generated_Source\PSoC5/SampleInKlaar.c ****     /* For all we know the interrupt is active. */
 107:.\Generated_Source\PSoC5/SampleInKlaar.c ****     SampleInKlaar_Disable();
 108:.\Generated_Source\PSoC5/SampleInKlaar.c **** 
 109:.\Generated_Source\PSoC5/SampleInKlaar.c ****     /* Set the ISR to point to the SampleInKlaar Interrupt. */
 110:.\Generated_Source\PSoC5/SampleInKlaar.c ****     SampleInKlaar_SetVector(address);
 111:.\Generated_Source\PSoC5/SampleInKlaar.c **** 
 112:.\Generated_Source\PSoC5/SampleInKlaar.c ****     /* Set the priority. */
 113:.\Generated_Source\PSoC5/SampleInKlaar.c ****     SampleInKlaar_SetPriority((uint8)SampleInKlaar_INTC_PRIOR_NUMBER);
 114:.\Generated_Source\PSoC5/SampleInKlaar.c **** 
 115:.\Generated_Source\PSoC5/SampleInKlaar.c ****     /* Enable it. */
 116:.\Generated_Source\PSoC5/SampleInKlaar.c ****     SampleInKlaar_Enable();
 117:.\Generated_Source\PSoC5/SampleInKlaar.c **** }
 118:.\Generated_Source\PSoC5/SampleInKlaar.c **** 
 119:.\Generated_Source\PSoC5/SampleInKlaar.c **** 
 120:.\Generated_Source\PSoC5/SampleInKlaar.c **** /*******************************************************************************
 121:.\Generated_Source\PSoC5/SampleInKlaar.c **** * Function Name: SampleInKlaar_Stop
 122:.\Generated_Source\PSoC5/SampleInKlaar.c **** ********************************************************************************
 123:.\Generated_Source\PSoC5/SampleInKlaar.c **** *
 124:.\Generated_Source\PSoC5/SampleInKlaar.c **** * Summary:
 125:.\Generated_Source\PSoC5/SampleInKlaar.c **** *   Disables and removes the interrupt.
 126:.\Generated_Source\PSoC5/SampleInKlaar.c **** *
 127:.\Generated_Source\PSoC5/SampleInKlaar.c **** * Parameters:  
 128:.\Generated_Source\PSoC5/SampleInKlaar.c **** *   None
 129:.\Generated_Source\PSoC5/SampleInKlaar.c **** *
 130:.\Generated_Source\PSoC5/SampleInKlaar.c **** * Return:
 131:.\Generated_Source\PSoC5/SampleInKlaar.c **** *   None
 132:.\Generated_Source\PSoC5/SampleInKlaar.c **** *
 133:.\Generated_Source\PSoC5/SampleInKlaar.c **** *******************************************************************************/
 134:.\Generated_Source\PSoC5/SampleInKlaar.c **** void SampleInKlaar_Stop(void)
 135:.\Generated_Source\PSoC5/SampleInKlaar.c **** {
 136:.\Generated_Source\PSoC5/SampleInKlaar.c ****     /* Disable this interrupt. */
 137:.\Generated_Source\PSoC5/SampleInKlaar.c ****     SampleInKlaar_Disable();
 138:.\Generated_Source\PSoC5/SampleInKlaar.c **** 
 139:.\Generated_Source\PSoC5/SampleInKlaar.c ****     /* Set the ISR to point to the passive one. */
 140:.\Generated_Source\PSoC5/SampleInKlaar.c ****     SampleInKlaar_SetVector(&IntDefaultHandler);
 141:.\Generated_Source\PSoC5/SampleInKlaar.c **** }
 142:.\Generated_Source\PSoC5/SampleInKlaar.c **** 
 143:.\Generated_Source\PSoC5/SampleInKlaar.c **** 
 144:.\Generated_Source\PSoC5/SampleInKlaar.c **** /*******************************************************************************
 145:.\Generated_Source\PSoC5/SampleInKlaar.c **** * Function Name: SampleInKlaar_Interrupt
ARM GAS  C:\Users\PIET~1.COU\AppData\Local\Temp\ccC1mu7N.s 			page 4


 146:.\Generated_Source\PSoC5/SampleInKlaar.c **** ********************************************************************************
 147:.\Generated_Source\PSoC5/SampleInKlaar.c **** *
 148:.\Generated_Source\PSoC5/SampleInKlaar.c **** * Summary:
 149:.\Generated_Source\PSoC5/SampleInKlaar.c **** *   The default Interrupt Service Routine for SampleInKlaar.
 150:.\Generated_Source\PSoC5/SampleInKlaar.c **** *
 151:.\Generated_Source\PSoC5/SampleInKlaar.c **** *   Add custom code between the coments to keep the next version of this file
 152:.\Generated_Source\PSoC5/SampleInKlaar.c **** *   from over writting your code.
 153:.\Generated_Source\PSoC5/SampleInKlaar.c **** *
 154:.\Generated_Source\PSoC5/SampleInKlaar.c **** * Parameters:  
 155:.\Generated_Source\PSoC5/SampleInKlaar.c **** *
 156:.\Generated_Source\PSoC5/SampleInKlaar.c **** * Return:
 157:.\Generated_Source\PSoC5/SampleInKlaar.c **** *   None
 158:.\Generated_Source\PSoC5/SampleInKlaar.c **** *
 159:.\Generated_Source\PSoC5/SampleInKlaar.c **** *******************************************************************************/
 160:.\Generated_Source\PSoC5/SampleInKlaar.c **** CY_ISR(SampleInKlaar_Interrupt)
 161:.\Generated_Source\PSoC5/SampleInKlaar.c **** {
  27              		.loc 1 161 0
  28              		.cfi_startproc
  29              		@ args = 0, pretend = 0, frame = 0
  30              		@ frame_needed = 0, uses_anonymous_args = 0
  31              		@ link register save eliminated.
  32 0000 7047     		bx	lr
  33              		.cfi_endproc
  34              	.LFE66:
  35              		.size	SampleInKlaar_Interrupt, .-SampleInKlaar_Interrupt
  36              		.section	.text.SampleInKlaar_Start,"ax",%progbits
  37              		.align	1
  38              		.global	SampleInKlaar_Start
  39              		.thumb
  40              		.thumb_func
  41              		.type	SampleInKlaar_Start, %function
  42              	SampleInKlaar_Start:
  43              	.LFB63:
  62:.\Generated_Source\PSoC5/SampleInKlaar.c ****     /* For all we know the interrupt is active. */
  44              		.loc 1 62 0
  45              		.cfi_startproc
  46              		@ args = 0, pretend = 0, frame = 0
  47              		@ frame_needed = 0, uses_anonymous_args = 0
  48              		@ link register save eliminated.
  49              	.LBB22:
  50              	.LBB23:
 162:.\Generated_Source\PSoC5/SampleInKlaar.c ****     #ifdef SampleInKlaar_INTERRUPT_INTERRUPT_CALLBACK
 163:.\Generated_Source\PSoC5/SampleInKlaar.c ****         SampleInKlaar_Interrupt_InterruptCallback();
 164:.\Generated_Source\PSoC5/SampleInKlaar.c ****     #endif /* SampleInKlaar_INTERRUPT_INTERRUPT_CALLBACK */ 
 165:.\Generated_Source\PSoC5/SampleInKlaar.c **** 
 166:.\Generated_Source\PSoC5/SampleInKlaar.c ****     /*  Place your Interrupt code here. */
 167:.\Generated_Source\PSoC5/SampleInKlaar.c ****     /* `#START SampleInKlaar_Interrupt` */
 168:.\Generated_Source\PSoC5/SampleInKlaar.c **** 
 169:.\Generated_Source\PSoC5/SampleInKlaar.c ****     /* `#END` */
 170:.\Generated_Source\PSoC5/SampleInKlaar.c **** }
 171:.\Generated_Source\PSoC5/SampleInKlaar.c **** 
 172:.\Generated_Source\PSoC5/SampleInKlaar.c **** 
 173:.\Generated_Source\PSoC5/SampleInKlaar.c **** /*******************************************************************************
 174:.\Generated_Source\PSoC5/SampleInKlaar.c **** * Function Name: SampleInKlaar_SetVector
 175:.\Generated_Source\PSoC5/SampleInKlaar.c **** ********************************************************************************
 176:.\Generated_Source\PSoC5/SampleInKlaar.c **** *
 177:.\Generated_Source\PSoC5/SampleInKlaar.c **** * Summary:
ARM GAS  C:\Users\PIET~1.COU\AppData\Local\Temp\ccC1mu7N.s 			page 5


 178:.\Generated_Source\PSoC5/SampleInKlaar.c **** *   Change the ISR vector for the Interrupt. Note calling SampleInKlaar_Start
 179:.\Generated_Source\PSoC5/SampleInKlaar.c **** *   will override any effect this method would have had. To set the vector 
 180:.\Generated_Source\PSoC5/SampleInKlaar.c **** *   before the component has been started use SampleInKlaar_StartEx instead.
 181:.\Generated_Source\PSoC5/SampleInKlaar.c **** * 
 182:.\Generated_Source\PSoC5/SampleInKlaar.c **** *   When defining ISR functions, the CY_ISR and CY_ISR_PROTO macros should be 
 183:.\Generated_Source\PSoC5/SampleInKlaar.c **** *   used to provide consistent definition across compilers:
 184:.\Generated_Source\PSoC5/SampleInKlaar.c **** *
 185:.\Generated_Source\PSoC5/SampleInKlaar.c **** *   Function definition example:
 186:.\Generated_Source\PSoC5/SampleInKlaar.c **** *   CY_ISR(MyISR)
 187:.\Generated_Source\PSoC5/SampleInKlaar.c **** *   {
 188:.\Generated_Source\PSoC5/SampleInKlaar.c **** *   }
 189:.\Generated_Source\PSoC5/SampleInKlaar.c **** *
 190:.\Generated_Source\PSoC5/SampleInKlaar.c **** *   Function prototype example:
 191:.\Generated_Source\PSoC5/SampleInKlaar.c **** *     CY_ISR_PROTO(MyISR);
 192:.\Generated_Source\PSoC5/SampleInKlaar.c **** *
 193:.\Generated_Source\PSoC5/SampleInKlaar.c **** * Parameters:
 194:.\Generated_Source\PSoC5/SampleInKlaar.c **** *   address: Address of the ISR to set in the interrupt vector table.
 195:.\Generated_Source\PSoC5/SampleInKlaar.c **** *
 196:.\Generated_Source\PSoC5/SampleInKlaar.c **** * Return:
 197:.\Generated_Source\PSoC5/SampleInKlaar.c **** *   None
 198:.\Generated_Source\PSoC5/SampleInKlaar.c **** *
 199:.\Generated_Source\PSoC5/SampleInKlaar.c **** *******************************************************************************/
 200:.\Generated_Source\PSoC5/SampleInKlaar.c **** void SampleInKlaar_SetVector(cyisraddress address)
 201:.\Generated_Source\PSoC5/SampleInKlaar.c **** {
 202:.\Generated_Source\PSoC5/SampleInKlaar.c ****     cyisraddress * ramVectorTable;
 203:.\Generated_Source\PSoC5/SampleInKlaar.c **** 
 204:.\Generated_Source\PSoC5/SampleInKlaar.c ****     ramVectorTable = (cyisraddress *) *CYINT_VECT_TABLE;
 205:.\Generated_Source\PSoC5/SampleInKlaar.c **** 
 206:.\Generated_Source\PSoC5/SampleInKlaar.c ****     ramVectorTable[CYINT_IRQ_BASE + (uint32)SampleInKlaar__INTC_NUMBER] = address;
 207:.\Generated_Source\PSoC5/SampleInKlaar.c **** }
 208:.\Generated_Source\PSoC5/SampleInKlaar.c **** 
 209:.\Generated_Source\PSoC5/SampleInKlaar.c **** 
 210:.\Generated_Source\PSoC5/SampleInKlaar.c **** /*******************************************************************************
 211:.\Generated_Source\PSoC5/SampleInKlaar.c **** * Function Name: SampleInKlaar_GetVector
 212:.\Generated_Source\PSoC5/SampleInKlaar.c **** ********************************************************************************
 213:.\Generated_Source\PSoC5/SampleInKlaar.c **** *
 214:.\Generated_Source\PSoC5/SampleInKlaar.c **** * Summary:
 215:.\Generated_Source\PSoC5/SampleInKlaar.c **** *   Gets the "address" of the current ISR vector for the Interrupt.
 216:.\Generated_Source\PSoC5/SampleInKlaar.c **** *
 217:.\Generated_Source\PSoC5/SampleInKlaar.c **** * Parameters:
 218:.\Generated_Source\PSoC5/SampleInKlaar.c **** *   None
 219:.\Generated_Source\PSoC5/SampleInKlaar.c **** *
 220:.\Generated_Source\PSoC5/SampleInKlaar.c **** * Return:
 221:.\Generated_Source\PSoC5/SampleInKlaar.c **** *   Address of the ISR in the interrupt vector table.
 222:.\Generated_Source\PSoC5/SampleInKlaar.c **** *
 223:.\Generated_Source\PSoC5/SampleInKlaar.c **** *******************************************************************************/
 224:.\Generated_Source\PSoC5/SampleInKlaar.c **** cyisraddress SampleInKlaar_GetVector(void)
 225:.\Generated_Source\PSoC5/SampleInKlaar.c **** {
 226:.\Generated_Source\PSoC5/SampleInKlaar.c ****     cyisraddress * ramVectorTable;
 227:.\Generated_Source\PSoC5/SampleInKlaar.c **** 
 228:.\Generated_Source\PSoC5/SampleInKlaar.c ****     ramVectorTable = (cyisraddress *) *CYINT_VECT_TABLE;
 229:.\Generated_Source\PSoC5/SampleInKlaar.c **** 
 230:.\Generated_Source\PSoC5/SampleInKlaar.c ****     return ramVectorTable[CYINT_IRQ_BASE + (uint32)SampleInKlaar__INTC_NUMBER];
 231:.\Generated_Source\PSoC5/SampleInKlaar.c **** }
 232:.\Generated_Source\PSoC5/SampleInKlaar.c **** 
 233:.\Generated_Source\PSoC5/SampleInKlaar.c **** 
 234:.\Generated_Source\PSoC5/SampleInKlaar.c **** /*******************************************************************************
ARM GAS  C:\Users\PIET~1.COU\AppData\Local\Temp\ccC1mu7N.s 			page 6


 235:.\Generated_Source\PSoC5/SampleInKlaar.c **** * Function Name: SampleInKlaar_SetPriority
 236:.\Generated_Source\PSoC5/SampleInKlaar.c **** ********************************************************************************
 237:.\Generated_Source\PSoC5/SampleInKlaar.c **** *
 238:.\Generated_Source\PSoC5/SampleInKlaar.c **** * Summary:
 239:.\Generated_Source\PSoC5/SampleInKlaar.c **** *   Sets the Priority of the Interrupt. 
 240:.\Generated_Source\PSoC5/SampleInKlaar.c **** *
 241:.\Generated_Source\PSoC5/SampleInKlaar.c **** *   Note calling SampleInKlaar_Start or SampleInKlaar_StartEx will 
 242:.\Generated_Source\PSoC5/SampleInKlaar.c **** *   override any effect this API would have had. This API should only be called
 243:.\Generated_Source\PSoC5/SampleInKlaar.c **** *   after SampleInKlaar_Start or SampleInKlaar_StartEx has been called. 
 244:.\Generated_Source\PSoC5/SampleInKlaar.c **** *   To set the initial priority for the component, use the Design-Wide Resources
 245:.\Generated_Source\PSoC5/SampleInKlaar.c **** *   Interrupt Editor.
 246:.\Generated_Source\PSoC5/SampleInKlaar.c **** *
 247:.\Generated_Source\PSoC5/SampleInKlaar.c **** *   Note This API has no effect on Non-maskable interrupt NMI).
 248:.\Generated_Source\PSoC5/SampleInKlaar.c **** *
 249:.\Generated_Source\PSoC5/SampleInKlaar.c **** * Parameters:
 250:.\Generated_Source\PSoC5/SampleInKlaar.c **** *   priority: Priority of the interrupt, 0 being the highest priority
 251:.\Generated_Source\PSoC5/SampleInKlaar.c **** *             PSoC 3 and PSoC 5LP: Priority is from 0 to 7.
 252:.\Generated_Source\PSoC5/SampleInKlaar.c **** *             PSoC 4: Priority is from 0 to 3.
 253:.\Generated_Source\PSoC5/SampleInKlaar.c **** *
 254:.\Generated_Source\PSoC5/SampleInKlaar.c **** * Return:
 255:.\Generated_Source\PSoC5/SampleInKlaar.c **** *   None
 256:.\Generated_Source\PSoC5/SampleInKlaar.c **** *
 257:.\Generated_Source\PSoC5/SampleInKlaar.c **** *******************************************************************************/
 258:.\Generated_Source\PSoC5/SampleInKlaar.c **** void SampleInKlaar_SetPriority(uint8 priority)
 259:.\Generated_Source\PSoC5/SampleInKlaar.c **** {
 260:.\Generated_Source\PSoC5/SampleInKlaar.c ****     *SampleInKlaar_INTC_PRIOR = priority << 5;
 261:.\Generated_Source\PSoC5/SampleInKlaar.c **** }
 262:.\Generated_Source\PSoC5/SampleInKlaar.c **** 
 263:.\Generated_Source\PSoC5/SampleInKlaar.c **** 
 264:.\Generated_Source\PSoC5/SampleInKlaar.c **** /*******************************************************************************
 265:.\Generated_Source\PSoC5/SampleInKlaar.c **** * Function Name: SampleInKlaar_GetPriority
 266:.\Generated_Source\PSoC5/SampleInKlaar.c **** ********************************************************************************
 267:.\Generated_Source\PSoC5/SampleInKlaar.c **** *
 268:.\Generated_Source\PSoC5/SampleInKlaar.c **** * Summary:
 269:.\Generated_Source\PSoC5/SampleInKlaar.c **** *   Gets the Priority of the Interrupt.
 270:.\Generated_Source\PSoC5/SampleInKlaar.c **** *
 271:.\Generated_Source\PSoC5/SampleInKlaar.c **** * Parameters:
 272:.\Generated_Source\PSoC5/SampleInKlaar.c **** *   None
 273:.\Generated_Source\PSoC5/SampleInKlaar.c **** *
 274:.\Generated_Source\PSoC5/SampleInKlaar.c **** * Return:
 275:.\Generated_Source\PSoC5/SampleInKlaar.c **** *   Priority of the interrupt, 0 being the highest priority
 276:.\Generated_Source\PSoC5/SampleInKlaar.c **** *    PSoC 3 and PSoC 5LP: Priority is from 0 to 7.
 277:.\Generated_Source\PSoC5/SampleInKlaar.c **** *    PSoC 4: Priority is from 0 to 3.
 278:.\Generated_Source\PSoC5/SampleInKlaar.c **** *
 279:.\Generated_Source\PSoC5/SampleInKlaar.c **** *******************************************************************************/
 280:.\Generated_Source\PSoC5/SampleInKlaar.c **** uint8 SampleInKlaar_GetPriority(void)
 281:.\Generated_Source\PSoC5/SampleInKlaar.c **** {
 282:.\Generated_Source\PSoC5/SampleInKlaar.c ****     uint8 priority;
 283:.\Generated_Source\PSoC5/SampleInKlaar.c **** 
 284:.\Generated_Source\PSoC5/SampleInKlaar.c **** 
 285:.\Generated_Source\PSoC5/SampleInKlaar.c ****     priority = *SampleInKlaar_INTC_PRIOR >> 5;
 286:.\Generated_Source\PSoC5/SampleInKlaar.c **** 
 287:.\Generated_Source\PSoC5/SampleInKlaar.c ****     return priority;
 288:.\Generated_Source\PSoC5/SampleInKlaar.c **** }
 289:.\Generated_Source\PSoC5/SampleInKlaar.c **** 
 290:.\Generated_Source\PSoC5/SampleInKlaar.c **** 
 291:.\Generated_Source\PSoC5/SampleInKlaar.c **** /*******************************************************************************
ARM GAS  C:\Users\PIET~1.COU\AppData\Local\Temp\ccC1mu7N.s 			page 7


 292:.\Generated_Source\PSoC5/SampleInKlaar.c **** * Function Name: SampleInKlaar_Enable
 293:.\Generated_Source\PSoC5/SampleInKlaar.c **** ********************************************************************************
 294:.\Generated_Source\PSoC5/SampleInKlaar.c **** *
 295:.\Generated_Source\PSoC5/SampleInKlaar.c **** * Summary:
 296:.\Generated_Source\PSoC5/SampleInKlaar.c **** *   Enables the interrupt to the interrupt controller. Do not call this function
 297:.\Generated_Source\PSoC5/SampleInKlaar.c **** *   unless ISR_Start() has been called or the functionality of the ISR_Start() 
 298:.\Generated_Source\PSoC5/SampleInKlaar.c **** *   function, which sets the vector and the priority, has been called.
 299:.\Generated_Source\PSoC5/SampleInKlaar.c **** *
 300:.\Generated_Source\PSoC5/SampleInKlaar.c **** * Parameters:
 301:.\Generated_Source\PSoC5/SampleInKlaar.c **** *   None
 302:.\Generated_Source\PSoC5/SampleInKlaar.c **** *
 303:.\Generated_Source\PSoC5/SampleInKlaar.c **** * Return:
 304:.\Generated_Source\PSoC5/SampleInKlaar.c **** *   None
 305:.\Generated_Source\PSoC5/SampleInKlaar.c **** *
 306:.\Generated_Source\PSoC5/SampleInKlaar.c **** *******************************************************************************/
 307:.\Generated_Source\PSoC5/SampleInKlaar.c **** void SampleInKlaar_Enable(void)
 308:.\Generated_Source\PSoC5/SampleInKlaar.c **** {
 309:.\Generated_Source\PSoC5/SampleInKlaar.c ****     /* Enable the general interrupt. */
 310:.\Generated_Source\PSoC5/SampleInKlaar.c ****     *SampleInKlaar_INTC_SET_EN = SampleInKlaar__INTC_MASK;
 311:.\Generated_Source\PSoC5/SampleInKlaar.c **** }
 312:.\Generated_Source\PSoC5/SampleInKlaar.c **** 
 313:.\Generated_Source\PSoC5/SampleInKlaar.c **** 
 314:.\Generated_Source\PSoC5/SampleInKlaar.c **** /*******************************************************************************
 315:.\Generated_Source\PSoC5/SampleInKlaar.c **** * Function Name: SampleInKlaar_GetState
 316:.\Generated_Source\PSoC5/SampleInKlaar.c **** ********************************************************************************
 317:.\Generated_Source\PSoC5/SampleInKlaar.c **** *
 318:.\Generated_Source\PSoC5/SampleInKlaar.c **** * Summary:
 319:.\Generated_Source\PSoC5/SampleInKlaar.c **** *   Gets the state (enabled, disabled) of the Interrupt.
 320:.\Generated_Source\PSoC5/SampleInKlaar.c **** *
 321:.\Generated_Source\PSoC5/SampleInKlaar.c **** * Parameters:
 322:.\Generated_Source\PSoC5/SampleInKlaar.c **** *   None
 323:.\Generated_Source\PSoC5/SampleInKlaar.c **** *
 324:.\Generated_Source\PSoC5/SampleInKlaar.c **** * Return:
 325:.\Generated_Source\PSoC5/SampleInKlaar.c **** *   1 if enabled, 0 if disabled.
 326:.\Generated_Source\PSoC5/SampleInKlaar.c **** *
 327:.\Generated_Source\PSoC5/SampleInKlaar.c **** *******************************************************************************/
 328:.\Generated_Source\PSoC5/SampleInKlaar.c **** uint8 SampleInKlaar_GetState(void)
 329:.\Generated_Source\PSoC5/SampleInKlaar.c **** {
 330:.\Generated_Source\PSoC5/SampleInKlaar.c ****     /* Get the state of the general interrupt. */
 331:.\Generated_Source\PSoC5/SampleInKlaar.c ****     return ((*SampleInKlaar_INTC_SET_EN & (uint32)SampleInKlaar__INTC_MASK) != 0u) ? 1u:0u;
 332:.\Generated_Source\PSoC5/SampleInKlaar.c **** }
 333:.\Generated_Source\PSoC5/SampleInKlaar.c **** 
 334:.\Generated_Source\PSoC5/SampleInKlaar.c **** 
 335:.\Generated_Source\PSoC5/SampleInKlaar.c **** /*******************************************************************************
 336:.\Generated_Source\PSoC5/SampleInKlaar.c **** * Function Name: SampleInKlaar_Disable
 337:.\Generated_Source\PSoC5/SampleInKlaar.c **** ********************************************************************************
 338:.\Generated_Source\PSoC5/SampleInKlaar.c **** *
 339:.\Generated_Source\PSoC5/SampleInKlaar.c **** * Summary:
 340:.\Generated_Source\PSoC5/SampleInKlaar.c **** *   Disables the Interrupt in the interrupt controller.
 341:.\Generated_Source\PSoC5/SampleInKlaar.c **** *
 342:.\Generated_Source\PSoC5/SampleInKlaar.c **** * Parameters:
 343:.\Generated_Source\PSoC5/SampleInKlaar.c **** *   None
 344:.\Generated_Source\PSoC5/SampleInKlaar.c **** *
 345:.\Generated_Source\PSoC5/SampleInKlaar.c **** * Return:
 346:.\Generated_Source\PSoC5/SampleInKlaar.c **** *   None
 347:.\Generated_Source\PSoC5/SampleInKlaar.c **** *
 348:.\Generated_Source\PSoC5/SampleInKlaar.c **** *******************************************************************************/
ARM GAS  C:\Users\PIET~1.COU\AppData\Local\Temp\ccC1mu7N.s 			page 8


 349:.\Generated_Source\PSoC5/SampleInKlaar.c **** void SampleInKlaar_Disable(void)
 350:.\Generated_Source\PSoC5/SampleInKlaar.c **** {
 351:.\Generated_Source\PSoC5/SampleInKlaar.c ****     /* Disable the general interrupt. */
 352:.\Generated_Source\PSoC5/SampleInKlaar.c ****     *SampleInKlaar_INTC_CLR_EN = SampleInKlaar__INTC_MASK;
  51              		.loc 1 352 0
  52 0000 074A     		ldr	r2, .L3
  53 0002 0123     		movs	r3, #1
  54 0004 1360     		str	r3, [r2]
  55              	.LVL0:
  56              	.LBE23:
  57              	.LBE22:
  58              	.LBB24:
  59              	.LBB25:
 204:.\Generated_Source\PSoC5/SampleInKlaar.c **** 
  60              		.loc 1 204 0
  61 0006 02F68832 		addw	r2, r2, #2952
  62 000a 1268     		ldr	r2, [r2]
  63              	.LVL1:
 206:.\Generated_Source\PSoC5/SampleInKlaar.c **** }
  64              		.loc 1 206 0
  65 000c 0549     		ldr	r1, .L3+4
  66 000e 1164     		str	r1, [r2, #64]
  67              	.LVL2:
  68              	.LBE25:
  69              	.LBE24:
  70              	.LBB26:
  71              	.LBB27:
 260:.\Generated_Source\PSoC5/SampleInKlaar.c **** }
  72              		.loc 1 260 0
  73 0010 054A     		ldr	r2, .L3+8
  74              	.LVL3:
  75 0012 2021     		movs	r1, #32
  76 0014 1170     		strb	r1, [r2]
  77              	.LBE27:
  78              	.LBE26:
  79              	.LBB28:
  80              	.LBB29:
 310:.\Generated_Source\PSoC5/SampleInKlaar.c **** }
  81              		.loc 1 310 0
  82 0016 A2F54072 		sub	r2, r2, #768
  83 001a 1360     		str	r3, [r2]
  84 001c 7047     		bx	lr
  85              	.L4:
  86 001e 00BF     		.align	2
  87              	.L3:
  88 0020 80E100E0 		.word	-536813184
  89 0024 00000000 		.word	SampleInKlaar_Interrupt
  90 0028 00E400E0 		.word	-536812544
  91              	.LBE29:
  92              	.LBE28:
  93              		.cfi_endproc
  94              	.LFE63:
  95              		.size	SampleInKlaar_Start, .-SampleInKlaar_Start
  96              		.section	.text.SampleInKlaar_StartEx,"ax",%progbits
  97              		.align	1
  98              		.global	SampleInKlaar_StartEx
  99              		.thumb
ARM GAS  C:\Users\PIET~1.COU\AppData\Local\Temp\ccC1mu7N.s 			page 9


 100              		.thumb_func
 101              		.type	SampleInKlaar_StartEx, %function
 102              	SampleInKlaar_StartEx:
 103              	.LFB64:
 105:.\Generated_Source\PSoC5/SampleInKlaar.c ****     /* For all we know the interrupt is active. */
 104              		.loc 1 105 0
 105              		.cfi_startproc
 106              		@ args = 0, pretend = 0, frame = 0
 107              		@ frame_needed = 0, uses_anonymous_args = 0
 108              		@ link register save eliminated.
 109              	.LVL4:
 110              	.LBB30:
 111              	.LBB31:
 112              		.loc 1 352 0
 113 0000 064A     		ldr	r2, .L6
 114 0002 0123     		movs	r3, #1
 115 0004 1360     		str	r3, [r2]
 116              	.LVL5:
 117              	.LBE31:
 118              	.LBE30:
 119              	.LBB32:
 120              	.LBB33:
 204:.\Generated_Source\PSoC5/SampleInKlaar.c **** 
 121              		.loc 1 204 0
 122 0006 02F68832 		addw	r2, r2, #2952
 123 000a 1268     		ldr	r2, [r2]
 124              	.LVL6:
 125              	.LBE33:
 126              	.LBE32:
 127              	.LBB35:
 128              	.LBB36:
 260:.\Generated_Source\PSoC5/SampleInKlaar.c **** }
 129              		.loc 1 260 0
 130 000c 2021     		movs	r1, #32
 131              	.LBE36:
 132              	.LBE35:
 133              	.LBB38:
 134              	.LBB34:
 206:.\Generated_Source\PSoC5/SampleInKlaar.c **** }
 135              		.loc 1 206 0
 136 000e 1064     		str	r0, [r2, #64]
 137              	.LVL7:
 138              	.LBE34:
 139              	.LBE38:
 140              	.LBB39:
 141              	.LBB37:
 260:.\Generated_Source\PSoC5/SampleInKlaar.c **** }
 142              		.loc 1 260 0
 143 0010 034A     		ldr	r2, .L6+4
 144              	.LVL8:
 145 0012 1170     		strb	r1, [r2]
 146              	.LBE37:
 147              	.LBE39:
 148              	.LBB40:
 149              	.LBB41:
 310:.\Generated_Source\PSoC5/SampleInKlaar.c **** }
 150              		.loc 1 310 0
ARM GAS  C:\Users\PIET~1.COU\AppData\Local\Temp\ccC1mu7N.s 			page 10


 151 0014 A2F54072 		sub	r2, r2, #768
 152 0018 1360     		str	r3, [r2]
 153 001a 7047     		bx	lr
 154              	.L7:
 155              		.align	2
 156              	.L6:
 157 001c 80E100E0 		.word	-536813184
 158 0020 00E400E0 		.word	-536812544
 159              	.LBE41:
 160              	.LBE40:
 161              		.cfi_endproc
 162              	.LFE64:
 163              		.size	SampleInKlaar_StartEx, .-SampleInKlaar_StartEx
 164              		.section	.text.SampleInKlaar_Stop,"ax",%progbits
 165              		.align	1
 166              		.global	SampleInKlaar_Stop
 167              		.thumb
 168              		.thumb_func
 169              		.type	SampleInKlaar_Stop, %function
 170              	SampleInKlaar_Stop:
 171              	.LFB65:
 135:.\Generated_Source\PSoC5/SampleInKlaar.c ****     /* Disable this interrupt. */
 172              		.loc 1 135 0
 173              		.cfi_startproc
 174              		@ args = 0, pretend = 0, frame = 0
 175              		@ frame_needed = 0, uses_anonymous_args = 0
 176              		@ link register save eliminated.
 177              	.LBB42:
 178              	.LBB43:
 179              		.loc 1 352 0
 180 0000 044B     		ldr	r3, .L9
 181 0002 0122     		movs	r2, #1
 182 0004 1A60     		str	r2, [r3]
 183              	.LVL9:
 184              	.LBE43:
 185              	.LBE42:
 186              	.LBB44:
 187              	.LBB45:
 204:.\Generated_Source\PSoC5/SampleInKlaar.c **** 
 188              		.loc 1 204 0
 189 0006 03F68833 		addw	r3, r3, #2952
 190 000a 1B68     		ldr	r3, [r3]
 191              	.LVL10:
 206:.\Generated_Source\PSoC5/SampleInKlaar.c **** }
 192              		.loc 1 206 0
 193 000c 024A     		ldr	r2, .L9+4
 194 000e 1A64     		str	r2, [r3, #64]
 195 0010 7047     		bx	lr
 196              	.L10:
 197 0012 00BF     		.align	2
 198              	.L9:
 199 0014 80E100E0 		.word	-536813184
 200 0018 00000000 		.word	IntDefaultHandler
 201              	.LBE45:
 202              	.LBE44:
 203              		.cfi_endproc
 204              	.LFE65:
ARM GAS  C:\Users\PIET~1.COU\AppData\Local\Temp\ccC1mu7N.s 			page 11


 205              		.size	SampleInKlaar_Stop, .-SampleInKlaar_Stop
 206              		.section	.text.SampleInKlaar_SetVector,"ax",%progbits
 207              		.align	1
 208              		.global	SampleInKlaar_SetVector
 209              		.thumb
 210              		.thumb_func
 211              		.type	SampleInKlaar_SetVector, %function
 212              	SampleInKlaar_SetVector:
 213              	.LFB67:
 201:.\Generated_Source\PSoC5/SampleInKlaar.c ****     cyisraddress * ramVectorTable;
 214              		.loc 1 201 0
 215              		.cfi_startproc
 216              		@ args = 0, pretend = 0, frame = 0
 217              		@ frame_needed = 0, uses_anonymous_args = 0
 218              		@ link register save eliminated.
 219              	.LVL11:
 204:.\Generated_Source\PSoC5/SampleInKlaar.c **** 
 220              		.loc 1 204 0
 221 0000 014B     		ldr	r3, .L12
 222 0002 1B68     		ldr	r3, [r3]
 223              	.LVL12:
 206:.\Generated_Source\PSoC5/SampleInKlaar.c **** }
 224              		.loc 1 206 0
 225 0004 1864     		str	r0, [r3, #64]
 226 0006 7047     		bx	lr
 227              	.L13:
 228              		.align	2
 229              	.L12:
 230 0008 08ED00E0 		.word	-536810232
 231              		.cfi_endproc
 232              	.LFE67:
 233              		.size	SampleInKlaar_SetVector, .-SampleInKlaar_SetVector
 234              		.section	.text.SampleInKlaar_GetVector,"ax",%progbits
 235              		.align	1
 236              		.global	SampleInKlaar_GetVector
 237              		.thumb
 238              		.thumb_func
 239              		.type	SampleInKlaar_GetVector, %function
 240              	SampleInKlaar_GetVector:
 241              	.LFB68:
 225:.\Generated_Source\PSoC5/SampleInKlaar.c ****     cyisraddress * ramVectorTable;
 242              		.loc 1 225 0
 243              		.cfi_startproc
 244              		@ args = 0, pretend = 0, frame = 0
 245              		@ frame_needed = 0, uses_anonymous_args = 0
 246              		@ link register save eliminated.
 247              	.LVL13:
 228:.\Generated_Source\PSoC5/SampleInKlaar.c **** 
 248              		.loc 1 228 0
 249 0000 014B     		ldr	r3, .L15
 250              	.LVL14:
 230:.\Generated_Source\PSoC5/SampleInKlaar.c **** }
 251              		.loc 1 230 0
 252 0002 1B68     		ldr	r3, [r3]
 253              	.LVL15:
 231:.\Generated_Source\PSoC5/SampleInKlaar.c **** 
 254              		.loc 1 231 0
ARM GAS  C:\Users\PIET~1.COU\AppData\Local\Temp\ccC1mu7N.s 			page 12


 255 0004 186C     		ldr	r0, [r3, #64]
 256 0006 7047     		bx	lr
 257              	.L16:
 258              		.align	2
 259              	.L15:
 260 0008 08ED00E0 		.word	-536810232
 261              		.cfi_endproc
 262              	.LFE68:
 263              		.size	SampleInKlaar_GetVector, .-SampleInKlaar_GetVector
 264              		.section	.text.SampleInKlaar_SetPriority,"ax",%progbits
 265              		.align	1
 266              		.global	SampleInKlaar_SetPriority
 267              		.thumb
 268              		.thumb_func
 269              		.type	SampleInKlaar_SetPriority, %function
 270              	SampleInKlaar_SetPriority:
 271              	.LFB69:
 259:.\Generated_Source\PSoC5/SampleInKlaar.c ****     *SampleInKlaar_INTC_PRIOR = priority << 5;
 272              		.loc 1 259 0
 273              		.cfi_startproc
 274              		@ args = 0, pretend = 0, frame = 0
 275              		@ frame_needed = 0, uses_anonymous_args = 0
 276              		@ link register save eliminated.
 277              	.LVL16:
 260:.\Generated_Source\PSoC5/SampleInKlaar.c **** }
 278              		.loc 1 260 0
 279 0000 4001     		lsls	r0, r0, #5
 280              	.LVL17:
 281 0002 024B     		ldr	r3, .L18
 282 0004 C0B2     		uxtb	r0, r0
 283 0006 1870     		strb	r0, [r3]
 284 0008 7047     		bx	lr
 285              	.L19:
 286 000a 00BF     		.align	2
 287              	.L18:
 288 000c 00E400E0 		.word	-536812544
 289              		.cfi_endproc
 290              	.LFE69:
 291              		.size	SampleInKlaar_SetPriority, .-SampleInKlaar_SetPriority
 292              		.section	.text.SampleInKlaar_GetPriority,"ax",%progbits
 293              		.align	1
 294              		.global	SampleInKlaar_GetPriority
 295              		.thumb
 296              		.thumb_func
 297              		.type	SampleInKlaar_GetPriority, %function
 298              	SampleInKlaar_GetPriority:
 299              	.LFB70:
 281:.\Generated_Source\PSoC5/SampleInKlaar.c ****     uint8 priority;
 300              		.loc 1 281 0
 301              		.cfi_startproc
 302              		@ args = 0, pretend = 0, frame = 0
 303              		@ frame_needed = 0, uses_anonymous_args = 0
 304              		@ link register save eliminated.
 285:.\Generated_Source\PSoC5/SampleInKlaar.c **** 
 305              		.loc 1 285 0
 306 0000 014B     		ldr	r3, .L21
 307 0002 1878     		ldrb	r0, [r3]	@ zero_extendqisi2
ARM GAS  C:\Users\PIET~1.COU\AppData\Local\Temp\ccC1mu7N.s 			page 13


 308              	.LVL18:
 288:.\Generated_Source\PSoC5/SampleInKlaar.c **** 
 309              		.loc 1 288 0
 310 0004 4009     		lsrs	r0, r0, #5
 311              	.LVL19:
 312 0006 7047     		bx	lr
 313              	.L22:
 314              		.align	2
 315              	.L21:
 316 0008 00E400E0 		.word	-536812544
 317              		.cfi_endproc
 318              	.LFE70:
 319              		.size	SampleInKlaar_GetPriority, .-SampleInKlaar_GetPriority
 320              		.section	.text.SampleInKlaar_Enable,"ax",%progbits
 321              		.align	1
 322              		.global	SampleInKlaar_Enable
 323              		.thumb
 324              		.thumb_func
 325              		.type	SampleInKlaar_Enable, %function
 326              	SampleInKlaar_Enable:
 327              	.LFB71:
 308:.\Generated_Source\PSoC5/SampleInKlaar.c ****     /* Enable the general interrupt. */
 328              		.loc 1 308 0
 329              		.cfi_startproc
 330              		@ args = 0, pretend = 0, frame = 0
 331              		@ frame_needed = 0, uses_anonymous_args = 0
 332              		@ link register save eliminated.
 310:.\Generated_Source\PSoC5/SampleInKlaar.c **** }
 333              		.loc 1 310 0
 334 0000 014B     		ldr	r3, .L24
 335 0002 0122     		movs	r2, #1
 336 0004 1A60     		str	r2, [r3]
 337 0006 7047     		bx	lr
 338              	.L25:
 339              		.align	2
 340              	.L24:
 341 0008 00E100E0 		.word	-536813312
 342              		.cfi_endproc
 343              	.LFE71:
 344              		.size	SampleInKlaar_Enable, .-SampleInKlaar_Enable
 345              		.section	.text.SampleInKlaar_GetState,"ax",%progbits
 346              		.align	1
 347              		.global	SampleInKlaar_GetState
 348              		.thumb
 349              		.thumb_func
 350              		.type	SampleInKlaar_GetState, %function
 351              	SampleInKlaar_GetState:
 352              	.LFB72:
 329:.\Generated_Source\PSoC5/SampleInKlaar.c ****     /* Get the state of the general interrupt. */
 353              		.loc 1 329 0
 354              		.cfi_startproc
 355              		@ args = 0, pretend = 0, frame = 0
 356              		@ frame_needed = 0, uses_anonymous_args = 0
 357              		@ link register save eliminated.
 331:.\Generated_Source\PSoC5/SampleInKlaar.c **** }
 358              		.loc 1 331 0
 359 0000 024B     		ldr	r3, .L27
ARM GAS  C:\Users\PIET~1.COU\AppData\Local\Temp\ccC1mu7N.s 			page 14


 360 0002 1868     		ldr	r0, [r3]
 332:.\Generated_Source\PSoC5/SampleInKlaar.c **** 
 361              		.loc 1 332 0
 362 0004 00F00100 		and	r0, r0, #1
 363 0008 7047     		bx	lr
 364              	.L28:
 365 000a 00BF     		.align	2
 366              	.L27:
 367 000c 00E100E0 		.word	-536813312
 368              		.cfi_endproc
 369              	.LFE72:
 370              		.size	SampleInKlaar_GetState, .-SampleInKlaar_GetState
 371              		.section	.text.SampleInKlaar_Disable,"ax",%progbits
 372              		.align	1
 373              		.global	SampleInKlaar_Disable
 374              		.thumb
 375              		.thumb_func
 376              		.type	SampleInKlaar_Disable, %function
 377              	SampleInKlaar_Disable:
 378              	.LFB73:
 350:.\Generated_Source\PSoC5/SampleInKlaar.c ****     /* Disable the general interrupt. */
 379              		.loc 1 350 0
 380              		.cfi_startproc
 381              		@ args = 0, pretend = 0, frame = 0
 382              		@ frame_needed = 0, uses_anonymous_args = 0
 383              		@ link register save eliminated.
 384              		.loc 1 352 0
 385 0000 014B     		ldr	r3, .L30
 386 0002 0122     		movs	r2, #1
 387 0004 1A60     		str	r2, [r3]
 388 0006 7047     		bx	lr
 389              	.L31:
 390              		.align	2
 391              	.L30:
 392 0008 80E100E0 		.word	-536813184
 393              		.cfi_endproc
 394              	.LFE73:
 395              		.size	SampleInKlaar_Disable, .-SampleInKlaar_Disable
 396              		.section	.text.SampleInKlaar_SetPending,"ax",%progbits
 397              		.align	1
 398              		.global	SampleInKlaar_SetPending
 399              		.thumb
 400              		.thumb_func
 401              		.type	SampleInKlaar_SetPending, %function
 402              	SampleInKlaar_SetPending:
 403              	.LFB74:
 353:.\Generated_Source\PSoC5/SampleInKlaar.c **** }
 354:.\Generated_Source\PSoC5/SampleInKlaar.c **** 
 355:.\Generated_Source\PSoC5/SampleInKlaar.c **** 
 356:.\Generated_Source\PSoC5/SampleInKlaar.c **** /*******************************************************************************
 357:.\Generated_Source\PSoC5/SampleInKlaar.c **** * Function Name: SampleInKlaar_SetPending
 358:.\Generated_Source\PSoC5/SampleInKlaar.c **** ********************************************************************************
 359:.\Generated_Source\PSoC5/SampleInKlaar.c **** *
 360:.\Generated_Source\PSoC5/SampleInKlaar.c **** * Summary:
 361:.\Generated_Source\PSoC5/SampleInKlaar.c **** *   Causes the Interrupt to enter the pending state, a software method of
 362:.\Generated_Source\PSoC5/SampleInKlaar.c **** *   generating the interrupt.
 363:.\Generated_Source\PSoC5/SampleInKlaar.c **** *
ARM GAS  C:\Users\PIET~1.COU\AppData\Local\Temp\ccC1mu7N.s 			page 15


 364:.\Generated_Source\PSoC5/SampleInKlaar.c **** * Parameters:
 365:.\Generated_Source\PSoC5/SampleInKlaar.c **** *   None
 366:.\Generated_Source\PSoC5/SampleInKlaar.c **** *
 367:.\Generated_Source\PSoC5/SampleInKlaar.c **** * Return:
 368:.\Generated_Source\PSoC5/SampleInKlaar.c **** *   None
 369:.\Generated_Source\PSoC5/SampleInKlaar.c **** *
 370:.\Generated_Source\PSoC5/SampleInKlaar.c **** * Side Effects:
 371:.\Generated_Source\PSoC5/SampleInKlaar.c **** *   If interrupts are enabled and the interrupt is set up properly, the ISR is
 372:.\Generated_Source\PSoC5/SampleInKlaar.c **** *   entered (depending on the priority of this interrupt and other pending 
 373:.\Generated_Source\PSoC5/SampleInKlaar.c **** *   interrupts).
 374:.\Generated_Source\PSoC5/SampleInKlaar.c **** *
 375:.\Generated_Source\PSoC5/SampleInKlaar.c **** *******************************************************************************/
 376:.\Generated_Source\PSoC5/SampleInKlaar.c **** void SampleInKlaar_SetPending(void)
 377:.\Generated_Source\PSoC5/SampleInKlaar.c **** {
 404              		.loc 1 377 0
 405              		.cfi_startproc
 406              		@ args = 0, pretend = 0, frame = 0
 407              		@ frame_needed = 0, uses_anonymous_args = 0
 408              		@ link register save eliminated.
 378:.\Generated_Source\PSoC5/SampleInKlaar.c ****     *SampleInKlaar_INTC_SET_PD = SampleInKlaar__INTC_MASK;
 409              		.loc 1 378 0
 410 0000 014B     		ldr	r3, .L33
 411 0002 0122     		movs	r2, #1
 412 0004 1A60     		str	r2, [r3]
 413 0006 7047     		bx	lr
 414              	.L34:
 415              		.align	2
 416              	.L33:
 417 0008 00E200E0 		.word	-536813056
 418              		.cfi_endproc
 419              	.LFE74:
 420              		.size	SampleInKlaar_SetPending, .-SampleInKlaar_SetPending
 421              		.section	.text.SampleInKlaar_ClearPending,"ax",%progbits
 422              		.align	1
 423              		.global	SampleInKlaar_ClearPending
 424              		.thumb
 425              		.thumb_func
 426              		.type	SampleInKlaar_ClearPending, %function
 427              	SampleInKlaar_ClearPending:
 428              	.LFB75:
 379:.\Generated_Source\PSoC5/SampleInKlaar.c **** }
 380:.\Generated_Source\PSoC5/SampleInKlaar.c **** 
 381:.\Generated_Source\PSoC5/SampleInKlaar.c **** 
 382:.\Generated_Source\PSoC5/SampleInKlaar.c **** /*******************************************************************************
 383:.\Generated_Source\PSoC5/SampleInKlaar.c **** * Function Name: SampleInKlaar_ClearPending
 384:.\Generated_Source\PSoC5/SampleInKlaar.c **** ********************************************************************************
 385:.\Generated_Source\PSoC5/SampleInKlaar.c **** *
 386:.\Generated_Source\PSoC5/SampleInKlaar.c **** * Summary:
 387:.\Generated_Source\PSoC5/SampleInKlaar.c **** *   Clears a pending interrupt in the interrupt controller.
 388:.\Generated_Source\PSoC5/SampleInKlaar.c **** *
 389:.\Generated_Source\PSoC5/SampleInKlaar.c **** *   Note Some interrupt sources are clear-on-read and require the block 
 390:.\Generated_Source\PSoC5/SampleInKlaar.c **** *   interrupt/status register to be read/cleared with the appropriate block API 
 391:.\Generated_Source\PSoC5/SampleInKlaar.c **** *   (GPIO, UART, and so on). Otherwise the ISR will continue to remain in 
 392:.\Generated_Source\PSoC5/SampleInKlaar.c **** *   pending state even though the interrupt itself is cleared using this API.
 393:.\Generated_Source\PSoC5/SampleInKlaar.c **** *
 394:.\Generated_Source\PSoC5/SampleInKlaar.c **** * Parameters:
 395:.\Generated_Source\PSoC5/SampleInKlaar.c **** *   None
ARM GAS  C:\Users\PIET~1.COU\AppData\Local\Temp\ccC1mu7N.s 			page 16


 396:.\Generated_Source\PSoC5/SampleInKlaar.c **** *
 397:.\Generated_Source\PSoC5/SampleInKlaar.c **** * Return:
 398:.\Generated_Source\PSoC5/SampleInKlaar.c **** *   None
 399:.\Generated_Source\PSoC5/SampleInKlaar.c **** *
 400:.\Generated_Source\PSoC5/SampleInKlaar.c **** *******************************************************************************/
 401:.\Generated_Source\PSoC5/SampleInKlaar.c **** void SampleInKlaar_ClearPending(void)
 402:.\Generated_Source\PSoC5/SampleInKlaar.c **** {
 429              		.loc 1 402 0
 430              		.cfi_startproc
 431              		@ args = 0, pretend = 0, frame = 0
 432              		@ frame_needed = 0, uses_anonymous_args = 0
 433              		@ link register save eliminated.
 403:.\Generated_Source\PSoC5/SampleInKlaar.c ****     *SampleInKlaar_INTC_CLR_PD = SampleInKlaar__INTC_MASK;
 434              		.loc 1 403 0
 435 0000 014B     		ldr	r3, .L36
 436 0002 0122     		movs	r2, #1
 437 0004 1A60     		str	r2, [r3]
 438 0006 7047     		bx	lr
 439              	.L37:
 440              		.align	2
 441              	.L36:
 442 0008 80E200E0 		.word	-536812928
 443              		.cfi_endproc
 444              	.LFE75:
 445              		.size	SampleInKlaar_ClearPending, .-SampleInKlaar_ClearPending
 446              		.text
 447              	.Letext0:
 448              		.file 2 "c:\\program files (x86)\\cypress\\psoc creator\\3.3\\psoc creator\\import\\gnu\\arm\\4.9.
 449              		.file 3 "c:\\program files (x86)\\cypress\\psoc creator\\3.3\\psoc creator\\import\\gnu\\arm\\4.9.
 450              		.file 4 "Generated_Source\\PSoC5/cytypes.h"
 451              		.file 5 "Generated_Source\\PSoC5/core_cm3.h"