ARM GAS  C:\Users\Jona\AppData\Local\Temp\ccCp6Uxt.s 			page 1


   1              		.syntax unified
   2              		.cpu cortex-m3
   3              		.fpu softvfp
   4              		.eabi_attribute 20, 1
   5              		.eabi_attribute 21, 1
   6              		.eabi_attribute 23, 3
   7              		.eabi_attribute 24, 1
   8              		.eabi_attribute 25, 1
   9              		.eabi_attribute 26, 1
  10              		.eabi_attribute 30, 6
  11              		.eabi_attribute 34, 1
  12              		.eabi_attribute 18, 4
  13              		.thumb
  14              		.syntax unified
  15              		.file	"main.c"
  16              		.text
  17              	.Ltext0:
  18              		.cfi_sections	.debug_frame
  19              		.comm	rxBuff,4,4
  20              		.comm	txBuff,4,4
  21              		.comm	sampleIn,4,4
  22              		.comm	sampleUit,4,4
  23              		.comm	HPvolume,1,1
  24              		.comm	displayVolume,1,1
  25              		.comm	LineVolume,1,1
  26              		.global	ClipIndicator
  27              		.data
  28              		.type	ClipIndicator, %object
  29              		.size	ClipIndicator, 1
  30              	ClipIndicator:
  31 0000 20       		.byte	32
  32              		.comm	maxL,4,4
  33              		.comm	maxR,4,4
  34              		.comm	cyclusTel,4,4
  35              		.comm	S1,1,1
  36              		.section	.text.berekenMetSamples,"ax",%progbits
  37              		.align	2
  38              		.global	berekenMetSamples
  39              		.thumb
  40              		.thumb_func
  41              		.type	berekenMetSamples, %function
  42              	berekenMetSamples:
  43              	.LFB63:
  44              		.file 1 "main.c"
   1:main.c        **** /*******************************************************************************
   2:main.c        **** *
   3:main.c        **** * Naam student 1:
   4:main.c        **** * Naam student 2:
   5:main.c        **** *
   6:main.c        **** * Datum: 
   7:main.c        **** *
   8:main.c        **** * File Naam: main.c
   9:main.c        **** * Projectnaam: IIR_filterproject
  10:main.c        **** * Versie: 2.0 10/2/2016
  11:main.c        **** * Author: Piet Coussens 
  12:main.c        **** *
  13:main.c        **** * Beschrijving:
ARM GAS  C:\Users\Jona\AppData\Local\Temp\ccCp6Uxt.s 			page 2


  14:main.c        **** *  Demo programma voor het samplen van audio via de codec
  15:main.c        **** *
  16:main.c        **** * Gebruikte instellingen I2S:
  17:main.c        **** *   Direction:           Tx and Rx
  18:main.c        **** *   WordSelect:          32 bits
  19:main.c        **** *   DataBits:            16 bits
  20:main.c        **** *   DataInterleaving:    Interleaved
  21:main.c        **** *   DMA Request:         Tx and Rx
  22:main.c        **** *   Rx clip detection:   Enabled op 120
  23:main.c        **** *
  24:main.c        **** * Gebruikte instellingen codec
  25:main.c        **** *   Via P1 is het uitgangsniveau van de hoofdtelefoon in te stellen (tussen 0 en 79 dB)
  26:main.c        **** *   Via P2 is de gevoeligheid van de line-ingang in te stellen (tussen 0 en 31 dB)
  27:main.c        **** *   CLIP is een oversturingsindicator die oplicht als het ingangsniveau te hoog is.
  28:main.c        **** *     Deze LED gaat aan als de sample-waarde boven de clip-treshold uitkomt (MSB=120)
  29:main.c        **** *     Regel P2 zo dat deze LED uit blijft. 
  30:main.c        **** *   CLIP kan ook ingesteld worden om op te lichten als de sample-interrupt actief is. 
  31:main.c        **** *     Daarmee kan de lengte van de sample-interrupt gemeten worden
  32:main.c        **** *     Zet daartoe de define CLIPnTIME in de file dma.h op 0 i.p.v. op 1
  33:main.c        **** *   L0 licht op als filter A niet op tijd berekend kan worden
  34:main.c        **** *   L1 licht op als filter B niet op tijd berekend kan worden
  35:main.c        **** *
  36:main.c        **** *   Codec-instellingen: inputLevel: 22, HPlevel: 75, ingangsignaal: 2Vpp
  37:main.c        **** *
  38:main.c        **** ********************************************************************************/
  39:main.c        **** 
  40:main.c        **** #include <project.h>
  41:main.c        **** #include <dspSystem.h>
  42:main.c        **** #include <dma.h>
  43:main.c        **** #include <audioCodec.h>
  44:main.c        **** #include <stdlib.h>
  45:main.c        **** 
  46:main.c        **** // zet filters aan (1) of uit (0) in linker of rechter kanaal
  47:main.c        **** #define USE_FILTER_LINKS 1
  48:main.c        **** #define USE_FILTER_RECHTS 1
  49:main.c        **** // LCD-tekst
  50:main.c        **** #define TITEL1 "bandsperfilter "
  51:main.c        **** #define TITEL2 "2e orde 100Hz & 300Hz"
  52:main.c        **** 
  53:main.c        **** 
  54:main.c        **** // Globale variabelen
  55:main.c        **** uint8 HPvolume, displayVolume, LineVolume, ClipIndicator = ' ';
  56:main.c        **** int maxL, maxR;
  57:main.c        **** uint32 cyclusTel;
  58:main.c        **** uint8 S1;
  59:main.c        **** 
  60:main.c        **** void berekenMetSamples(){
  45              		.loc 1 60 0
  46              		.cfi_startproc
  47              		@ args = 0, pretend = 0, frame = 0
  48              		@ frame_needed = 1, uses_anonymous_args = 0
  49 0000 80B5     		push	{r7, lr}
  50              		.cfi_def_cfa_offset 8
  51              		.cfi_offset 7, -8
  52              		.cfi_offset 14, -4
  53 0002 00AF     		add	r7, sp, #0
  54              		.cfi_def_cfa_register 7
ARM GAS  C:\Users\Jona\AppData\Local\Temp\ccCp6Uxt.s 			page 3


  61:main.c        ****     // zet hier je code voor de berekeningen met de samples
  62:main.c        ****     // check of filterblok klaar is, indien niet, zet L0
  63:main.c        **** 
  64:main.c        ****     S1 = S0_Read();
  55              		.loc 1 64 0
  56 0004 FFF7FEFF 		bl	S0_Read
  57 0008 0346     		mov	r3, r0
  58 000a 1A46     		mov	r2, r3
  59 000c 454B     		ldr	r3, .L10
  60 000e 1A70     		strb	r2, [r3]
  65:main.c        **** //    if (S1 == 1)
  66:main.c        **** //    {
  67:main.c        **** //        LCD_WriteControl(LCD_CLEAR_DISPLAY);
  68:main.c        **** //        LCD_Position(0u, 0u);
  69:main.c        **** //        LCD_PrintString("TEST");
  70:main.c        **** //    }
  71:main.c        ****     
  72:main.c        **** #if (USE_FILTER_LINKS == 1)
  73:main.c        ****     if (S1 == 0)
  61              		.loc 1 73 0
  62 0010 444B     		ldr	r3, .L10
  63 0012 1B78     		ldrb	r3, [r3]	@ zero_extendqisi2
  64 0014 002B     		cmp	r3, #0
  65 0016 05D1     		bne	.L2
  74:main.c        ****     {
  75:main.c        ****          sampleUit[LINKS] = sampleIn[LINKS];
  66              		.loc 1 75 0
  67 0018 434B     		ldr	r3, .L10+4
  68 001a B3F90020 		ldrsh	r2, [r3]
  69 001e 434B     		ldr	r3, .L10+8
  70 0020 1A80     		strh	r2, [r3]	@ movhi
  71 0022 2BE0     		b	.L3
  72              	.L2:
  76:main.c        ****     } else {
  77:main.c        ****        
  78:main.c        ****     if (Filter_IsInterruptChannelA() == 0) {
  73              		.loc 1 78 0
  74 0024 424B     		ldr	r3, .L10+12
  75 0026 1B78     		ldrb	r3, [r3]
  76 0028 DBB2     		uxtb	r3, r3
  77 002a 03F00803 		and	r3, r3, #8
  78 002e 002B     		cmp	r3, #0
  79 0030 0CD1     		bne	.L4
  79:main.c        ****         sampleUit[LINKS] = 0;
  80              		.loc 1 79 0
  81 0032 3E4B     		ldr	r3, .L10+8
  82 0034 0022     		movs	r2, #0
  83 0036 1A80     		strh	r2, [r3]	@ movhi
  80:main.c        ****         LEDs_Write(LEDs_Read() | 0x01);
  84              		.loc 1 80 0
  85 0038 FFF7FEFF 		bl	LEDs_Read
  86 003c 0346     		mov	r3, r0
  87 003e 43F00103 		orr	r3, r3, #1
  88 0042 DBB2     		uxtb	r3, r3
  89 0044 1846     		mov	r0, r3
  90 0046 FFF7FEFF 		bl	LEDs_Write
  91 004a 0FE0     		b	.L5
ARM GAS  C:\Users\Jona\AppData\Local\Temp\ccCp6Uxt.s 			page 4


  92              	.L4:
  81:main.c        ****     }
  82:main.c        ****     else {
  83:main.c        ****         sampleUit[LINKS] = Filter_Read16(Filter_CHANNEL_A);
  93              		.loc 1 83 0
  94 004c 0020     		movs	r0, #0
  95 004e FFF7FEFF 		bl	Filter_Read16
  96 0052 0346     		mov	r3, r0
  97 0054 1AB2     		sxth	r2, r3
  98 0056 354B     		ldr	r3, .L10+8
  99 0058 1A80     		strh	r2, [r3]	@ movhi
  84:main.c        ****         LEDs_Write(LEDs_Read() & 0xE);
 100              		.loc 1 84 0
 101 005a FFF7FEFF 		bl	LEDs_Read
 102 005e 0346     		mov	r3, r0
 103 0060 03F00E03 		and	r3, r3, #14
 104 0064 DBB2     		uxtb	r3, r3
 105 0066 1846     		mov	r0, r3
 106 0068 FFF7FEFF 		bl	LEDs_Write
 107              	.L5:
  85:main.c        ****     }
  86:main.c        ****     Filter_Write16(Filter_CHANNEL_A, sampleIn[LINKS]);
 108              		.loc 1 86 0
 109 006c 2E4B     		ldr	r3, .L10+4
 110 006e B3F90030 		ldrsh	r3, [r3]
 111 0072 9BB2     		uxth	r3, r3
 112 0074 1946     		mov	r1, r3
 113 0076 0020     		movs	r0, #0
 114 0078 FFF7FEFF 		bl	Filter_Write16
 115              	.L3:
  87:main.c        ****     }
  88:main.c        **** #else
  89:main.c        ****     sampleUit[LINKS] = sampleIn[LINKS];
  90:main.c        **** #endif
  91:main.c        **** #if USE_FILTER_RECHTS == 1
  92:main.c        ****     if (S1 == 0)
 116              		.loc 1 92 0
 117 007c 294B     		ldr	r3, .L10
 118 007e 1B78     		ldrb	r3, [r3]	@ zero_extendqisi2
 119 0080 002B     		cmp	r3, #0
 120 0082 05D1     		bne	.L6
  93:main.c        ****     {
  94:main.c        ****          sampleUit[RECHTS] = sampleIn[RECHTS];
 121              		.loc 1 94 0
 122 0084 284B     		ldr	r3, .L10+4
 123 0086 B3F90220 		ldrsh	r2, [r3, #2]
 124 008a 284B     		ldr	r3, .L10+8
 125 008c 5A80     		strh	r2, [r3, #2]	@ movhi
 126 008e 2BE0     		b	.L7
 127              	.L6:
  95:main.c        ****     } else {
  96:main.c        ****     if (Filter_IsInterruptChannelB() == 0) {
 128              		.loc 1 96 0
 129 0090 274B     		ldr	r3, .L10+12
 130 0092 1B78     		ldrb	r3, [r3]
 131 0094 DBB2     		uxtb	r3, r3
 132 0096 03F01003 		and	r3, r3, #16
ARM GAS  C:\Users\Jona\AppData\Local\Temp\ccCp6Uxt.s 			page 5


 133 009a 002B     		cmp	r3, #0
 134 009c 0CD1     		bne	.L8
  97:main.c        ****         sampleUit[RECHTS] = 0;
 135              		.loc 1 97 0
 136 009e 234B     		ldr	r3, .L10+8
 137 00a0 0022     		movs	r2, #0
 138 00a2 5A80     		strh	r2, [r3, #2]	@ movhi
  98:main.c        ****         LEDs_Write(LEDs_Read() | 0x02);
 139              		.loc 1 98 0
 140 00a4 FFF7FEFF 		bl	LEDs_Read
 141 00a8 0346     		mov	r3, r0
 142 00aa 43F00203 		orr	r3, r3, #2
 143 00ae DBB2     		uxtb	r3, r3
 144 00b0 1846     		mov	r0, r3
 145 00b2 FFF7FEFF 		bl	LEDs_Write
 146 00b6 0FE0     		b	.L9
 147              	.L8:
  99:main.c        ****     }
 100:main.c        ****     else {
 101:main.c        ****         sampleUit[RECHTS] = Filter_Read16(Filter_CHANNEL_B);
 148              		.loc 1 101 0
 149 00b8 0120     		movs	r0, #1
 150 00ba FFF7FEFF 		bl	Filter_Read16
 151 00be 0346     		mov	r3, r0
 152 00c0 1AB2     		sxth	r2, r3
 153 00c2 1A4B     		ldr	r3, .L10+8
 154 00c4 5A80     		strh	r2, [r3, #2]	@ movhi
 102:main.c        ****         LEDs_Write(LEDs_Read() & 0xD);
 155              		.loc 1 102 0
 156 00c6 FFF7FEFF 		bl	LEDs_Read
 157 00ca 0346     		mov	r3, r0
 158 00cc 03F00D03 		and	r3, r3, #13
 159 00d0 DBB2     		uxtb	r3, r3
 160 00d2 1846     		mov	r0, r3
 161 00d4 FFF7FEFF 		bl	LEDs_Write
 162              	.L9:
 103:main.c        ****     }
 104:main.c        ****     Filter_Write16(Filter_CHANNEL_B, sampleIn[RECHTS]);
 163              		.loc 1 104 0
 164 00d8 134B     		ldr	r3, .L10+4
 165 00da B3F90230 		ldrsh	r3, [r3, #2]
 166 00de 9BB2     		uxth	r3, r3
 167 00e0 1946     		mov	r1, r3
 168 00e2 0120     		movs	r0, #1
 169 00e4 FFF7FEFF 		bl	Filter_Write16
 170              	.L7:
 105:main.c        ****     }
 106:main.c        **** #else
 107:main.c        ****     sampleUit[RECHTS] = sampleIn[RECHTS];
 108:main.c        **** #endif
 109:main.c        ****     
 110:main.c        ****     // Dit is niet strikt nodig, maar dient om het maximum signaalniveau op het LCD te tonen
 111:main.c        ****     // Deze berekening kost 1,5 us
 112:main.c        ****     maxL = MAX(ABS(sampleIn[LINKS]) , maxL);
 171              		.loc 1 112 0
 172 00e8 0F4B     		ldr	r3, .L10+4
 173 00ea B3F90030 		ldrsh	r3, [r3]
ARM GAS  C:\Users\Jona\AppData\Local\Temp\ccCp6Uxt.s 			page 6


 174 00ee 83EAE372 		eor	r2, r3, r3, asr #31
 175 00f2 A2EBE372 		sub	r2, r2, r3, asr #31
 176 00f6 0F4B     		ldr	r3, .L10+16
 177 00f8 1B68     		ldr	r3, [r3]
 178 00fa 9342     		cmp	r3, r2
 179 00fc B8BF     		it	lt
 180 00fe 1346     		movlt	r3, r2
 181 0100 0C4A     		ldr	r2, .L10+16
 182 0102 1360     		str	r3, [r2]
 113:main.c        ****     maxR = MAX(ABS(sampleIn[RECHTS]), maxR);
 183              		.loc 1 113 0
 184 0104 084B     		ldr	r3, .L10+4
 185 0106 B3F90230 		ldrsh	r3, [r3, #2]
 186 010a 83EAE372 		eor	r2, r3, r3, asr #31
 187 010e A2EBE372 		sub	r2, r2, r3, asr #31
 188 0112 094B     		ldr	r3, .L10+20
 189 0114 1B68     		ldr	r3, [r3]
 190 0116 9342     		cmp	r3, r2
 191 0118 B8BF     		it	lt
 192 011a 1346     		movlt	r3, r2
 193 011c 064A     		ldr	r2, .L10+20
 194 011e 1360     		str	r3, [r2]
 114:main.c        **** }
 195              		.loc 1 114 0
 196 0120 00BF     		nop
 197 0122 80BD     		pop	{r7, pc}
 198              	.L11:
 199              		.align	2
 200              	.L10:
 201 0124 00000000 		.word	S1
 202 0128 00000000 		.word	sampleIn
 203 012c 00000000 		.word	sampleUit
 204 0130 84C70040 		.word	1073792900
 205 0134 00000000 		.word	maxL
 206 0138 00000000 		.word	maxR
 207              		.cfi_endproc
 208              	.LFE63:
 209              		.size	berekenMetSamples, .-berekenMetSamples
 210              		.section	.rodata
 211              		.align	2
 212              	.LC0:
 213 0000 62616E64 		.ascii	"bandsperfilter \000"
 213      73706572 
 213      66696C74 
 213      65722000 
 214              		.align	2
 215              	.LC1:
 216 0010 3265206F 		.ascii	"2e orde 100Hz & 300Hz\000"
 216      72646520 
 216      31303048 
 216      7A202620 
 216      33303048 
 217 0026 0000     		.align	2
 218              	.LC2:
 219 0028 50313A20 		.ascii	"P1: Vol uitgang\000"
 219      566F6C20 
 219      75697467 
ARM GAS  C:\Users\Jona\AppData\Local\Temp\ccCp6Uxt.s 			page 7


 219      616E6700 
 220              		.align	2
 221              	.LC3:
 222 0038 50323A20 		.ascii	"P2: Level ingang\000"
 222      4C657665 
 222      6C20696E 
 222      67616E67 
 222      00
 223 0049 000000   		.align	2
 224              	.LC4:
 225 004c 4C65763A 		.ascii	"Lev:   HP:  \000"
 225      20202048 
 225      503A2020 
 225      00
 226 0059 000000   		.align	2
 227              	.LC5:
 228 005c 4C696E65 		.ascii	"Line:\000"
 228      3A00
 229              		.section	.text.main,"ax",%progbits
 230              		.align	2
 231              		.global	main
 232              		.thumb
 233              		.thumb_func
 234              		.type	main, %function
 235              	main:
 236              	.LFB64:
 115:main.c        **** 
 116:main.c        **** int main()
 117:main.c        **** {   
 237              		.loc 1 117 0
 238              		.cfi_startproc
 239              		@ args = 0, pretend = 0, frame = 0
 240              		@ frame_needed = 1, uses_anonymous_args = 0
 241 0000 80B5     		push	{r7, lr}
 242              		.cfi_def_cfa_offset 8
 243              		.cfi_offset 7, -8
 244              		.cfi_offset 14, -4
 245 0002 00AF     		add	r7, sp, #0
 246              		.cfi_def_cfa_register 7
 118:main.c        ****     // Setup-gedeelte van het hoofdprogramma
 119:main.c        ****     LEDs_Write(LEDs_Read() | 0x03);
 247              		.loc 1 119 0
 248 0004 FFF7FEFF 		bl	LEDs_Read
 249 0008 0346     		mov	r3, r0
 250 000a 43F00303 		orr	r3, r3, #3
 251 000e DBB2     		uxtb	r3, r3
 252 0010 1846     		mov	r0, r3
 253 0012 FFF7FEFF 		bl	LEDs_Write
 120:main.c        ****     CyGlobalIntEnable;              // Enable global interrupts
 254              		.loc 1 120 0
 255              		.syntax unified
 256              	@ 120 "main.c" 1
 257 0016 62B6     		CPSIE   i
 258              	@ 0 "" 2
 121:main.c        ****     I2C_Codec_control_Start();      // I2C start
 259              		.loc 1 121 0
 260              		.thumb
ARM GAS  C:\Users\Jona\AppData\Local\Temp\ccCp6Uxt.s 			page 8


 261              		.syntax unified
 262 0018 FFF7FEFF 		bl	I2C_Codec_control_Start
 122:main.c        ****     LCD_Start();
 263              		.loc 1 122 0
 264 001c FFF7FEFF 		bl	LCD_Start
 123:main.c        ****     LCD_WriteControl(LCD_CLEAR_DISPLAY);
 265              		.loc 1 123 0
 266 0020 0120     		movs	r0, #1
 267 0022 FFF7FEFF 		bl	LCD_WriteControl
 124:main.c        ****     LCD_Position(0u, 0u);
 268              		.loc 1 124 0
 269 0026 0021     		movs	r1, #0
 270 0028 0020     		movs	r0, #0
 271 002a FFF7FEFF 		bl	LCD_Position
 125:main.c        ****     LCD_PrintString(TITEL1);
 272              		.loc 1 125 0
 273 002e 9F48     		ldr	r0, .L26
 274 0030 FFF7FEFF 		bl	LCD_PrintString
 126:main.c        ****     LCD_Position(1u, 0u);
 275              		.loc 1 126 0
 276 0034 0021     		movs	r1, #0
 277 0036 0120     		movs	r0, #1
 278 0038 FFF7FEFF 		bl	LCD_Position
 127:main.c        ****     LCD_PrintString(TITEL2);
 279              		.loc 1 127 0
 280 003c 9C48     		ldr	r0, .L26+4
 281 003e FFF7FEFF 		bl	LCD_PrintString
 128:main.c        ****     CyDelay(1000);
 282              		.loc 1 128 0
 283 0042 4FF47A70 		mov	r0, #1000
 284 0046 FFF7FEFF 		bl	CyDelay
 129:main.c        ****     LCD_WriteControl(LCD_CLEAR_DISPLAY);
 285              		.loc 1 129 0
 286 004a 0120     		movs	r0, #1
 287 004c FFF7FEFF 		bl	LCD_WriteControl
 130:main.c        ****     LCD_Position(0u, 0u);
 288              		.loc 1 130 0
 289 0050 0021     		movs	r1, #0
 290 0052 0020     		movs	r0, #0
 291 0054 FFF7FEFF 		bl	LCD_Position
 131:main.c        ****     LCD_PrintString("P1: Vol uitgang");
 292              		.loc 1 131 0
 293 0058 9648     		ldr	r0, .L26+8
 294 005a FFF7FEFF 		bl	LCD_PrintString
 132:main.c        ****     LCD_Position(1u, 0u);
 295              		.loc 1 132 0
 296 005e 0021     		movs	r1, #0
 297 0060 0120     		movs	r0, #1
 298 0062 FFF7FEFF 		bl	LCD_Position
 133:main.c        ****     LCD_PrintString("P2: Level ingang");
 299              		.loc 1 133 0
 300 0066 9448     		ldr	r0, .L26+12
 301 0068 FFF7FEFF 		bl	LCD_PrintString
 134:main.c        ****     CyDelay(500);
 302              		.loc 1 134 0
 303 006c 4FF4FA70 		mov	r0, #500
 304 0070 FFF7FEFF 		bl	CyDelay
ARM GAS  C:\Users\Jona\AppData\Local\Temp\ccCp6Uxt.s 			page 9


 135:main.c        ****     LCD_WriteControl(LCD_CLEAR_DISPLAY);
 305              		.loc 1 135 0
 306 0074 0120     		movs	r0, #1
 307 0076 FFF7FEFF 		bl	LCD_WriteControl
 136:main.c        ****     LCD_Position(0u, 0u);
 308              		.loc 1 136 0
 309 007a 0021     		movs	r1, #0
 310 007c 0020     		movs	r0, #0
 311 007e FFF7FEFF 		bl	LCD_Position
 137:main.c        ****     LCD_PrintString("Lev:   HP:  ");
 312              		.loc 1 137 0
 313 0082 8E48     		ldr	r0, .L26+16
 314 0084 FFF7FEFF 		bl	LCD_PrintString
 138:main.c        ****     LCD_Position(1u, 0u);
 315              		.loc 1 138 0
 316 0088 0021     		movs	r1, #0
 317 008a 0120     		movs	r0, #1
 318 008c FFF7FEFF 		bl	LCD_Position
 139:main.c        ****     LCD_PrintString("Line:");
 319              		.loc 1 139 0
 320 0090 8B48     		ldr	r0, .L26+20
 321 0092 FFF7FEFF 		bl	LCD_PrintString
 140:main.c        ****     sampleUit[LINKS] = 0;
 322              		.loc 1 140 0
 323 0096 8B4B     		ldr	r3, .L26+24
 324 0098 0022     		movs	r2, #0
 325 009a 1A80     		strh	r2, [r3]	@ movhi
 141:main.c        ****     sampleUit[RECHTS]  = 0;
 326              		.loc 1 141 0
 327 009c 894B     		ldr	r3, .L26+24
 328 009e 0022     		movs	r2, #0
 329 00a0 5A80     		strh	r2, [r3, #2]	@ movhi
 142:main.c        ****     initCodec();                    // initialiseer codec
 330              		.loc 1 142 0
 331 00a2 FFF7FEFF 		bl	initCodec
 143:main.c        ****     VOL_Start();                    // start ADC in continious mode
 332              		.loc 1 143 0
 333 00a6 FFF7FEFF 		bl	VOL_Start
 144:main.c        ****     VOL_StartConvert();
 334              		.loc 1 144 0
 335 00aa FFF7FEFF 		bl	VOL_StartConvert
 145:main.c        ****     LINE_Start();                   // start ADC in continious mode
 336              		.loc 1 145 0
 337 00ae FFF7FEFF 		bl	LINE_Start
 146:main.c        ****     LINE_StartConvert();
 338              		.loc 1 146 0
 339 00b2 FFF7FEFF 		bl	LINE_StartConvert
 147:main.c        **** 
 148:main.c        ****     AnalogeIngang_L_Start();        // opamps starten
 340              		.loc 1 148 0
 341 00b6 FFF7FEFF 		bl	AnalogeIngang_L_Start
 149:main.c        ****     AnalogeIngang_R_Start();
 342              		.loc 1 149 0
 343 00ba FFF7FEFF 		bl	AnalogeIngang_R_Start
 150:main.c        **** 	// Filterblok starten, interrupt register bits aanzetten voor polling
 151:main.c        ****     Filter_Start(); 
 344              		.loc 1 151 0
ARM GAS  C:\Users\Jona\AppData\Local\Temp\ccCp6Uxt.s 			page 10


 345 00be FFF7FEFF 		bl	Filter_Start
 152:main.c        ****     LCD_Position(0u, 15u);
 346              		.loc 1 152 0
 347 00c2 0F21     		movs	r1, #15
 348 00c4 0020     		movs	r0, #0
 349 00c6 FFF7FEFF 		bl	LCD_Position
 153:main.c        **** #if USE_FILTER_LINKS == 1
 154:main.c        ****     Filter_INT_CTRL_REG |= (1 << Filter_CHANNEL_A);
 350              		.loc 1 154 0
 351 00ca 7F4A     		ldr	r2, .L26+28
 352 00cc 7E4B     		ldr	r3, .L26+28
 353 00ce 1B78     		ldrb	r3, [r3]
 354 00d0 DBB2     		uxtb	r3, r3
 355 00d2 43F00103 		orr	r3, r3, #1
 356 00d6 DBB2     		uxtb	r3, r3
 357 00d8 1370     		strb	r3, [r2]
 155:main.c        ****     LCD_PutChar('L');
 358              		.loc 1 155 0
 359 00da 4C20     		movs	r0, #76
 360 00dc FFF7FEFF 		bl	LCD_PutChar
 156:main.c        ****     LCD_Position(0u, 14u);
 361              		.loc 1 156 0
 362 00e0 0E21     		movs	r1, #14
 363 00e2 0020     		movs	r0, #0
 364 00e4 FFF7FEFF 		bl	LCD_Position
 157:main.c        **** #endif
 158:main.c        **** #if USE_FILTER_RECHTS == 1
 159:main.c        ****     Filter_INT_CTRL_REG |= (1 << Filter_CHANNEL_B);
 365              		.loc 1 159 0
 366 00e8 774A     		ldr	r2, .L26+28
 367 00ea 774B     		ldr	r3, .L26+28
 368 00ec 1B78     		ldrb	r3, [r3]
 369 00ee DBB2     		uxtb	r3, r3
 370 00f0 43F00203 		orr	r3, r3, #2
 371 00f4 DBB2     		uxtb	r3, r3
 372 00f6 1370     		strb	r3, [r2]
 160:main.c        ****     LCD_PutChar('R');
 373              		.loc 1 160 0
 374 00f8 5220     		movs	r0, #82
 375 00fa FFF7FEFF 		bl	LCD_PutChar
 161:main.c        **** #endif
 162:main.c        ****     
 163:main.c        ****     I2S_EN_Write(1);                // zet de codec-klok voor I2S interface aan
 376              		.loc 1 163 0
 377 00fe 0120     		movs	r0, #1
 378 0100 FFF7FEFF 		bl	I2S_EN_Write
 164:main.c        ****     
 165:main.c        ****     // Configureer DMAs voor zenden en ontvangen via I2S
 166:main.c        ****     DmaRxConfiguration();
 379              		.loc 1 166 0
 380 0104 FFF7FEFF 		bl	DmaRxConfiguration
 167:main.c        ****     DmaTxConfiguration();
 381              		.loc 1 167 0
 382 0108 FFF7FEFF 		bl	DmaTxConfiguration
 168:main.c        ****     
 169:main.c        ****     // Declareer interrupt-routines voor zenden en ontvangen via I2S
 170:main.c        ****     SampleVraag_StartEx(sampleIntTx_ISR);
ARM GAS  C:\Users\Jona\AppData\Local\Temp\ccCp6Uxt.s 			page 11


 383              		.loc 1 170 0
 384 010c 6F48     		ldr	r0, .L26+32
 385 010e FFF7FEFF 		bl	SampleVraag_StartEx
 171:main.c        ****     SampleKlaar_StartEx(sampleIntRx_ISR);
 386              		.loc 1 171 0
 387 0112 6F48     		ldr	r0, .L26+36
 388 0114 FFF7FEFF 		bl	SampleKlaar_StartEx
 172:main.c        **** 
 173:main.c        ****     I2S_Codec_audio_Start();        // Start I2S-interface
 389              		.loc 1 173 0
 390 0118 FFF7FEFF 		bl	I2S_Codec_audio_Start
 174:main.c        ****     I2S_Codec_audio_EnableRx();     // Enable Rx direction 
 391              		.loc 1 174 0
 392 011c FFF7FEFF 		bl	I2S_Codec_audio_EnableRx
 175:main.c        ****     I2S_Codec_audio_EnableTx();     // Enable Tx direction 
 393              		.loc 1 175 0
 394 0120 FFF7FEFF 		bl	I2S_Codec_audio_EnableTx
 176:main.c        ****     LEDs_Write(LEDs_Read() & 0x0C);
 395              		.loc 1 176 0
 396 0124 FFF7FEFF 		bl	LEDs_Read
 397 0128 0346     		mov	r3, r0
 398 012a 03F00C03 		and	r3, r3, #12
 399 012e DBB2     		uxtb	r3, r3
 400 0130 1846     		mov	r0, r3
 401 0132 FFF7FEFF 		bl	LEDs_Write
 177:main.c        ****     
 178:main.c        ****     cyclusTel = 0;
 402              		.loc 1 178 0
 403 0136 674B     		ldr	r3, .L26+40
 404 0138 0022     		movs	r2, #0
 405 013a 1A60     		str	r2, [r3]
 406              	.L25:
 179:main.c        ****     for(;;) {
 180:main.c        ****         // Loop-gedeelte van het hoofdprogramma
 181:main.c        **** 
 182:main.c        ****         // Line gevoeligheid-instelling op het display
 183:main.c        ****         LineVolume = StelLineVolumeIn(LINE_GetResult8());
 407              		.loc 1 183 0
 408 013c FFF7FEFF 		bl	LINE_GetResult8
 409 0140 0346     		mov	r3, r0
 410 0142 DBB2     		uxtb	r3, r3
 411 0144 1846     		mov	r0, r3
 412 0146 FFF7FEFF 		bl	StelLineVolumeIn
 413 014a 0346     		mov	r3, r0
 414 014c 1A46     		mov	r2, r3
 415 014e 624B     		ldr	r3, .L26+44
 416 0150 1A70     		strb	r2, [r3]
 184:main.c        ****         LCD_Position(0u,4u);
 417              		.loc 1 184 0
 418 0152 0421     		movs	r1, #4
 419 0154 0020     		movs	r0, #0
 420 0156 FFF7FEFF 		bl	LCD_Position
 185:main.c        ****         if (LineVolume < 10) LCD_PutChar(' ');
 421              		.loc 1 185 0
 422 015a 5F4B     		ldr	r3, .L26+44
 423 015c 1B78     		ldrb	r3, [r3]	@ zero_extendqisi2
 424 015e 092B     		cmp	r3, #9
ARM GAS  C:\Users\Jona\AppData\Local\Temp\ccCp6Uxt.s 			page 12


 425 0160 02D8     		bhi	.L13
 426              		.loc 1 185 0 is_stmt 0 discriminator 1
 427 0162 2020     		movs	r0, #32
 428 0164 FFF7FEFF 		bl	LCD_PutChar
 429              	.L13:
 186:main.c        ****         LCD_PrintNumber(LineVolume);
 430              		.loc 1 186 0 is_stmt 1
 431 0168 5B4B     		ldr	r3, .L26+44
 432 016a 1B78     		ldrb	r3, [r3]	@ zero_extendqisi2
 433 016c 1846     		mov	r0, r3
 434 016e FFF7FEFF 		bl	LCD_PrintU32Number
 187:main.c        **** 
 188:main.c        ****         // Als niveau te hoog, dan meld dat op LCD
 189:main.c        ****         if(CLIP_Read()) ClipIndicator = '!';
 435              		.loc 1 189 0
 436 0172 FFF7FEFF 		bl	CLIP_Read
 437 0176 0346     		mov	r3, r0
 438 0178 002B     		cmp	r3, #0
 439 017a 02D0     		beq	.L14
 440              		.loc 1 189 0 is_stmt 0 discriminator 1
 441 017c 574B     		ldr	r3, .L26+48
 442 017e 2122     		movs	r2, #33
 443 0180 1A70     		strb	r2, [r3]
 444              	.L14:
 190:main.c        ****         
 191:main.c        ****         // HP volume-instelling op het display
 192:main.c        ****         HPvolume = StelHPvolumeIn(VOL_GetResult8());
 445              		.loc 1 192 0 is_stmt 1
 446 0182 FFF7FEFF 		bl	VOL_GetResult8
 447 0186 0346     		mov	r3, r0
 448 0188 DBB2     		uxtb	r3, r3
 449 018a 1846     		mov	r0, r3
 450 018c FFF7FEFF 		bl	StelHPvolumeIn
 451 0190 0346     		mov	r3, r0
 452 0192 1A46     		mov	r2, r3
 453 0194 524B     		ldr	r3, .L26+52
 454 0196 1A70     		strb	r2, [r3]
 193:main.c        ****         LCD_Position(0u,10u);
 455              		.loc 1 193 0
 456 0198 0A21     		movs	r1, #10
 457 019a 0020     		movs	r0, #0
 458 019c FFF7FEFF 		bl	LCD_Position
 194:main.c        ****         displayVolume = HPvolume-48;
 459              		.loc 1 194 0
 460 01a0 4F4B     		ldr	r3, .L26+52
 461 01a2 1B78     		ldrb	r3, [r3]	@ zero_extendqisi2
 462 01a4 303B     		subs	r3, r3, #48
 463 01a6 DAB2     		uxtb	r2, r3
 464 01a8 4E4B     		ldr	r3, .L26+56
 465 01aa 1A70     		strb	r2, [r3]
 195:main.c        ****         if (displayVolume < 10) LCD_PutChar(' ');
 466              		.loc 1 195 0
 467 01ac 4D4B     		ldr	r3, .L26+56
 468 01ae 1B78     		ldrb	r3, [r3]	@ zero_extendqisi2
 469 01b0 092B     		cmp	r3, #9
 470 01b2 02D8     		bhi	.L15
 471              		.loc 1 195 0 is_stmt 0 discriminator 1
ARM GAS  C:\Users\Jona\AppData\Local\Temp\ccCp6Uxt.s 			page 13


 472 01b4 2020     		movs	r0, #32
 473 01b6 FFF7FEFF 		bl	LCD_PutChar
 474              	.L15:
 196:main.c        ****         LCD_PrintNumber(displayVolume);
 475              		.loc 1 196 0 is_stmt 1
 476 01ba 4A4B     		ldr	r3, .L26+56
 477 01bc 1B78     		ldrb	r3, [r3]	@ zero_extendqisi2
 478 01be 1846     		mov	r0, r3
 479 01c0 FFF7FEFF 		bl	LCD_PrintU32Number
 197:main.c        ****         
 198:main.c        ****         // zet elke seconde maximum inputwaarde op het LCD
 199:main.c        ****         if (cyclusTel >= 100) {
 480              		.loc 1 199 0
 481 01c4 434B     		ldr	r3, .L26+40
 482 01c6 1B68     		ldr	r3, [r3]
 483 01c8 632B     		cmp	r3, #99
 484 01ca 65D9     		bls	.L16
 200:main.c        ****             cyclusTel = 0;
 485              		.loc 1 200 0
 486 01cc 414B     		ldr	r3, .L26+40
 487 01ce 0022     		movs	r2, #0
 488 01d0 1A60     		str	r2, [r3]
 201:main.c        ****             LCD_Position(0u, 6);
 489              		.loc 1 201 0
 490 01d2 0621     		movs	r1, #6
 491 01d4 0020     		movs	r0, #0
 492 01d6 FFF7FEFF 		bl	LCD_Position
 202:main.c        ****             LCD_PutChar(ClipIndicator); 
 493              		.loc 1 202 0
 494 01da 404B     		ldr	r3, .L26+48
 495 01dc 1B78     		ldrb	r3, [r3]	@ zero_extendqisi2
 496 01de 1846     		mov	r0, r3
 497 01e0 FFF7FEFF 		bl	LCD_PutChar
 203:main.c        ****             ClipIndicator = ' ';
 498              		.loc 1 203 0
 499 01e4 3D4B     		ldr	r3, .L26+48
 500 01e6 2022     		movs	r2, #32
 501 01e8 1A70     		strb	r2, [r3]
 204:main.c        ****             LCD_Position(1u, 5);
 502              		.loc 1 204 0
 503 01ea 0521     		movs	r1, #5
 504 01ec 0120     		movs	r0, #1
 505 01ee FFF7FEFF 		bl	LCD_Position
 205:main.c        ****             if (maxL < 10000) LCD_PutChar(' ');
 506              		.loc 1 205 0
 507 01f2 3D4B     		ldr	r3, .L26+60
 508 01f4 1B68     		ldr	r3, [r3]
 509 01f6 42F20F72 		movw	r2, #9999
 510 01fa 9342     		cmp	r3, r2
 511 01fc 02DC     		bgt	.L17
 512              		.loc 1 205 0 is_stmt 0 discriminator 1
 513 01fe 2020     		movs	r0, #32
 514 0200 FFF7FEFF 		bl	LCD_PutChar
 515              	.L17:
 206:main.c        ****             if (maxL < 1000)  LCD_PutChar(' ');
 516              		.loc 1 206 0 is_stmt 1
 517 0204 384B     		ldr	r3, .L26+60
ARM GAS  C:\Users\Jona\AppData\Local\Temp\ccCp6Uxt.s 			page 14


 518 0206 1B68     		ldr	r3, [r3]
 519 0208 B3F57A7F 		cmp	r3, #1000
 520 020c 02DA     		bge	.L18
 521              		.loc 1 206 0 is_stmt 0 discriminator 1
 522 020e 2020     		movs	r0, #32
 523 0210 FFF7FEFF 		bl	LCD_PutChar
 524              	.L18:
 207:main.c        ****             if (maxL < 100)   LCD_PutChar(' ');
 525              		.loc 1 207 0 is_stmt 1
 526 0214 344B     		ldr	r3, .L26+60
 527 0216 1B68     		ldr	r3, [r3]
 528 0218 632B     		cmp	r3, #99
 529 021a 02DC     		bgt	.L19
 530              		.loc 1 207 0 is_stmt 0 discriminator 1
 531 021c 2020     		movs	r0, #32
 532 021e FFF7FEFF 		bl	LCD_PutChar
 533              	.L19:
 208:main.c        ****             if (maxL < 10)    LCD_PutChar(' ');
 534              		.loc 1 208 0 is_stmt 1
 535 0222 314B     		ldr	r3, .L26+60
 536 0224 1B68     		ldr	r3, [r3]
 537 0226 092B     		cmp	r3, #9
 538 0228 02DC     		bgt	.L20
 539              		.loc 1 208 0 is_stmt 0 discriminator 1
 540 022a 2020     		movs	r0, #32
 541 022c FFF7FEFF 		bl	LCD_PutChar
 542              	.L20:
 209:main.c        ****             LCD_PrintNumber(maxL);
 543              		.loc 1 209 0 is_stmt 1
 544 0230 2D4B     		ldr	r3, .L26+60
 545 0232 1B68     		ldr	r3, [r3]
 546 0234 9BB2     		uxth	r3, r3
 547 0236 1846     		mov	r0, r3
 548 0238 FFF7FEFF 		bl	LCD_PrintU32Number
 210:main.c        ****             maxL = 0; 
 549              		.loc 1 210 0
 550 023c 2A4B     		ldr	r3, .L26+60
 551 023e 0022     		movs	r2, #0
 552 0240 1A60     		str	r2, [r3]
 211:main.c        ****             LCD_PutChar(' ');
 553              		.loc 1 211 0
 554 0242 2020     		movs	r0, #32
 555 0244 FFF7FEFF 		bl	LCD_PutChar
 212:main.c        ****             if (maxR < 10000) LCD_PutChar(' ');
 556              		.loc 1 212 0
 557 0248 284B     		ldr	r3, .L26+64
 558 024a 1B68     		ldr	r3, [r3]
 559 024c 42F20F72 		movw	r2, #9999
 560 0250 9342     		cmp	r3, r2
 561 0252 02DC     		bgt	.L21
 562              		.loc 1 212 0 is_stmt 0 discriminator 1
 563 0254 2020     		movs	r0, #32
 564 0256 FFF7FEFF 		bl	LCD_PutChar
 565              	.L21:
 213:main.c        ****             if (maxR < 1000)  LCD_PutChar(' ');
 566              		.loc 1 213 0 is_stmt 1
 567 025a 244B     		ldr	r3, .L26+64
ARM GAS  C:\Users\Jona\AppData\Local\Temp\ccCp6Uxt.s 			page 15


 568 025c 1B68     		ldr	r3, [r3]
 569 025e B3F57A7F 		cmp	r3, #1000
 570 0262 02DA     		bge	.L22
 571              		.loc 1 213 0 is_stmt 0 discriminator 1
 572 0264 2020     		movs	r0, #32
 573 0266 FFF7FEFF 		bl	LCD_PutChar
 574              	.L22:
 214:main.c        ****             if (maxR < 100)   LCD_PutChar(' ');
 575              		.loc 1 214 0 is_stmt 1
 576 026a 204B     		ldr	r3, .L26+64
 577 026c 1B68     		ldr	r3, [r3]
 578 026e 632B     		cmp	r3, #99
 579 0270 02DC     		bgt	.L23
 580              		.loc 1 214 0 is_stmt 0 discriminator 1
 581 0272 2020     		movs	r0, #32
 582 0274 FFF7FEFF 		bl	LCD_PutChar
 583              	.L23:
 215:main.c        ****             if (maxR < 10)    LCD_PutChar(' ');
 584              		.loc 1 215 0 is_stmt 1
 585 0278 1C4B     		ldr	r3, .L26+64
 586 027a 1B68     		ldr	r3, [r3]
 587 027c 092B     		cmp	r3, #9
 588 027e 02DC     		bgt	.L24
 589              		.loc 1 215 0 is_stmt 0 discriminator 1
 590 0280 2020     		movs	r0, #32
 591 0282 FFF7FEFF 		bl	LCD_PutChar
 592              	.L24:
 216:main.c        ****             LCD_PrintNumber(maxR);
 593              		.loc 1 216 0 is_stmt 1
 594 0286 194B     		ldr	r3, .L26+64
 595 0288 1B68     		ldr	r3, [r3]
 596 028a 9BB2     		uxth	r3, r3
 597 028c 1846     		mov	r0, r3
 598 028e FFF7FEFF 		bl	LCD_PrintU32Number
 217:main.c        ****             maxR = 0;
 599              		.loc 1 217 0
 600 0292 164B     		ldr	r3, .L26+64
 601 0294 0022     		movs	r2, #0
 602 0296 1A60     		str	r2, [r3]
 603              	.L16:
 218:main.c        ****         }
 219:main.c        ****         cyclusTel++;
 604              		.loc 1 219 0
 605 0298 0E4B     		ldr	r3, .L26+40
 606 029a 1B68     		ldr	r3, [r3]
 607 029c 0133     		adds	r3, r3, #1
 608 029e 0D4A     		ldr	r2, .L26+40
 609 02a0 1360     		str	r3, [r2]
 220:main.c        ****         CyDelayUs(1000);
 610              		.loc 1 220 0
 611 02a2 4FF47A70 		mov	r0, #1000
 612 02a6 FFF7FEFF 		bl	CyDelayUs
 221:main.c        ****     }
 613              		.loc 1 221 0
 614 02aa 47E7     		b	.L25
 615              	.L27:
 616              		.align	2
ARM GAS  C:\Users\Jona\AppData\Local\Temp\ccCp6Uxt.s 			page 16


 617              	.L26:
 618 02ac 00000000 		.word	.LC0
 619 02b0 10000000 		.word	.LC1
 620 02b4 28000000 		.word	.LC2
 621 02b8 38000000 		.word	.LC3
 622 02bc 4C000000 		.word	.LC4
 623 02c0 5C000000 		.word	.LC5
 624 02c4 00000000 		.word	sampleUit
 625 02c8 98C70040 		.word	1073792920
 626 02cc 00000000 		.word	sampleIntTx_ISR
 627 02d0 00000000 		.word	sampleIntRx_ISR
 628 02d4 00000000 		.word	cyclusTel
 629 02d8 00000000 		.word	LineVolume
 630 02dc 00000000 		.word	ClipIndicator
 631 02e0 00000000 		.word	HPvolume
 632 02e4 00000000 		.word	displayVolume
 633 02e8 00000000 		.word	maxL
 634 02ec 00000000 		.word	maxR
 635              		.cfi_endproc
 636              	.LFE64:
 637              		.size	main, .-main
 638              		.text
 639              	.Letext0:
 640              		.file 2 "c:\\program files (x86)\\cypress\\psoc creator\\4.1\\psoc creator\\import\\gnu\\arm\\5.4.
 641              		.file 3 "c:\\program files (x86)\\cypress\\psoc creator\\4.1\\psoc creator\\import\\gnu\\arm\\5.4.
 642              		.file 4 "Generated_Source\\PSoC5/cytypes.h"
 643              		.file 5 "Generated_Source\\PSoC5/core_cm3.h"
 644              		.file 6 "./dma.h"