ARM GAS  C:\Users\Jona\AppData\Local\Temp\cc2V9A0t.s 			page 1


   1              		.syntax unified
   2              		.cpu cortex-m3
   3              		.fpu softvfp
   4              		.eabi_attribute 20, 1
   5              		.eabi_attribute 21, 1
   6              		.eabi_attribute 23, 3
   7              		.eabi_attribute 24, 1
   8              		.eabi_attribute 25, 1
   9              		.eabi_attribute 26, 1
  10              		.eabi_attribute 30, 6
  11              		.eabi_attribute 34, 1
  12              		.eabi_attribute 18, 4
  13              		.thumb
  14              		.syntax unified
  15              		.file	"dma.c"
  16              		.text
  17              	.Ltext0:
  18              		.cfi_sections	.debug_frame
  19              		.comm	rxBuff,4,4
  20              		.comm	txBuff,4,4
  21              		.comm	sampleIn,4,4
  22              		.comm	sampleUit,4,4
  23              		.bss
  24              	rxDmaChan:
  25 0000 00       		.space	1
  26 0001 000000   		.align	2
  27              	rxDmaTd:
  28 0004 00       		.space	1
  29              	txDmaChan:
  30 0005 00       		.space	1
  31 0006 0000     		.align	2
  32              	txDmaTd:
  33 0008 00       		.space	1
  34              		.section	.text.sampleIntRx_ISR,"ax",%progbits
  35              		.align	2
  36              		.global	sampleIntRx_ISR
  37              		.thumb
  38              		.thumb_func
  39              		.type	sampleIntRx_ISR, %function
  40              	sampleIntRx_ISR:
  41              	.LFB63:
  42              		.file 1 "dma.c"
   1:dma.c         **** /* ========================================
   2:dma.c         ****  *
   3:dma.c         ****  * File: dma.c
   4:dma.c         ****  * rev 1.6 10/2/2016
   5:dma.c         ****  * Piet Coussens, Odisee PBa elektronica
   6:dma.c         ****  * Geïnspireerd op het vb-programma van Cypress
   7:dma.c         ****  *
   8:dma.c         ****  * Code file voor DMA van I2S-interface
   9:dma.c         ****  *
  10:dma.c         ****  * ========================================
  11:dma.c         **** */
  12:dma.c         **** 
  13:dma.c         **** #include <project.h>
  14:dma.c         **** #include <dspSystem.h>
  15:dma.c         **** #include <dma.h>
ARM GAS  C:\Users\Jona\AppData\Local\Temp\cc2V9A0t.s 			page 2


  16:dma.c         **** #include <stdlib.h>
  17:dma.c         **** 
  18:dma.c         **** /* DMA Configuration for RxDMA */
  19:dma.c         **** #define RxDMA_BYTES_PER_BURST       (1u)
  20:dma.c         **** #define RxDMA_REQUEST_PER_BURST     (1u)
  21:dma.c         **** #define RxDMA_SRC_BASE              (CYDEV_PERIPH_BASE)
  22:dma.c         **** #define RxDMA_DST_BASE              (CYDEV_SRAM_BASE)
  23:dma.c         **** 
  24:dma.c         **** /* DMA Configuration for TxDMA */
  25:dma.c         **** #define TxDMA_BYTES_PER_BURST       (1u)
  26:dma.c         **** #define TxDMA_REQUEST_PER_BURST     (1u)
  27:dma.c         **** #define TxDMA_SRC_BASE              (CYDEV_SRAM_BASE)
  28:dma.c         **** #define TxDMA_DST_BASE              (CYDEV_PERIPH_BASE)
  29:dma.c         **** 
  30:dma.c         **** /* Variable declarations for RxDMA and TxDMA */
  31:dma.c         **** static uint8 rxDmaChan;
  32:dma.c         **** static uint8 rxDmaTd[1u];
  33:dma.c         **** static uint8 txDmaChan;
  34:dma.c         **** static uint8 txDmaTd[1u];
  35:dma.c         **** 
  36:dma.c         **** // Haal de audiosamples van de codec uit de I2S interface en stop ze in samplesIn
  37:dma.c         **** // Verzend de audiosamples in samplesUit via de I2S interface naar de codec
  38:dma.c         **** // de data komt toe in de 4-byte buffer als [3]=R_lo, [2]=R_hi, [1]=L_lo, [0]=L_hi
  39:dma.c         **** // plaats 0 = LINKS, plaats 1 = RECHTS
  40:dma.c         **** 
  41:dma.c         **** /*******************************************************************************
  42:dma.c         **** * Function Name: sampleIntRx_ISR - sampleIntTx_ISR
  43:dma.c         **** ********************************************************************************
  44:dma.c         **** * interrupt-routines voor het ophalen en verwerken van de samples van de codec
  45:dma.c         **** * Parameters: None.
  46:dma.c         **** * Return: None.
  47:dma.c         **** * Uitvoeringstijd: 2,3 us voor sampleIntTx_ISR (@78 MHz) 
  48:dma.c         **** *                  3,0 us voor sampleIntRx_ISR (@78 MHz)
  49:dma.c         **** *******************************************************************************/
  50:dma.c         **** CY_ISR(sampleIntRx_ISR) {
  43              		.loc 1 50 0
  44              		.cfi_startproc
  45              		@ args = 0, pretend = 0, frame = 0
  46              		@ frame_needed = 1, uses_anonymous_args = 0
  47 0000 80B5     		push	{r7, lr}
  48              		.cfi_def_cfa_offset 8
  49              		.cfi_offset 7, -8
  50              		.cfi_offset 14, -4
  51 0002 00AF     		add	r7, sp, #0
  52              		.cfi_def_cfa_register 7
  51:dma.c         ****     #if CLIPnTIME == 0
  52:dma.c         ****       CLIP_Write(1);
  53:dma.c         ****     #endif
  54:dma.c         ****     sampleIn[0] = (int16)((rxBuff[0]<<8) | rxBuff[1]);
  53              		.loc 1 54 0
  54 0004 1A4B     		ldr	r3, .L5
  55 0006 1B78     		ldrb	r3, [r3]	@ zero_extendqisi2
  56 0008 1B02     		lsls	r3, r3, #8
  57 000a 1AB2     		sxth	r2, r3
  58 000c 184B     		ldr	r3, .L5
  59 000e 5B78     		ldrb	r3, [r3, #1]	@ zero_extendqisi2
  60 0010 1BB2     		sxth	r3, r3
ARM GAS  C:\Users\Jona\AppData\Local\Temp\cc2V9A0t.s 			page 3


  61 0012 1343     		orrs	r3, r3, r2
  62 0014 1AB2     		sxth	r2, r3
  63 0016 174B     		ldr	r3, .L5+4
  64 0018 1A80     		strh	r2, [r3]	@ movhi
  55:dma.c         ****     sampleIn[1] = (int16)((rxBuff[2]<<8) | rxBuff[3]);
  65              		.loc 1 55 0
  66 001a 154B     		ldr	r3, .L5
  67 001c 9B78     		ldrb	r3, [r3, #2]	@ zero_extendqisi2
  68 001e 1B02     		lsls	r3, r3, #8
  69 0020 1AB2     		sxth	r2, r3
  70 0022 134B     		ldr	r3, .L5
  71 0024 DB78     		ldrb	r3, [r3, #3]	@ zero_extendqisi2
  72 0026 1BB2     		sxth	r3, r3
  73 0028 1343     		orrs	r3, r3, r2
  74 002a 1AB2     		sxth	r2, r3
  75 002c 114B     		ldr	r3, .L5+4
  76 002e 5A80     		strh	r2, [r3, #2]	@ movhi
  56:dma.c         ****     berekenMetSamples();
  77              		.loc 1 56 0
  78 0030 FFF7FEFF 		bl	berekenMetSamples
  57:dma.c         ****     #if CLIPnTIME == 0
  58:dma.c         ****       CLIP_Write(0);
  59:dma.c         ****     #else
  60:dma.c         ****       if((abs(sampleIn[0]>>8) > CLIP_LEVEL) || (abs(sampleIn[1]>>8) > CLIP_LEVEL))
  79              		.loc 1 60 0
  80 0034 0F4B     		ldr	r3, .L5+4
  81 0036 B3F90030 		ldrsh	r3, [r3]
  82 003a 1B12     		asrs	r3, r3, #8
  83 003c 1BB2     		sxth	r3, r3
  84 003e 002B     		cmp	r3, #0
  85 0040 B8BF     		it	lt
  86 0042 5B42     		rsblt	r3, r3, #0
  87 0044 782B     		cmp	r3, #120
  88 0046 09DC     		bgt	.L2
  89              		.loc 1 60 0 is_stmt 0 discriminator 1
  90 0048 0A4B     		ldr	r3, .L5+4
  91 004a B3F90230 		ldrsh	r3, [r3, #2]
  92 004e 1B12     		asrs	r3, r3, #8
  93 0050 1BB2     		sxth	r3, r3
  94 0052 002B     		cmp	r3, #0
  95 0054 B8BF     		it	lt
  96 0056 5B42     		rsblt	r3, r3, #0
  97 0058 782B     		cmp	r3, #120
  98 005a 03DD     		ble	.L3
  99              	.L2:
  61:dma.c         ****         CLIP_Write(1);
 100              		.loc 1 61 0 is_stmt 1
 101 005c 0120     		movs	r0, #1
 102 005e FFF7FEFF 		bl	CLIP_Write
 103 0062 02E0     		b	.L4
 104              	.L3:
  62:dma.c         ****       else
  63:dma.c         ****         CLIP_Write(0);
 105              		.loc 1 63 0
 106 0064 0020     		movs	r0, #0
 107 0066 FFF7FEFF 		bl	CLIP_Write
 108              	.L4:
ARM GAS  C:\Users\Jona\AppData\Local\Temp\cc2V9A0t.s 			page 4


  64:dma.c         ****     #endif
  65:dma.c         ****     }
 109              		.loc 1 65 0
 110 006a 00BF     		nop
 111 006c 80BD     		pop	{r7, pc}
 112              	.L6:
 113 006e 00BF     		.align	2
 114              	.L5:
 115 0070 00000000 		.word	rxBuff
 116 0074 00000000 		.word	sampleIn
 117              		.cfi_endproc
 118              	.LFE63:
 119              		.size	sampleIntRx_ISR, .-sampleIntRx_ISR
 120              		.section	.text.sampleIntTx_ISR,"ax",%progbits
 121              		.align	2
 122              		.global	sampleIntTx_ISR
 123              		.thumb
 124              		.thumb_func
 125              		.type	sampleIntTx_ISR, %function
 126              	sampleIntTx_ISR:
 127              	.LFB64:
  66:dma.c         **** 
  67:dma.c         **** CY_ISR(sampleIntTx_ISR) {
 128              		.loc 1 67 0
 129              		.cfi_startproc
 130              		@ args = 0, pretend = 0, frame = 0
 131              		@ frame_needed = 1, uses_anonymous_args = 0
 132              		@ link register save eliminated.
 133 0000 80B4     		push	{r7}
 134              		.cfi_def_cfa_offset 4
 135              		.cfi_offset 7, -4
 136 0002 00AF     		add	r7, sp, #0
 137              		.cfi_def_cfa_register 7
  68:dma.c         ****     #if CLIPnTIME == 0
  69:dma.c         ****       CLIP_Write(1);
  70:dma.c         ****     #endif
  71:dma.c         ****     txBuff[0]    = (uint8)((sampleUit[0]>> 8) &0xFF);      // hoog byte links
 138              		.loc 1 71 0
 139 0004 0F4B     		ldr	r3, .L8
 140 0006 B3F90030 		ldrsh	r3, [r3]
 141 000a 1B12     		asrs	r3, r3, #8
 142 000c 1BB2     		sxth	r3, r3
 143 000e DAB2     		uxtb	r2, r3
 144 0010 0D4B     		ldr	r3, .L8+4
 145 0012 1A70     		strb	r2, [r3]
  72:dma.c         ****     txBuff[1]    = (uint8)(sampleUit[0] & 0xFF);           // laag byte links
 146              		.loc 1 72 0
 147 0014 0B4B     		ldr	r3, .L8
 148 0016 B3F90030 		ldrsh	r3, [r3]
 149 001a DAB2     		uxtb	r2, r3
 150 001c 0A4B     		ldr	r3, .L8+4
 151 001e 5A70     		strb	r2, [r3, #1]
  73:dma.c         ****     txBuff[2]    = (uint8)((sampleUit[1]>> 8) &0xFF);      // hoog byte rechts
 152              		.loc 1 73 0
 153 0020 084B     		ldr	r3, .L8
 154 0022 B3F90230 		ldrsh	r3, [r3, #2]
 155 0026 1B12     		asrs	r3, r3, #8
ARM GAS  C:\Users\Jona\AppData\Local\Temp\cc2V9A0t.s 			page 5


 156 0028 1BB2     		sxth	r3, r3
 157 002a DAB2     		uxtb	r2, r3
 158 002c 064B     		ldr	r3, .L8+4
 159 002e 9A70     		strb	r2, [r3, #2]
  74:dma.c         ****     txBuff[3]    = (uint8)(sampleUit[1] & 0xFF);           // laag byte rechts
 160              		.loc 1 74 0
 161 0030 044B     		ldr	r3, .L8
 162 0032 B3F90230 		ldrsh	r3, [r3, #2]
 163 0036 DAB2     		uxtb	r2, r3
 164 0038 034B     		ldr	r3, .L8+4
 165 003a DA70     		strb	r2, [r3, #3]
  75:dma.c         ****     #if CLIPnTIME == 0
  76:dma.c         ****       CLIP_Write(0);
  77:dma.c         ****     #endif
  78:dma.c         ****     }
 166              		.loc 1 78 0
 167 003c 00BF     		nop
 168 003e BD46     		mov	sp, r7
 169              		.cfi_def_cfa_register 13
 170              		@ sp needed
 171 0040 80BC     		pop	{r7}
 172              		.cfi_restore 7
 173              		.cfi_def_cfa_offset 0
 174 0042 7047     		bx	lr
 175              	.L9:
 176              		.align	2
 177              	.L8:
 178 0044 00000000 		.word	sampleUit
 179 0048 00000000 		.word	txBuff
 180              		.cfi_endproc
 181              	.LFE64:
 182              		.size	sampleIntTx_ISR, .-sampleIntTx_ISR
 183              		.section	.text.DmaRxConfiguration,"ax",%progbits
 184              		.align	2
 185              		.global	DmaRxConfiguration
 186              		.thumb
 187              		.thumb_func
 188              		.type	DmaRxConfiguration, %function
 189              	DmaRxConfiguration:
 190              	.LFB65:
  79:dma.c         **** 
  80:dma.c         **** /*******************************************************************************
  81:dma.c         **** * Function Name: DmaRxConfiguration
  82:dma.c         **** ********************************************************************************
  83:dma.c         **** * Configures the DMA transfer for the Rx direction.
  84:dma.c         **** * Parameters: None.
  85:dma.c         **** * Return: None.
  86:dma.c         **** *******************************************************************************/
  87:dma.c         **** void DmaRxConfiguration(void)
  88:dma.c         **** {
 191              		.loc 1 88 0
 192              		.cfi_startproc
 193              		@ args = 0, pretend = 0, frame = 0
 194              		@ frame_needed = 1, uses_anonymous_args = 0
 195 0000 80B5     		push	{r7, lr}
 196              		.cfi_def_cfa_offset 8
 197              		.cfi_offset 7, -8
ARM GAS  C:\Users\Jona\AppData\Local\Temp\cc2V9A0t.s 			page 6


 198              		.cfi_offset 14, -4
 199 0002 00AF     		add	r7, sp, #0
 200              		.cfi_def_cfa_register 7
  89:dma.c         ****     /* Rx DMA Config
  90:dma.c         ****     * Init DMA, 1 byte bursts, each burst requires a request */
  91:dma.c         ****     rxDmaChan = RxDMA_DmaInitialize(RxDMA_BYTES_PER_BURST, RxDMA_REQUEST_PER_BURST,
 201              		.loc 1 91 0
 202 0004 41F6FF73 		movw	r3, #8191
 203 0008 4FF48042 		mov	r2, #16384
 204 000c 0121     		movs	r1, #1
 205 000e 0120     		movs	r0, #1
 206 0010 FFF7FEFF 		bl	RxDMA_DmaInitialize
 207 0014 0346     		mov	r3, r0
 208 0016 1A46     		mov	r2, r3
 209 0018 144B     		ldr	r3, .L11
 210 001a 1A70     		strb	r2, [r3]
  92:dma.c         ****                                      HI16(RxDMA_SRC_BASE), HI16(RxDMA_DST_BASE));
  93:dma.c         **** 
  94:dma.c         ****     rxDmaTd[0u] = CyDmaTdAllocate();
 211              		.loc 1 94 0
 212 001c FFF7FEFF 		bl	CyDmaTdAllocate
 213 0020 0346     		mov	r3, r0
 214 0022 1A46     		mov	r2, r3
 215 0024 124B     		ldr	r3, .L11+4
 216 0026 1A70     		strb	r2, [r3]
  95:dma.c         ****     /* Configure this Td as follows:
  96:dma.c         ****     *  - The TD is looping on itself
  97:dma.c         ****     *  - Increment the destination address, but not the source address
  98:dma.c         ****     */
  99:dma.c         ****     CyDmaTdSetConfiguration(rxDmaTd[0], BUFFER_SIZE, rxDmaTd[0u], TD_INC_DST_ADR | RxDMA__TD_TERMOU
 217              		.loc 1 99 0
 218 0028 114B     		ldr	r3, .L11+4
 219 002a 1878     		ldrb	r0, [r3]	@ zero_extendqisi2
 220 002c 104B     		ldr	r3, .L11+4
 221 002e 1A78     		ldrb	r2, [r3]	@ zero_extendqisi2
 222 0030 0623     		movs	r3, #6
 223 0032 0421     		movs	r1, #4
 224 0034 FFF7FEFF 		bl	CyDmaTdSetConfiguration
 100:dma.c         **** 
 101:dma.c         ****     /* From the I2S to the memory */
 102:dma.c         ****     CyDmaTdSetAddress(rxDmaTd[0u], LO16((uint32)I2S_Codec_audio_RX_CH0_F0_PTR), LO16((uint32)rxBuff
 225              		.loc 1 102 0
 226 0038 0D4B     		ldr	r3, .L11+4
 227 003a 1B78     		ldrb	r3, [r3]	@ zero_extendqisi2
 228 003c 0D4A     		ldr	r2, .L11+8
 229 003e 92B2     		uxth	r2, r2
 230 0040 46F24651 		movw	r1, #25926
 231 0044 1846     		mov	r0, r3
 232 0046 FFF7FEFF 		bl	CyDmaTdSetAddress
 103:dma.c         **** 
 104:dma.c         ****     /* Associate the TD with the channel */
 105:dma.c         ****     CyDmaChSetInitialTd(rxDmaChan, rxDmaTd[0u]);
 233              		.loc 1 105 0
 234 004a 084B     		ldr	r3, .L11
 235 004c 1A78     		ldrb	r2, [r3]	@ zero_extendqisi2
 236 004e 084B     		ldr	r3, .L11+4
 237 0050 1B78     		ldrb	r3, [r3]	@ zero_extendqisi2
ARM GAS  C:\Users\Jona\AppData\Local\Temp\cc2V9A0t.s 			page 7


 238 0052 1946     		mov	r1, r3
 239 0054 1046     		mov	r0, r2
 240 0056 FFF7FEFF 		bl	CyDmaChSetInitialTd
 106:dma.c         **** 
 107:dma.c         ****     /* Enable the channel */
 108:dma.c         ****     CyDmaChEnable(rxDmaChan, 1u);
 241              		.loc 1 108 0
 242 005a 044B     		ldr	r3, .L11
 243 005c 1B78     		ldrb	r3, [r3]	@ zero_extendqisi2
 244 005e 0121     		movs	r1, #1
 245 0060 1846     		mov	r0, r3
 246 0062 FFF7FEFF 		bl	CyDmaChEnable
 109:dma.c         **** }
 247              		.loc 1 109 0
 248 0066 00BF     		nop
 249 0068 80BD     		pop	{r7, pc}
 250              	.L12:
 251 006a 00BF     		.align	2
 252              	.L11:
 253 006c 00000000 		.word	rxDmaChan
 254 0070 04000000 		.word	rxDmaTd
 255 0074 00000000 		.word	rxBuff
 256              		.cfi_endproc
 257              	.LFE65:
 258              		.size	DmaRxConfiguration, .-DmaRxConfiguration
 259              		.section	.text.DmaTxConfiguration,"ax",%progbits
 260              		.align	2
 261              		.global	DmaTxConfiguration
 262              		.thumb
 263              		.thumb_func
 264              		.type	DmaTxConfiguration, %function
 265              	DmaTxConfiguration:
 266              	.LFB66:
 110:dma.c         **** 
 111:dma.c         **** /*******************************************************************************
 112:dma.c         **** * Function Name: DmaTxConfiguration
 113:dma.c         **** ********************************************************************************
 114:dma.c         **** * Configures the DMA transfer for the Tx direction.
 115:dma.c         **** * Parameters: None.
 116:dma.c         **** * Return: None.
 117:dma.c         **** *******************************************************************************/
 118:dma.c         **** void DmaTxConfiguration(void)
 119:dma.c         **** {
 267              		.loc 1 119 0
 268              		.cfi_startproc
 269              		@ args = 0, pretend = 0, frame = 0
 270              		@ frame_needed = 1, uses_anonymous_args = 0
 271 0000 80B5     		push	{r7, lr}
 272              		.cfi_def_cfa_offset 8
 273              		.cfi_offset 7, -8
 274              		.cfi_offset 14, -4
 275 0002 00AF     		add	r7, sp, #0
 276              		.cfi_def_cfa_register 7
 120:dma.c         ****      /* Tx DMA Config
 121:dma.c         ****     * Init DMA, 1 byte bursts, each burst requires a request
 122:dma.c         ****     */ 
 123:dma.c         ****     txDmaChan = TxDMA_DmaInitialize(TxDMA_BYTES_PER_BURST, TxDMA_REQUEST_PER_BURST, 
ARM GAS  C:\Users\Jona\AppData\Local\Temp\cc2V9A0t.s 			page 8


 277              		.loc 1 123 0
 278 0004 4FF48043 		mov	r3, #16384
 279 0008 41F6FF72 		movw	r2, #8191
 280 000c 0121     		movs	r1, #1
 281 000e 0120     		movs	r0, #1
 282 0010 FFF7FEFF 		bl	TxDMA_DmaInitialize
 283 0014 0346     		mov	r3, r0
 284 0016 1A46     		mov	r2, r3
 285 0018 144B     		ldr	r3, .L14
 286 001a 1A70     		strb	r2, [r3]
 124:dma.c         ****                                     HI16(TxDMA_SRC_BASE), HI16(TxDMA_DST_BASE));
 125:dma.c         **** 
 126:dma.c         ****     txDmaTd[0u] = CyDmaTdAllocate();
 287              		.loc 1 126 0
 288 001c FFF7FEFF 		bl	CyDmaTdAllocate
 289 0020 0346     		mov	r3, r0
 290 0022 1A46     		mov	r2, r3
 291 0024 124B     		ldr	r3, .L14+4
 292 0026 1A70     		strb	r2, [r3]
 127:dma.c         **** 
 128:dma.c         ****     /* Configure this Td chain as follows:
 129:dma.c         ****     *  - The TD is looping on itself
 130:dma.c         ****     *  - Increment the source address, but not the destination address   
 131:dma.c         ****     */
 132:dma.c         ****     CyDmaTdSetConfiguration(txDmaTd[0u], BUFFER_SIZE, txDmaTd[0u], TD_INC_SRC_ADR | TxDMA__TD_TERMO
 293              		.loc 1 132 0
 294 0028 114B     		ldr	r3, .L14+4
 295 002a 1878     		ldrb	r0, [r3]	@ zero_extendqisi2
 296 002c 104B     		ldr	r3, .L14+4
 297 002e 1A78     		ldrb	r2, [r3]	@ zero_extendqisi2
 298 0030 0523     		movs	r3, #5
 299 0032 0421     		movs	r1, #4
 300 0034 FFF7FEFF 		bl	CyDmaTdSetConfiguration
 133:dma.c         ****     
 134:dma.c         ****     /* From the memory to the I2S */
 135:dma.c         ****     CyDmaTdSetAddress(txDmaTd[0u], LO16((uint32)txBuff), LO16((uint32)I2S_Codec_audio_TX_CH0_F0_PTR
 301              		.loc 1 135 0
 302 0038 0D4B     		ldr	r3, .L14+4
 303 003a 1B78     		ldrb	r3, [r3]	@ zero_extendqisi2
 304 003c 0D4A     		ldr	r2, .L14+8
 305 003e 91B2     		uxth	r1, r2
 306 0040 46F24552 		movw	r2, #25925
 307 0044 1846     		mov	r0, r3
 308 0046 FFF7FEFF 		bl	CyDmaTdSetAddress
 136:dma.c         **** 
 137:dma.c         ****     /* Associate the TD with the channel */
 138:dma.c         ****     CyDmaChSetInitialTd(txDmaChan, txDmaTd[0u]);
 309              		.loc 1 138 0
 310 004a 084B     		ldr	r3, .L14
 311 004c 1A78     		ldrb	r2, [r3]	@ zero_extendqisi2
 312 004e 084B     		ldr	r3, .L14+4
 313 0050 1B78     		ldrb	r3, [r3]	@ zero_extendqisi2
 314 0052 1946     		mov	r1, r3
 315 0054 1046     		mov	r0, r2
 316 0056 FFF7FEFF 		bl	CyDmaChSetInitialTd
 139:dma.c         **** 
 140:dma.c         ****     /* Enable the channel */
ARM GAS  C:\Users\Jona\AppData\Local\Temp\cc2V9A0t.s 			page 9


 141:dma.c         ****     CyDmaChEnable(txDmaChan, 1u);
 317              		.loc 1 141 0
 318 005a 044B     		ldr	r3, .L14
 319 005c 1B78     		ldrb	r3, [r3]	@ zero_extendqisi2
 320 005e 0121     		movs	r1, #1
 321 0060 1846     		mov	r0, r3
 322 0062 FFF7FEFF 		bl	CyDmaChEnable
 142:dma.c         **** }
 323              		.loc 1 142 0
 324 0066 00BF     		nop
 325 0068 80BD     		pop	{r7, pc}
 326              	.L15:
 327 006a 00BF     		.align	2
 328              	.L14:
 329 006c 05000000 		.word	txDmaChan
 330 0070 08000000 		.word	txDmaTd
 331 0074 00000000 		.word	txBuff
 332              		.cfi_endproc
 333              	.LFE66:
 334              		.size	DmaTxConfiguration, .-DmaTxConfiguration
 335              		.text
 336              	.Letext0:
 337              		.file 2 "c:\\program files (x86)\\cypress\\psoc creator\\4.1\\psoc creator\\import\\gnu\\arm\\5.4.
 338              		.file 3 "c:\\program files (x86)\\cypress\\psoc creator\\4.1\\psoc creator\\import\\gnu\\arm\\5.4.
 339              		.file 4 "Generated_Source\\PSoC5/cytypes.h"
 340              		.file 5 "Generated_Source\\PSoC5/core_cm3.h"
 341              		.file 6 "./dma.h"