ARM GAS  C:\Users\PIET~1.COU\AppData\Local\Temp\ccAsXtz4.s 			page 1


   1              		.syntax unified
   2              		.cpu cortex-m3
   3              		.fpu softvfp
   4              		.eabi_attribute 20, 1
   5              		.eabi_attribute 21, 1
   6              		.eabi_attribute 23, 3
   7              		.eabi_attribute 24, 1
   8              		.eabi_attribute 25, 1
   9              		.eabi_attribute 26, 1
  10              		.eabi_attribute 30, 4
  11              		.eabi_attribute 34, 1
  12              		.eabi_attribute 18, 4
  13              		.thumb
  14              		.file	"isr_1.c"
  15              		.text
  16              	.Ltext0:
  17              		.cfi_sections	.debug_frame
  18              		.section	.text.isr_1_Interrupt,"ax",%progbits
  19              		.align	1
  20              		.global	isr_1_Interrupt
  21              		.thumb
  22              		.thumb_func
  23              		.type	isr_1_Interrupt, %function
  24              	isr_1_Interrupt:
  25              	.LFB66:
  26              		.file 1 ".\\Generated_Source\\PSoC5\\isr_1.c"
   1:.\Generated_Source\PSoC5/isr_1.c **** /*******************************************************************************
   2:.\Generated_Source\PSoC5/isr_1.c **** * File Name: isr_1.c  
   3:.\Generated_Source\PSoC5/isr_1.c **** * Version 1.70
   4:.\Generated_Source\PSoC5/isr_1.c **** *
   5:.\Generated_Source\PSoC5/isr_1.c **** *  Description:
   6:.\Generated_Source\PSoC5/isr_1.c **** *   API for controlling the state of an interrupt.
   7:.\Generated_Source\PSoC5/isr_1.c **** *
   8:.\Generated_Source\PSoC5/isr_1.c **** *
   9:.\Generated_Source\PSoC5/isr_1.c **** *  Note:
  10:.\Generated_Source\PSoC5/isr_1.c **** *
  11:.\Generated_Source\PSoC5/isr_1.c **** ********************************************************************************
  12:.\Generated_Source\PSoC5/isr_1.c **** * Copyright 2008-2015, Cypress Semiconductor Corporation.  All rights reserved.
  13:.\Generated_Source\PSoC5/isr_1.c **** * You may use this file only in accordance with the license, terms, conditions, 
  14:.\Generated_Source\PSoC5/isr_1.c **** * disclaimers, and limitations in the end user license agreement accompanying 
  15:.\Generated_Source\PSoC5/isr_1.c **** * the software package with which this file was provided.
  16:.\Generated_Source\PSoC5/isr_1.c **** *******************************************************************************/
  17:.\Generated_Source\PSoC5/isr_1.c **** 
  18:.\Generated_Source\PSoC5/isr_1.c **** 
  19:.\Generated_Source\PSoC5/isr_1.c **** #include <cydevice_trm.h>
  20:.\Generated_Source\PSoC5/isr_1.c **** #include <CyLib.h>
  21:.\Generated_Source\PSoC5/isr_1.c **** #include <isr_1.h>
  22:.\Generated_Source\PSoC5/isr_1.c **** #include "cyapicallbacks.h"
  23:.\Generated_Source\PSoC5/isr_1.c **** 
  24:.\Generated_Source\PSoC5/isr_1.c **** #if !defined(isr_1__REMOVED) /* Check for removal by optimization */
  25:.\Generated_Source\PSoC5/isr_1.c **** 
  26:.\Generated_Source\PSoC5/isr_1.c **** /*******************************************************************************
  27:.\Generated_Source\PSoC5/isr_1.c **** *  Place your includes, defines and code here 
  28:.\Generated_Source\PSoC5/isr_1.c **** ********************************************************************************/
  29:.\Generated_Source\PSoC5/isr_1.c **** /* `#START isr_1_intc` */
  30:.\Generated_Source\PSoC5/isr_1.c **** 
  31:.\Generated_Source\PSoC5/isr_1.c **** /* `#END` */
ARM GAS  C:\Users\PIET~1.COU\AppData\Local\Temp\ccAsXtz4.s 			page 2


  32:.\Generated_Source\PSoC5/isr_1.c **** 
  33:.\Generated_Source\PSoC5/isr_1.c **** #ifndef CYINT_IRQ_BASE
  34:.\Generated_Source\PSoC5/isr_1.c **** #define CYINT_IRQ_BASE      16
  35:.\Generated_Source\PSoC5/isr_1.c **** #endif /* CYINT_IRQ_BASE */
  36:.\Generated_Source\PSoC5/isr_1.c **** #ifndef CYINT_VECT_TABLE
  37:.\Generated_Source\PSoC5/isr_1.c **** #define CYINT_VECT_TABLE    ((cyisraddress **) CYREG_NVIC_VECT_OFFSET)
  38:.\Generated_Source\PSoC5/isr_1.c **** #endif /* CYINT_VECT_TABLE */
  39:.\Generated_Source\PSoC5/isr_1.c **** 
  40:.\Generated_Source\PSoC5/isr_1.c **** /* Declared in startup, used to set unused interrupts to. */
  41:.\Generated_Source\PSoC5/isr_1.c **** CY_ISR_PROTO(IntDefaultHandler);
  42:.\Generated_Source\PSoC5/isr_1.c **** 
  43:.\Generated_Source\PSoC5/isr_1.c **** 
  44:.\Generated_Source\PSoC5/isr_1.c **** /*******************************************************************************
  45:.\Generated_Source\PSoC5/isr_1.c **** * Function Name: isr_1_Start
  46:.\Generated_Source\PSoC5/isr_1.c **** ********************************************************************************
  47:.\Generated_Source\PSoC5/isr_1.c **** *
  48:.\Generated_Source\PSoC5/isr_1.c **** * Summary:
  49:.\Generated_Source\PSoC5/isr_1.c **** *  Set up the interrupt and enable it. This function disables the interrupt, 
  50:.\Generated_Source\PSoC5/isr_1.c **** *  sets the default interrupt vector, sets the priority from the value in the
  51:.\Generated_Source\PSoC5/isr_1.c **** *  Design Wide Resources Interrupt Editor, then enables the interrupt to the 
  52:.\Generated_Source\PSoC5/isr_1.c **** *  interrupt controller.
  53:.\Generated_Source\PSoC5/isr_1.c **** *
  54:.\Generated_Source\PSoC5/isr_1.c **** * Parameters:  
  55:.\Generated_Source\PSoC5/isr_1.c **** *   None
  56:.\Generated_Source\PSoC5/isr_1.c **** *
  57:.\Generated_Source\PSoC5/isr_1.c **** * Return:
  58:.\Generated_Source\PSoC5/isr_1.c **** *   None
  59:.\Generated_Source\PSoC5/isr_1.c **** *
  60:.\Generated_Source\PSoC5/isr_1.c **** *******************************************************************************/
  61:.\Generated_Source\PSoC5/isr_1.c **** void isr_1_Start(void)
  62:.\Generated_Source\PSoC5/isr_1.c **** {
  63:.\Generated_Source\PSoC5/isr_1.c ****     /* For all we know the interrupt is active. */
  64:.\Generated_Source\PSoC5/isr_1.c ****     isr_1_Disable();
  65:.\Generated_Source\PSoC5/isr_1.c **** 
  66:.\Generated_Source\PSoC5/isr_1.c ****     /* Set the ISR to point to the isr_1 Interrupt. */
  67:.\Generated_Source\PSoC5/isr_1.c ****     isr_1_SetVector(&isr_1_Interrupt);
  68:.\Generated_Source\PSoC5/isr_1.c **** 
  69:.\Generated_Source\PSoC5/isr_1.c ****     /* Set the priority. */
  70:.\Generated_Source\PSoC5/isr_1.c ****     isr_1_SetPriority((uint8)isr_1_INTC_PRIOR_NUMBER);
  71:.\Generated_Source\PSoC5/isr_1.c **** 
  72:.\Generated_Source\PSoC5/isr_1.c ****     /* Enable it. */
  73:.\Generated_Source\PSoC5/isr_1.c ****     isr_1_Enable();
  74:.\Generated_Source\PSoC5/isr_1.c **** }
  75:.\Generated_Source\PSoC5/isr_1.c **** 
  76:.\Generated_Source\PSoC5/isr_1.c **** 
  77:.\Generated_Source\PSoC5/isr_1.c **** /*******************************************************************************
  78:.\Generated_Source\PSoC5/isr_1.c **** * Function Name: isr_1_StartEx
  79:.\Generated_Source\PSoC5/isr_1.c **** ********************************************************************************
  80:.\Generated_Source\PSoC5/isr_1.c **** *
  81:.\Generated_Source\PSoC5/isr_1.c **** * Summary:
  82:.\Generated_Source\PSoC5/isr_1.c **** *  Sets up the interrupt and enables it. This function disables the interrupt,
  83:.\Generated_Source\PSoC5/isr_1.c **** *  sets the interrupt vector based on the address passed in, sets the priority 
  84:.\Generated_Source\PSoC5/isr_1.c **** *  from the value in the Design Wide Resources Interrupt Editor, then enables 
  85:.\Generated_Source\PSoC5/isr_1.c **** *  the interrupt to the interrupt controller.
  86:.\Generated_Source\PSoC5/isr_1.c **** *  
  87:.\Generated_Source\PSoC5/isr_1.c **** *  When defining ISR functions, the CY_ISR and CY_ISR_PROTO macros should be 
  88:.\Generated_Source\PSoC5/isr_1.c **** *  used to provide consistent definition across compilers:
ARM GAS  C:\Users\PIET~1.COU\AppData\Local\Temp\ccAsXtz4.s 			page 3


  89:.\Generated_Source\PSoC5/isr_1.c **** *  
  90:.\Generated_Source\PSoC5/isr_1.c **** *  Function definition example:
  91:.\Generated_Source\PSoC5/isr_1.c **** *   CY_ISR(MyISR)
  92:.\Generated_Source\PSoC5/isr_1.c **** *   {
  93:.\Generated_Source\PSoC5/isr_1.c **** *   }
  94:.\Generated_Source\PSoC5/isr_1.c **** *   Function prototype example:
  95:.\Generated_Source\PSoC5/isr_1.c **** *   CY_ISR_PROTO(MyISR);
  96:.\Generated_Source\PSoC5/isr_1.c **** *
  97:.\Generated_Source\PSoC5/isr_1.c **** * Parameters:  
  98:.\Generated_Source\PSoC5/isr_1.c **** *   address: Address of the ISR to set in the interrupt vector table.
  99:.\Generated_Source\PSoC5/isr_1.c **** *
 100:.\Generated_Source\PSoC5/isr_1.c **** * Return:
 101:.\Generated_Source\PSoC5/isr_1.c **** *   None
 102:.\Generated_Source\PSoC5/isr_1.c **** *
 103:.\Generated_Source\PSoC5/isr_1.c **** *******************************************************************************/
 104:.\Generated_Source\PSoC5/isr_1.c **** void isr_1_StartEx(cyisraddress address)
 105:.\Generated_Source\PSoC5/isr_1.c **** {
 106:.\Generated_Source\PSoC5/isr_1.c ****     /* For all we know the interrupt is active. */
 107:.\Generated_Source\PSoC5/isr_1.c ****     isr_1_Disable();
 108:.\Generated_Source\PSoC5/isr_1.c **** 
 109:.\Generated_Source\PSoC5/isr_1.c ****     /* Set the ISR to point to the isr_1 Interrupt. */
 110:.\Generated_Source\PSoC5/isr_1.c ****     isr_1_SetVector(address);
 111:.\Generated_Source\PSoC5/isr_1.c **** 
 112:.\Generated_Source\PSoC5/isr_1.c ****     /* Set the priority. */
 113:.\Generated_Source\PSoC5/isr_1.c ****     isr_1_SetPriority((uint8)isr_1_INTC_PRIOR_NUMBER);
 114:.\Generated_Source\PSoC5/isr_1.c **** 
 115:.\Generated_Source\PSoC5/isr_1.c ****     /* Enable it. */
 116:.\Generated_Source\PSoC5/isr_1.c ****     isr_1_Enable();
 117:.\Generated_Source\PSoC5/isr_1.c **** }
 118:.\Generated_Source\PSoC5/isr_1.c **** 
 119:.\Generated_Source\PSoC5/isr_1.c **** 
 120:.\Generated_Source\PSoC5/isr_1.c **** /*******************************************************************************
 121:.\Generated_Source\PSoC5/isr_1.c **** * Function Name: isr_1_Stop
 122:.\Generated_Source\PSoC5/isr_1.c **** ********************************************************************************
 123:.\Generated_Source\PSoC5/isr_1.c **** *
 124:.\Generated_Source\PSoC5/isr_1.c **** * Summary:
 125:.\Generated_Source\PSoC5/isr_1.c **** *   Disables and removes the interrupt.
 126:.\Generated_Source\PSoC5/isr_1.c **** *
 127:.\Generated_Source\PSoC5/isr_1.c **** * Parameters:  
 128:.\Generated_Source\PSoC5/isr_1.c **** *   None
 129:.\Generated_Source\PSoC5/isr_1.c **** *
 130:.\Generated_Source\PSoC5/isr_1.c **** * Return:
 131:.\Generated_Source\PSoC5/isr_1.c **** *   None
 132:.\Generated_Source\PSoC5/isr_1.c **** *
 133:.\Generated_Source\PSoC5/isr_1.c **** *******************************************************************************/
 134:.\Generated_Source\PSoC5/isr_1.c **** void isr_1_Stop(void)
 135:.\Generated_Source\PSoC5/isr_1.c **** {
 136:.\Generated_Source\PSoC5/isr_1.c ****     /* Disable this interrupt. */
 137:.\Generated_Source\PSoC5/isr_1.c ****     isr_1_Disable();
 138:.\Generated_Source\PSoC5/isr_1.c **** 
 139:.\Generated_Source\PSoC5/isr_1.c ****     /* Set the ISR to point to the passive one. */
 140:.\Generated_Source\PSoC5/isr_1.c ****     isr_1_SetVector(&IntDefaultHandler);
 141:.\Generated_Source\PSoC5/isr_1.c **** }
 142:.\Generated_Source\PSoC5/isr_1.c **** 
 143:.\Generated_Source\PSoC5/isr_1.c **** 
 144:.\Generated_Source\PSoC5/isr_1.c **** /*******************************************************************************
 145:.\Generated_Source\PSoC5/isr_1.c **** * Function Name: isr_1_Interrupt
ARM GAS  C:\Users\PIET~1.COU\AppData\Local\Temp\ccAsXtz4.s 			page 4


 146:.\Generated_Source\PSoC5/isr_1.c **** ********************************************************************************
 147:.\Generated_Source\PSoC5/isr_1.c **** *
 148:.\Generated_Source\PSoC5/isr_1.c **** * Summary:
 149:.\Generated_Source\PSoC5/isr_1.c **** *   The default Interrupt Service Routine for isr_1.
 150:.\Generated_Source\PSoC5/isr_1.c **** *
 151:.\Generated_Source\PSoC5/isr_1.c **** *   Add custom code between the coments to keep the next version of this file
 152:.\Generated_Source\PSoC5/isr_1.c **** *   from over writting your code.
 153:.\Generated_Source\PSoC5/isr_1.c **** *
 154:.\Generated_Source\PSoC5/isr_1.c **** * Parameters:  
 155:.\Generated_Source\PSoC5/isr_1.c **** *
 156:.\Generated_Source\PSoC5/isr_1.c **** * Return:
 157:.\Generated_Source\PSoC5/isr_1.c **** *   None
 158:.\Generated_Source\PSoC5/isr_1.c **** *
 159:.\Generated_Source\PSoC5/isr_1.c **** *******************************************************************************/
 160:.\Generated_Source\PSoC5/isr_1.c **** CY_ISR(isr_1_Interrupt)
 161:.\Generated_Source\PSoC5/isr_1.c **** {
  27              		.loc 1 161 0
  28              		.cfi_startproc
  29              		@ args = 0, pretend = 0, frame = 0
  30              		@ frame_needed = 0, uses_anonymous_args = 0
  31 0000 08B5     		push	{r3, lr}
  32              		.cfi_def_cfa_offset 8
  33              		.cfi_offset 3, -8
  34              		.cfi_offset 14, -4
 162:.\Generated_Source\PSoC5/isr_1.c ****     #ifdef isr_1_INTERRUPT_INTERRUPT_CALLBACK
 163:.\Generated_Source\PSoC5/isr_1.c ****         isr_1_Interrupt_InterruptCallback();
 164:.\Generated_Source\PSoC5/isr_1.c ****     #endif /* isr_1_INTERRUPT_INTERRUPT_CALLBACK */ 
 165:.\Generated_Source\PSoC5/isr_1.c **** 
 166:.\Generated_Source\PSoC5/isr_1.c ****     /*  Place your Interrupt code here. */
 167:.\Generated_Source\PSoC5/isr_1.c ****     /* `#START isr_1_Interrupt` */
 168:.\Generated_Source\PSoC5/isr_1.c ****     LEDs_Write (LEDs_Read() ^ 0x3);
  35              		.loc 1 168 0
  36 0002 FFF7FEFF 		bl	LEDs_Read
  37              	.LVL0:
 169:.\Generated_Source\PSoC5/isr_1.c ****     /* `#END` */
 170:.\Generated_Source\PSoC5/isr_1.c **** }
  38              		.loc 1 170 0
  39 0006 BDE80840 		pop	{r3, lr}
  40              		.cfi_restore 14
  41              		.cfi_restore 3
  42              		.cfi_def_cfa_offset 0
 168:.\Generated_Source\PSoC5/isr_1.c ****     /* `#END` */
  43              		.loc 1 168 0
  44 000a 80F00300 		eor	r0, r0, #3
  45 000e C0B2     		uxtb	r0, r0
  46 0010 FFF7FEBF 		b	LEDs_Write
  47              	.LVL1:
  48              		.cfi_endproc
  49              	.LFE66:
  50              		.size	isr_1_Interrupt, .-isr_1_Interrupt
  51              		.section	.text.isr_1_Start,"ax",%progbits
  52              		.align	1
  53              		.global	isr_1_Start
  54              		.thumb
  55              		.thumb_func
  56              		.type	isr_1_Start, %function
  57              	isr_1_Start:
ARM GAS  C:\Users\PIET~1.COU\AppData\Local\Temp\ccAsXtz4.s 			page 5


  58              	.LFB63:
  62:.\Generated_Source\PSoC5/isr_1.c ****     /* For all we know the interrupt is active. */
  59              		.loc 1 62 0
  60              		.cfi_startproc
  61              		@ args = 0, pretend = 0, frame = 0
  62              		@ frame_needed = 0, uses_anonymous_args = 0
  63              		@ link register save eliminated.
  64              	.LBB22:
  65              	.LBB23:
 171:.\Generated_Source\PSoC5/isr_1.c **** 
 172:.\Generated_Source\PSoC5/isr_1.c **** 
 173:.\Generated_Source\PSoC5/isr_1.c **** /*******************************************************************************
 174:.\Generated_Source\PSoC5/isr_1.c **** * Function Name: isr_1_SetVector
 175:.\Generated_Source\PSoC5/isr_1.c **** ********************************************************************************
 176:.\Generated_Source\PSoC5/isr_1.c **** *
 177:.\Generated_Source\PSoC5/isr_1.c **** * Summary:
 178:.\Generated_Source\PSoC5/isr_1.c **** *   Change the ISR vector for the Interrupt. Note calling isr_1_Start
 179:.\Generated_Source\PSoC5/isr_1.c **** *   will override any effect this method would have had. To set the vector 
 180:.\Generated_Source\PSoC5/isr_1.c **** *   before the component has been started use isr_1_StartEx instead.
 181:.\Generated_Source\PSoC5/isr_1.c **** * 
 182:.\Generated_Source\PSoC5/isr_1.c **** *   When defining ISR functions, the CY_ISR and CY_ISR_PROTO macros should be 
 183:.\Generated_Source\PSoC5/isr_1.c **** *   used to provide consistent definition across compilers:
 184:.\Generated_Source\PSoC5/isr_1.c **** *
 185:.\Generated_Source\PSoC5/isr_1.c **** *   Function definition example:
 186:.\Generated_Source\PSoC5/isr_1.c **** *   CY_ISR(MyISR)
 187:.\Generated_Source\PSoC5/isr_1.c **** *   {
 188:.\Generated_Source\PSoC5/isr_1.c **** *   }
 189:.\Generated_Source\PSoC5/isr_1.c **** *
 190:.\Generated_Source\PSoC5/isr_1.c **** *   Function prototype example:
 191:.\Generated_Source\PSoC5/isr_1.c **** *     CY_ISR_PROTO(MyISR);
 192:.\Generated_Source\PSoC5/isr_1.c **** *
 193:.\Generated_Source\PSoC5/isr_1.c **** * Parameters:
 194:.\Generated_Source\PSoC5/isr_1.c **** *   address: Address of the ISR to set in the interrupt vector table.
 195:.\Generated_Source\PSoC5/isr_1.c **** *
 196:.\Generated_Source\PSoC5/isr_1.c **** * Return:
 197:.\Generated_Source\PSoC5/isr_1.c **** *   None
 198:.\Generated_Source\PSoC5/isr_1.c **** *
 199:.\Generated_Source\PSoC5/isr_1.c **** *******************************************************************************/
 200:.\Generated_Source\PSoC5/isr_1.c **** void isr_1_SetVector(cyisraddress address)
 201:.\Generated_Source\PSoC5/isr_1.c **** {
 202:.\Generated_Source\PSoC5/isr_1.c ****     cyisraddress * ramVectorTable;
 203:.\Generated_Source\PSoC5/isr_1.c **** 
 204:.\Generated_Source\PSoC5/isr_1.c ****     ramVectorTable = (cyisraddress *) *CYINT_VECT_TABLE;
 205:.\Generated_Source\PSoC5/isr_1.c **** 
 206:.\Generated_Source\PSoC5/isr_1.c ****     ramVectorTable[CYINT_IRQ_BASE + (uint32)isr_1__INTC_NUMBER] = address;
 207:.\Generated_Source\PSoC5/isr_1.c **** }
 208:.\Generated_Source\PSoC5/isr_1.c **** 
 209:.\Generated_Source\PSoC5/isr_1.c **** 
 210:.\Generated_Source\PSoC5/isr_1.c **** /*******************************************************************************
 211:.\Generated_Source\PSoC5/isr_1.c **** * Function Name: isr_1_GetVector
 212:.\Generated_Source\PSoC5/isr_1.c **** ********************************************************************************
 213:.\Generated_Source\PSoC5/isr_1.c **** *
 214:.\Generated_Source\PSoC5/isr_1.c **** * Summary:
 215:.\Generated_Source\PSoC5/isr_1.c **** *   Gets the "address" of the current ISR vector for the Interrupt.
 216:.\Generated_Source\PSoC5/isr_1.c **** *
 217:.\Generated_Source\PSoC5/isr_1.c **** * Parameters:
 218:.\Generated_Source\PSoC5/isr_1.c **** *   None
ARM GAS  C:\Users\PIET~1.COU\AppData\Local\Temp\ccAsXtz4.s 			page 6


 219:.\Generated_Source\PSoC5/isr_1.c **** *
 220:.\Generated_Source\PSoC5/isr_1.c **** * Return:
 221:.\Generated_Source\PSoC5/isr_1.c **** *   Address of the ISR in the interrupt vector table.
 222:.\Generated_Source\PSoC5/isr_1.c **** *
 223:.\Generated_Source\PSoC5/isr_1.c **** *******************************************************************************/
 224:.\Generated_Source\PSoC5/isr_1.c **** cyisraddress isr_1_GetVector(void)
 225:.\Generated_Source\PSoC5/isr_1.c **** {
 226:.\Generated_Source\PSoC5/isr_1.c ****     cyisraddress * ramVectorTable;
 227:.\Generated_Source\PSoC5/isr_1.c **** 
 228:.\Generated_Source\PSoC5/isr_1.c ****     ramVectorTable = (cyisraddress *) *CYINT_VECT_TABLE;
 229:.\Generated_Source\PSoC5/isr_1.c **** 
 230:.\Generated_Source\PSoC5/isr_1.c ****     return ramVectorTable[CYINT_IRQ_BASE + (uint32)isr_1__INTC_NUMBER];
 231:.\Generated_Source\PSoC5/isr_1.c **** }
 232:.\Generated_Source\PSoC5/isr_1.c **** 
 233:.\Generated_Source\PSoC5/isr_1.c **** 
 234:.\Generated_Source\PSoC5/isr_1.c **** /*******************************************************************************
 235:.\Generated_Source\PSoC5/isr_1.c **** * Function Name: isr_1_SetPriority
 236:.\Generated_Source\PSoC5/isr_1.c **** ********************************************************************************
 237:.\Generated_Source\PSoC5/isr_1.c **** *
 238:.\Generated_Source\PSoC5/isr_1.c **** * Summary:
 239:.\Generated_Source\PSoC5/isr_1.c **** *   Sets the Priority of the Interrupt. 
 240:.\Generated_Source\PSoC5/isr_1.c **** *
 241:.\Generated_Source\PSoC5/isr_1.c **** *   Note calling isr_1_Start or isr_1_StartEx will 
 242:.\Generated_Source\PSoC5/isr_1.c **** *   override any effect this API would have had. This API should only be called
 243:.\Generated_Source\PSoC5/isr_1.c **** *   after isr_1_Start or isr_1_StartEx has been called. 
 244:.\Generated_Source\PSoC5/isr_1.c **** *   To set the initial priority for the component, use the Design-Wide Resources
 245:.\Generated_Source\PSoC5/isr_1.c **** *   Interrupt Editor.
 246:.\Generated_Source\PSoC5/isr_1.c **** *
 247:.\Generated_Source\PSoC5/isr_1.c **** *   Note This API has no effect on Non-maskable interrupt NMI).
 248:.\Generated_Source\PSoC5/isr_1.c **** *
 249:.\Generated_Source\PSoC5/isr_1.c **** * Parameters:
 250:.\Generated_Source\PSoC5/isr_1.c **** *   priority: Priority of the interrupt, 0 being the highest priority
 251:.\Generated_Source\PSoC5/isr_1.c **** *             PSoC 3 and PSoC 5LP: Priority is from 0 to 7.
 252:.\Generated_Source\PSoC5/isr_1.c **** *             PSoC 4: Priority is from 0 to 3.
 253:.\Generated_Source\PSoC5/isr_1.c **** *
 254:.\Generated_Source\PSoC5/isr_1.c **** * Return:
 255:.\Generated_Source\PSoC5/isr_1.c **** *   None
 256:.\Generated_Source\PSoC5/isr_1.c **** *
 257:.\Generated_Source\PSoC5/isr_1.c **** *******************************************************************************/
 258:.\Generated_Source\PSoC5/isr_1.c **** void isr_1_SetPriority(uint8 priority)
 259:.\Generated_Source\PSoC5/isr_1.c **** {
 260:.\Generated_Source\PSoC5/isr_1.c ****     *isr_1_INTC_PRIOR = priority << 5;
 261:.\Generated_Source\PSoC5/isr_1.c **** }
 262:.\Generated_Source\PSoC5/isr_1.c **** 
 263:.\Generated_Source\PSoC5/isr_1.c **** 
 264:.\Generated_Source\PSoC5/isr_1.c **** /*******************************************************************************
 265:.\Generated_Source\PSoC5/isr_1.c **** * Function Name: isr_1_GetPriority
 266:.\Generated_Source\PSoC5/isr_1.c **** ********************************************************************************
 267:.\Generated_Source\PSoC5/isr_1.c **** *
 268:.\Generated_Source\PSoC5/isr_1.c **** * Summary:
 269:.\Generated_Source\PSoC5/isr_1.c **** *   Gets the Priority of the Interrupt.
 270:.\Generated_Source\PSoC5/isr_1.c **** *
 271:.\Generated_Source\PSoC5/isr_1.c **** * Parameters:
 272:.\Generated_Source\PSoC5/isr_1.c **** *   None
 273:.\Generated_Source\PSoC5/isr_1.c **** *
 274:.\Generated_Source\PSoC5/isr_1.c **** * Return:
 275:.\Generated_Source\PSoC5/isr_1.c **** *   Priority of the interrupt, 0 being the highest priority
ARM GAS  C:\Users\PIET~1.COU\AppData\Local\Temp\ccAsXtz4.s 			page 7


 276:.\Generated_Source\PSoC5/isr_1.c **** *    PSoC 3 and PSoC 5LP: Priority is from 0 to 7.
 277:.\Generated_Source\PSoC5/isr_1.c **** *    PSoC 4: Priority is from 0 to 3.
 278:.\Generated_Source\PSoC5/isr_1.c **** *
 279:.\Generated_Source\PSoC5/isr_1.c **** *******************************************************************************/
 280:.\Generated_Source\PSoC5/isr_1.c **** uint8 isr_1_GetPriority(void)
 281:.\Generated_Source\PSoC5/isr_1.c **** {
 282:.\Generated_Source\PSoC5/isr_1.c ****     uint8 priority;
 283:.\Generated_Source\PSoC5/isr_1.c **** 
 284:.\Generated_Source\PSoC5/isr_1.c **** 
 285:.\Generated_Source\PSoC5/isr_1.c ****     priority = *isr_1_INTC_PRIOR >> 5;
 286:.\Generated_Source\PSoC5/isr_1.c **** 
 287:.\Generated_Source\PSoC5/isr_1.c ****     return priority;
 288:.\Generated_Source\PSoC5/isr_1.c **** }
 289:.\Generated_Source\PSoC5/isr_1.c **** 
 290:.\Generated_Source\PSoC5/isr_1.c **** 
 291:.\Generated_Source\PSoC5/isr_1.c **** /*******************************************************************************
 292:.\Generated_Source\PSoC5/isr_1.c **** * Function Name: isr_1_Enable
 293:.\Generated_Source\PSoC5/isr_1.c **** ********************************************************************************
 294:.\Generated_Source\PSoC5/isr_1.c **** *
 295:.\Generated_Source\PSoC5/isr_1.c **** * Summary:
 296:.\Generated_Source\PSoC5/isr_1.c **** *   Enables the interrupt to the interrupt controller. Do not call this function
 297:.\Generated_Source\PSoC5/isr_1.c **** *   unless ISR_Start() has been called or the functionality of the ISR_Start() 
 298:.\Generated_Source\PSoC5/isr_1.c **** *   function, which sets the vector and the priority, has been called.
 299:.\Generated_Source\PSoC5/isr_1.c **** *
 300:.\Generated_Source\PSoC5/isr_1.c **** * Parameters:
 301:.\Generated_Source\PSoC5/isr_1.c **** *   None
 302:.\Generated_Source\PSoC5/isr_1.c **** *
 303:.\Generated_Source\PSoC5/isr_1.c **** * Return:
 304:.\Generated_Source\PSoC5/isr_1.c **** *   None
 305:.\Generated_Source\PSoC5/isr_1.c **** *
 306:.\Generated_Source\PSoC5/isr_1.c **** *******************************************************************************/
 307:.\Generated_Source\PSoC5/isr_1.c **** void isr_1_Enable(void)
 308:.\Generated_Source\PSoC5/isr_1.c **** {
 309:.\Generated_Source\PSoC5/isr_1.c ****     /* Enable the general interrupt. */
 310:.\Generated_Source\PSoC5/isr_1.c ****     *isr_1_INTC_SET_EN = isr_1__INTC_MASK;
 311:.\Generated_Source\PSoC5/isr_1.c **** }
 312:.\Generated_Source\PSoC5/isr_1.c **** 
 313:.\Generated_Source\PSoC5/isr_1.c **** 
 314:.\Generated_Source\PSoC5/isr_1.c **** /*******************************************************************************
 315:.\Generated_Source\PSoC5/isr_1.c **** * Function Name: isr_1_GetState
 316:.\Generated_Source\PSoC5/isr_1.c **** ********************************************************************************
 317:.\Generated_Source\PSoC5/isr_1.c **** *
 318:.\Generated_Source\PSoC5/isr_1.c **** * Summary:
 319:.\Generated_Source\PSoC5/isr_1.c **** *   Gets the state (enabled, disabled) of the Interrupt.
 320:.\Generated_Source\PSoC5/isr_1.c **** *
 321:.\Generated_Source\PSoC5/isr_1.c **** * Parameters:
 322:.\Generated_Source\PSoC5/isr_1.c **** *   None
 323:.\Generated_Source\PSoC5/isr_1.c **** *
 324:.\Generated_Source\PSoC5/isr_1.c **** * Return:
 325:.\Generated_Source\PSoC5/isr_1.c **** *   1 if enabled, 0 if disabled.
 326:.\Generated_Source\PSoC5/isr_1.c **** *
 327:.\Generated_Source\PSoC5/isr_1.c **** *******************************************************************************/
 328:.\Generated_Source\PSoC5/isr_1.c **** uint8 isr_1_GetState(void)
 329:.\Generated_Source\PSoC5/isr_1.c **** {
 330:.\Generated_Source\PSoC5/isr_1.c ****     /* Get the state of the general interrupt. */
 331:.\Generated_Source\PSoC5/isr_1.c ****     return ((*isr_1_INTC_SET_EN & (uint32)isr_1__INTC_MASK) != 0u) ? 1u:0u;
 332:.\Generated_Source\PSoC5/isr_1.c **** }
ARM GAS  C:\Users\PIET~1.COU\AppData\Local\Temp\ccAsXtz4.s 			page 8


 333:.\Generated_Source\PSoC5/isr_1.c **** 
 334:.\Generated_Source\PSoC5/isr_1.c **** 
 335:.\Generated_Source\PSoC5/isr_1.c **** /*******************************************************************************
 336:.\Generated_Source\PSoC5/isr_1.c **** * Function Name: isr_1_Disable
 337:.\Generated_Source\PSoC5/isr_1.c **** ********************************************************************************
 338:.\Generated_Source\PSoC5/isr_1.c **** *
 339:.\Generated_Source\PSoC5/isr_1.c **** * Summary:
 340:.\Generated_Source\PSoC5/isr_1.c **** *   Disables the Interrupt in the interrupt controller.
 341:.\Generated_Source\PSoC5/isr_1.c **** *
 342:.\Generated_Source\PSoC5/isr_1.c **** * Parameters:
 343:.\Generated_Source\PSoC5/isr_1.c **** *   None
 344:.\Generated_Source\PSoC5/isr_1.c **** *
 345:.\Generated_Source\PSoC5/isr_1.c **** * Return:
 346:.\Generated_Source\PSoC5/isr_1.c **** *   None
 347:.\Generated_Source\PSoC5/isr_1.c **** *
 348:.\Generated_Source\PSoC5/isr_1.c **** *******************************************************************************/
 349:.\Generated_Source\PSoC5/isr_1.c **** void isr_1_Disable(void)
 350:.\Generated_Source\PSoC5/isr_1.c **** {
 351:.\Generated_Source\PSoC5/isr_1.c ****     /* Disable the general interrupt. */
 352:.\Generated_Source\PSoC5/isr_1.c ****     *isr_1_INTC_CLR_EN = isr_1__INTC_MASK;
  66              		.loc 1 352 0
  67 0000 074A     		ldr	r2, .L3
  68 0002 0123     		movs	r3, #1
  69 0004 1360     		str	r3, [r2]
  70              	.LVL2:
  71              	.LBE23:
  72              	.LBE22:
  73              	.LBB24:
  74              	.LBB25:
 204:.\Generated_Source\PSoC5/isr_1.c **** 
  75              		.loc 1 204 0
  76 0006 02F68832 		addw	r2, r2, #2952
  77 000a 1268     		ldr	r2, [r2]
  78              	.LVL3:
 206:.\Generated_Source\PSoC5/isr_1.c **** }
  79              		.loc 1 206 0
  80 000c 0549     		ldr	r1, .L3+4
  81 000e 1164     		str	r1, [r2, #64]
  82              	.LVL4:
  83              	.LBE25:
  84              	.LBE24:
  85              	.LBB26:
  86              	.LBB27:
 260:.\Generated_Source\PSoC5/isr_1.c **** }
  87              		.loc 1 260 0
  88 0010 054A     		ldr	r2, .L3+8
  89              	.LVL5:
  90 0012 4021     		movs	r1, #64
  91 0014 1170     		strb	r1, [r2]
  92              	.LBE27:
  93              	.LBE26:
  94              	.LBB28:
  95              	.LBB29:
 310:.\Generated_Source\PSoC5/isr_1.c **** }
  96              		.loc 1 310 0
  97 0016 A2F54072 		sub	r2, r2, #768
  98 001a 1360     		str	r3, [r2]
ARM GAS  C:\Users\PIET~1.COU\AppData\Local\Temp\ccAsXtz4.s 			page 9


  99 001c 7047     		bx	lr
 100              	.L4:
 101 001e 00BF     		.align	2
 102              	.L3:
 103 0020 80E100E0 		.word	-536813184
 104 0024 00000000 		.word	isr_1_Interrupt
 105 0028 00E400E0 		.word	-536812544
 106              	.LBE29:
 107              	.LBE28:
 108              		.cfi_endproc
 109              	.LFE63:
 110              		.size	isr_1_Start, .-isr_1_Start
 111              		.section	.text.isr_1_StartEx,"ax",%progbits
 112              		.align	1
 113              		.global	isr_1_StartEx
 114              		.thumb
 115              		.thumb_func
 116              		.type	isr_1_StartEx, %function
 117              	isr_1_StartEx:
 118              	.LFB64:
 105:.\Generated_Source\PSoC5/isr_1.c ****     /* For all we know the interrupt is active. */
 119              		.loc 1 105 0
 120              		.cfi_startproc
 121              		@ args = 0, pretend = 0, frame = 0
 122              		@ frame_needed = 0, uses_anonymous_args = 0
 123              		@ link register save eliminated.
 124              	.LVL6:
 125              	.LBB30:
 126              	.LBB31:
 127              		.loc 1 352 0
 128 0000 064A     		ldr	r2, .L6
 129 0002 0123     		movs	r3, #1
 130 0004 1360     		str	r3, [r2]
 131              	.LVL7:
 132              	.LBE31:
 133              	.LBE30:
 134              	.LBB32:
 135              	.LBB33:
 204:.\Generated_Source\PSoC5/isr_1.c **** 
 136              		.loc 1 204 0
 137 0006 02F68832 		addw	r2, r2, #2952
 138 000a 1268     		ldr	r2, [r2]
 139              	.LVL8:
 140              	.LBE33:
 141              	.LBE32:
 142              	.LBB35:
 143              	.LBB36:
 260:.\Generated_Source\PSoC5/isr_1.c **** }
 144              		.loc 1 260 0
 145 000c 4021     		movs	r1, #64
 146              	.LBE36:
 147              	.LBE35:
 148              	.LBB38:
 149              	.LBB34:
 206:.\Generated_Source\PSoC5/isr_1.c **** }
 150              		.loc 1 206 0
 151 000e 1064     		str	r0, [r2, #64]
ARM GAS  C:\Users\PIET~1.COU\AppData\Local\Temp\ccAsXtz4.s 			page 10


 152              	.LVL9:
 153              	.LBE34:
 154              	.LBE38:
 155              	.LBB39:
 156              	.LBB37:
 260:.\Generated_Source\PSoC5/isr_1.c **** }
 157              		.loc 1 260 0
 158 0010 034A     		ldr	r2, .L6+4
 159              	.LVL10:
 160 0012 1170     		strb	r1, [r2]
 161              	.LBE37:
 162              	.LBE39:
 163              	.LBB40:
 164              	.LBB41:
 310:.\Generated_Source\PSoC5/isr_1.c **** }
 165              		.loc 1 310 0
 166 0014 A2F54072 		sub	r2, r2, #768
 167 0018 1360     		str	r3, [r2]
 168 001a 7047     		bx	lr
 169              	.L7:
 170              		.align	2
 171              	.L6:
 172 001c 80E100E0 		.word	-536813184
 173 0020 00E400E0 		.word	-536812544
 174              	.LBE41:
 175              	.LBE40:
 176              		.cfi_endproc
 177              	.LFE64:
 178              		.size	isr_1_StartEx, .-isr_1_StartEx
 179              		.section	.text.isr_1_Stop,"ax",%progbits
 180              		.align	1
 181              		.global	isr_1_Stop
 182              		.thumb
 183              		.thumb_func
 184              		.type	isr_1_Stop, %function
 185              	isr_1_Stop:
 186              	.LFB65:
 135:.\Generated_Source\PSoC5/isr_1.c ****     /* Disable this interrupt. */
 187              		.loc 1 135 0
 188              		.cfi_startproc
 189              		@ args = 0, pretend = 0, frame = 0
 190              		@ frame_needed = 0, uses_anonymous_args = 0
 191              		@ link register save eliminated.
 192              	.LBB42:
 193              	.LBB43:
 194              		.loc 1 352 0
 195 0000 044B     		ldr	r3, .L9
 196 0002 0122     		movs	r2, #1
 197 0004 1A60     		str	r2, [r3]
 198              	.LVL11:
 199              	.LBE43:
 200              	.LBE42:
 201              	.LBB44:
 202              	.LBB45:
 204:.\Generated_Source\PSoC5/isr_1.c **** 
 203              		.loc 1 204 0
 204 0006 03F68833 		addw	r3, r3, #2952
ARM GAS  C:\Users\PIET~1.COU\AppData\Local\Temp\ccAsXtz4.s 			page 11


 205 000a 1B68     		ldr	r3, [r3]
 206              	.LVL12:
 206:.\Generated_Source\PSoC5/isr_1.c **** }
 207              		.loc 1 206 0
 208 000c 024A     		ldr	r2, .L9+4
 209 000e 1A64     		str	r2, [r3, #64]
 210 0010 7047     		bx	lr
 211              	.L10:
 212 0012 00BF     		.align	2
 213              	.L9:
 214 0014 80E100E0 		.word	-536813184
 215 0018 00000000 		.word	IntDefaultHandler
 216              	.LBE45:
 217              	.LBE44:
 218              		.cfi_endproc
 219              	.LFE65:
 220              		.size	isr_1_Stop, .-isr_1_Stop
 221              		.section	.text.isr_1_SetVector,"ax",%progbits
 222              		.align	1
 223              		.global	isr_1_SetVector
 224              		.thumb
 225              		.thumb_func
 226              		.type	isr_1_SetVector, %function
 227              	isr_1_SetVector:
 228              	.LFB67:
 201:.\Generated_Source\PSoC5/isr_1.c ****     cyisraddress * ramVectorTable;
 229              		.loc 1 201 0
 230              		.cfi_startproc
 231              		@ args = 0, pretend = 0, frame = 0
 232              		@ frame_needed = 0, uses_anonymous_args = 0
 233              		@ link register save eliminated.
 234              	.LVL13:
 204:.\Generated_Source\PSoC5/isr_1.c **** 
 235              		.loc 1 204 0
 236 0000 014B     		ldr	r3, .L12
 237 0002 1B68     		ldr	r3, [r3]
 238              	.LVL14:
 206:.\Generated_Source\PSoC5/isr_1.c **** }
 239              		.loc 1 206 0
 240 0004 1864     		str	r0, [r3, #64]
 241 0006 7047     		bx	lr
 242              	.L13:
 243              		.align	2
 244              	.L12:
 245 0008 08ED00E0 		.word	-536810232
 246              		.cfi_endproc
 247              	.LFE67:
 248              		.size	isr_1_SetVector, .-isr_1_SetVector
 249              		.section	.text.isr_1_GetVector,"ax",%progbits
 250              		.align	1
 251              		.global	isr_1_GetVector
 252              		.thumb
 253              		.thumb_func
 254              		.type	isr_1_GetVector, %function
 255              	isr_1_GetVector:
 256              	.LFB68:
 225:.\Generated_Source\PSoC5/isr_1.c ****     cyisraddress * ramVectorTable;
ARM GAS  C:\Users\PIET~1.COU\AppData\Local\Temp\ccAsXtz4.s 			page 12


 257              		.loc 1 225 0
 258              		.cfi_startproc
 259              		@ args = 0, pretend = 0, frame = 0
 260              		@ frame_needed = 0, uses_anonymous_args = 0
 261              		@ link register save eliminated.
 262              	.LVL15:
 228:.\Generated_Source\PSoC5/isr_1.c **** 
 263              		.loc 1 228 0
 264 0000 014B     		ldr	r3, .L15
 265              	.LVL16:
 230:.\Generated_Source\PSoC5/isr_1.c **** }
 266              		.loc 1 230 0
 267 0002 1B68     		ldr	r3, [r3]
 268              	.LVL17:
 231:.\Generated_Source\PSoC5/isr_1.c **** 
 269              		.loc 1 231 0
 270 0004 186C     		ldr	r0, [r3, #64]
 271 0006 7047     		bx	lr
 272              	.L16:
 273              		.align	2
 274              	.L15:
 275 0008 08ED00E0 		.word	-536810232
 276              		.cfi_endproc
 277              	.LFE68:
 278              		.size	isr_1_GetVector, .-isr_1_GetVector
 279              		.section	.text.isr_1_SetPriority,"ax",%progbits
 280              		.align	1
 281              		.global	isr_1_SetPriority
 282              		.thumb
 283              		.thumb_func
 284              		.type	isr_1_SetPriority, %function
 285              	isr_1_SetPriority:
 286              	.LFB69:
 259:.\Generated_Source\PSoC5/isr_1.c ****     *isr_1_INTC_PRIOR = priority << 5;
 287              		.loc 1 259 0
 288              		.cfi_startproc
 289              		@ args = 0, pretend = 0, frame = 0
 290              		@ frame_needed = 0, uses_anonymous_args = 0
 291              		@ link register save eliminated.
 292              	.LVL18:
 260:.\Generated_Source\PSoC5/isr_1.c **** }
 293              		.loc 1 260 0
 294 0000 4001     		lsls	r0, r0, #5
 295              	.LVL19:
 296 0002 024B     		ldr	r3, .L18
 297 0004 C0B2     		uxtb	r0, r0
 298 0006 1870     		strb	r0, [r3]
 299 0008 7047     		bx	lr
 300              	.L19:
 301 000a 00BF     		.align	2
 302              	.L18:
 303 000c 00E400E0 		.word	-536812544
 304              		.cfi_endproc
 305              	.LFE69:
 306              		.size	isr_1_SetPriority, .-isr_1_SetPriority
 307              		.section	.text.isr_1_GetPriority,"ax",%progbits
 308              		.align	1
ARM GAS  C:\Users\PIET~1.COU\AppData\Local\Temp\ccAsXtz4.s 			page 13


 309              		.global	isr_1_GetPriority
 310              		.thumb
 311              		.thumb_func
 312              		.type	isr_1_GetPriority, %function
 313              	isr_1_GetPriority:
 314              	.LFB70:
 281:.\Generated_Source\PSoC5/isr_1.c ****     uint8 priority;
 315              		.loc 1 281 0
 316              		.cfi_startproc
 317              		@ args = 0, pretend = 0, frame = 0
 318              		@ frame_needed = 0, uses_anonymous_args = 0
 319              		@ link register save eliminated.
 285:.\Generated_Source\PSoC5/isr_1.c **** 
 320              		.loc 1 285 0
 321 0000 014B     		ldr	r3, .L21
 322 0002 1878     		ldrb	r0, [r3]	@ zero_extendqisi2
 323              	.LVL20:
 288:.\Generated_Source\PSoC5/isr_1.c **** 
 324              		.loc 1 288 0
 325 0004 4009     		lsrs	r0, r0, #5
 326              	.LVL21:
 327 0006 7047     		bx	lr
 328              	.L22:
 329              		.align	2
 330              	.L21:
 331 0008 00E400E0 		.word	-536812544
 332              		.cfi_endproc
 333              	.LFE70:
 334              		.size	isr_1_GetPriority, .-isr_1_GetPriority
 335              		.section	.text.isr_1_Enable,"ax",%progbits
 336              		.align	1
 337              		.global	isr_1_Enable
 338              		.thumb
 339              		.thumb_func
 340              		.type	isr_1_Enable, %function
 341              	isr_1_Enable:
 342              	.LFB71:
 308:.\Generated_Source\PSoC5/isr_1.c ****     /* Enable the general interrupt. */
 343              		.loc 1 308 0
 344              		.cfi_startproc
 345              		@ args = 0, pretend = 0, frame = 0
 346              		@ frame_needed = 0, uses_anonymous_args = 0
 347              		@ link register save eliminated.
 310:.\Generated_Source\PSoC5/isr_1.c **** }
 348              		.loc 1 310 0
 349 0000 014B     		ldr	r3, .L24
 350 0002 0122     		movs	r2, #1
 351 0004 1A60     		str	r2, [r3]
 352 0006 7047     		bx	lr
 353              	.L25:
 354              		.align	2
 355              	.L24:
 356 0008 00E100E0 		.word	-536813312
 357              		.cfi_endproc
 358              	.LFE71:
 359              		.size	isr_1_Enable, .-isr_1_Enable
 360              		.section	.text.isr_1_GetState,"ax",%progbits
ARM GAS  C:\Users\PIET~1.COU\AppData\Local\Temp\ccAsXtz4.s 			page 14


 361              		.align	1
 362              		.global	isr_1_GetState
 363              		.thumb
 364              		.thumb_func
 365              		.type	isr_1_GetState, %function
 366              	isr_1_GetState:
 367              	.LFB72:
 329:.\Generated_Source\PSoC5/isr_1.c ****     /* Get the state of the general interrupt. */
 368              		.loc 1 329 0
 369              		.cfi_startproc
 370              		@ args = 0, pretend = 0, frame = 0
 371              		@ frame_needed = 0, uses_anonymous_args = 0
 372              		@ link register save eliminated.
 331:.\Generated_Source\PSoC5/isr_1.c **** }
 373              		.loc 1 331 0
 374 0000 024B     		ldr	r3, .L27
 375 0002 1868     		ldr	r0, [r3]
 332:.\Generated_Source\PSoC5/isr_1.c **** 
 376              		.loc 1 332 0
 377 0004 00F00100 		and	r0, r0, #1
 378 0008 7047     		bx	lr
 379              	.L28:
 380 000a 00BF     		.align	2
 381              	.L27:
 382 000c 00E100E0 		.word	-536813312
 383              		.cfi_endproc
 384              	.LFE72:
 385              		.size	isr_1_GetState, .-isr_1_GetState
 386              		.section	.text.isr_1_Disable,"ax",%progbits
 387              		.align	1
 388              		.global	isr_1_Disable
 389              		.thumb
 390              		.thumb_func
 391              		.type	isr_1_Disable, %function
 392              	isr_1_Disable:
 393              	.LFB73:
 350:.\Generated_Source\PSoC5/isr_1.c ****     /* Disable the general interrupt. */
 394              		.loc 1 350 0
 395              		.cfi_startproc
 396              		@ args = 0, pretend = 0, frame = 0
 397              		@ frame_needed = 0, uses_anonymous_args = 0
 398              		@ link register save eliminated.
 399              		.loc 1 352 0
 400 0000 014B     		ldr	r3, .L30
 401 0002 0122     		movs	r2, #1
 402 0004 1A60     		str	r2, [r3]
 403 0006 7047     		bx	lr
 404              	.L31:
 405              		.align	2
 406              	.L30:
 407 0008 80E100E0 		.word	-536813184
 408              		.cfi_endproc
 409              	.LFE73:
 410              		.size	isr_1_Disable, .-isr_1_Disable
 411              		.section	.text.isr_1_SetPending,"ax",%progbits
 412              		.align	1
 413              		.global	isr_1_SetPending
ARM GAS  C:\Users\PIET~1.COU\AppData\Local\Temp\ccAsXtz4.s 			page 15


 414              		.thumb
 415              		.thumb_func
 416              		.type	isr_1_SetPending, %function
 417              	isr_1_SetPending:
 418              	.LFB74:
 353:.\Generated_Source\PSoC5/isr_1.c **** }
 354:.\Generated_Source\PSoC5/isr_1.c **** 
 355:.\Generated_Source\PSoC5/isr_1.c **** 
 356:.\Generated_Source\PSoC5/isr_1.c **** /*******************************************************************************
 357:.\Generated_Source\PSoC5/isr_1.c **** * Function Name: isr_1_SetPending
 358:.\Generated_Source\PSoC5/isr_1.c **** ********************************************************************************
 359:.\Generated_Source\PSoC5/isr_1.c **** *
 360:.\Generated_Source\PSoC5/isr_1.c **** * Summary:
 361:.\Generated_Source\PSoC5/isr_1.c **** *   Causes the Interrupt to enter the pending state, a software method of
 362:.\Generated_Source\PSoC5/isr_1.c **** *   generating the interrupt.
 363:.\Generated_Source\PSoC5/isr_1.c **** *
 364:.\Generated_Source\PSoC5/isr_1.c **** * Parameters:
 365:.\Generated_Source\PSoC5/isr_1.c **** *   None
 366:.\Generated_Source\PSoC5/isr_1.c **** *
 367:.\Generated_Source\PSoC5/isr_1.c **** * Return:
 368:.\Generated_Source\PSoC5/isr_1.c **** *   None
 369:.\Generated_Source\PSoC5/isr_1.c **** *
 370:.\Generated_Source\PSoC5/isr_1.c **** * Side Effects:
 371:.\Generated_Source\PSoC5/isr_1.c **** *   If interrupts are enabled and the interrupt is set up properly, the ISR is
 372:.\Generated_Source\PSoC5/isr_1.c **** *   entered (depending on the priority of this interrupt and other pending 
 373:.\Generated_Source\PSoC5/isr_1.c **** *   interrupts).
 374:.\Generated_Source\PSoC5/isr_1.c **** *
 375:.\Generated_Source\PSoC5/isr_1.c **** *******************************************************************************/
 376:.\Generated_Source\PSoC5/isr_1.c **** void isr_1_SetPending(void)
 377:.\Generated_Source\PSoC5/isr_1.c **** {
 419              		.loc 1 377 0
 420              		.cfi_startproc
 421              		@ args = 0, pretend = 0, frame = 0
 422              		@ frame_needed = 0, uses_anonymous_args = 0
 423              		@ link register save eliminated.
 378:.\Generated_Source\PSoC5/isr_1.c ****     *isr_1_INTC_SET_PD = isr_1__INTC_MASK;
 424              		.loc 1 378 0
 425 0000 014B     		ldr	r3, .L33
 426 0002 0122     		movs	r2, #1
 427 0004 1A60     		str	r2, [r3]
 428 0006 7047     		bx	lr
 429              	.L34:
 430              		.align	2
 431              	.L33:
 432 0008 00E200E0 		.word	-536813056
 433              		.cfi_endproc
 434              	.LFE74:
 435              		.size	isr_1_SetPending, .-isr_1_SetPending
 436              		.section	.text.isr_1_ClearPending,"ax",%progbits
 437              		.align	1
 438              		.global	isr_1_ClearPending
 439              		.thumb
 440              		.thumb_func
 441              		.type	isr_1_ClearPending, %function
 442              	isr_1_ClearPending:
 443              	.LFB75:
 379:.\Generated_Source\PSoC5/isr_1.c **** }
ARM GAS  C:\Users\PIET~1.COU\AppData\Local\Temp\ccAsXtz4.s 			page 16


 380:.\Generated_Source\PSoC5/isr_1.c **** 
 381:.\Generated_Source\PSoC5/isr_1.c **** 
 382:.\Generated_Source\PSoC5/isr_1.c **** /*******************************************************************************
 383:.\Generated_Source\PSoC5/isr_1.c **** * Function Name: isr_1_ClearPending
 384:.\Generated_Source\PSoC5/isr_1.c **** ********************************************************************************
 385:.\Generated_Source\PSoC5/isr_1.c **** *
 386:.\Generated_Source\PSoC5/isr_1.c **** * Summary:
 387:.\Generated_Source\PSoC5/isr_1.c **** *   Clears a pending interrupt in the interrupt controller.
 388:.\Generated_Source\PSoC5/isr_1.c **** *
 389:.\Generated_Source\PSoC5/isr_1.c **** *   Note Some interrupt sources are clear-on-read and require the block 
 390:.\Generated_Source\PSoC5/isr_1.c **** *   interrupt/status register to be read/cleared with the appropriate block API 
 391:.\Generated_Source\PSoC5/isr_1.c **** *   (GPIO, UART, and so on). Otherwise the ISR will continue to remain in 
 392:.\Generated_Source\PSoC5/isr_1.c **** *   pending state even though the interrupt itself is cleared using this API.
 393:.\Generated_Source\PSoC5/isr_1.c **** *
 394:.\Generated_Source\PSoC5/isr_1.c **** * Parameters:
 395:.\Generated_Source\PSoC5/isr_1.c **** *   None
 396:.\Generated_Source\PSoC5/isr_1.c **** *
 397:.\Generated_Source\PSoC5/isr_1.c **** * Return:
 398:.\Generated_Source\PSoC5/isr_1.c **** *   None
 399:.\Generated_Source\PSoC5/isr_1.c **** *
 400:.\Generated_Source\PSoC5/isr_1.c **** *******************************************************************************/
 401:.\Generated_Source\PSoC5/isr_1.c **** void isr_1_ClearPending(void)
 402:.\Generated_Source\PSoC5/isr_1.c **** {
 444              		.loc 1 402 0
 445              		.cfi_startproc
 446              		@ args = 0, pretend = 0, frame = 0
 447              		@ frame_needed = 0, uses_anonymous_args = 0
 448              		@ link register save eliminated.
 403:.\Generated_Source\PSoC5/isr_1.c ****     *isr_1_INTC_CLR_PD = isr_1__INTC_MASK;
 449              		.loc 1 403 0
 450 0000 014B     		ldr	r3, .L36
 451 0002 0122     		movs	r2, #1
 452 0004 1A60     		str	r2, [r3]
 453 0006 7047     		bx	lr
 454              	.L37:
 455              		.align	2
 456              	.L36:
 457 0008 80E200E0 		.word	-536812928
 458              		.cfi_endproc
 459              	.LFE75:
 460              		.size	isr_1_ClearPending, .-isr_1_ClearPending
 461              		.text
 462              	.Letext0:
 463              		.file 2 "c:\\program files (x86)\\cypress\\psoc creator\\3.3\\psoc creator\\import\\gnu\\arm\\4.9.
 464              		.file 3 "c:\\program files (x86)\\cypress\\psoc creator\\3.3\\psoc creator\\import\\gnu\\arm\\4.9.
 465              		.file 4 "Generated_Source\\PSoC5/cytypes.h"
 466              		.file 5 "Generated_Source\\PSoC5/core_cm3.h"
 467              		.file 6 "Generated_Source\\PSoC5/LEDs.h"