ARM GAS  C:\Users\PIET~1.COU\AppData\Local\Temp\ccZqKeev.s 			page 1


   1              		.syntax unified
   2              		.cpu cortex-m3
   3              		.fpu softvfp
   4              		.eabi_attribute 20, 1
   5              		.eabi_attribute 21, 1
   6              		.eabi_attribute 23, 3
   7              		.eabi_attribute 24, 1
   8              		.eabi_attribute 25, 1
   9              		.eabi_attribute 26, 1
  10              		.eabi_attribute 30, 4
  11              		.eabi_attribute 34, 1
  12              		.eabi_attribute 18, 4
  13              		.thumb
  14              		.file	"main.c"
  15              		.text
  16              	.Ltext0:
  17              		.cfi_sections	.debug_frame
  18              		.section	.text.sampleInt,"ax",%progbits
  19              		.align	1
  20              		.global	sampleInt
  21              		.thumb
  22              		.thumb_func
  23              		.type	sampleInt, %function
  24              	sampleInt:
  25              	.LFB63:
  26              		.file 1 ".\\main.c"
   1:.\main.c      **** /*******************************************************************************
   2:.\main.c      **** * File Name: main.c
   3:.\main.c      **** *
   4:.\main.c      **** * Version: 2.0
   5:.\main.c      **** *
   6:.\main.c      **** * Description:
   7:.\main.c      **** *  This is the source code for the example project of the Inter-IC Sound Bus
   8:.\main.c      **** * (I2S) component.
   9:.\main.c      **** *
  10:.\main.c      **** *  Parameters used:
  11:.\main.c      **** *   Direction:          Tx and Rx
  12:.\main.c      **** *   WordSelect:         64 bits
  13:.\main.c      **** *   DataBits:           16 bits
  14:.\main.c      **** *   DataInterleaving:   Interleaved
  15:.\main.c      **** *   DMA Request:        Tx and Rx
  16:.\main.c      **** *   Rx clip detection:  Enabled
  17:.\main.c      **** *
  18:.\main.c      **** *  I2S data transfers with a loopback. Tx data is sent from the memory to
  19:.\main.c      **** *  the Tx FIFO using TxDMA. The data is transmitted on the Tx direction and
  20:.\main.c      **** *  is received on the Rx direction.
  21:.\main.c      **** *  RxDMA transfers the data from Rx FIFO to the SRAM buffer.
  22:.\main.c      **** *  Received data is  displayed on the LCD. 
  23:.\main.c      **** *  Pressing SW1 on the DVK increments the value of the first element in the
  24:.\main.c      **** *  transmit buffer. If the value crosses the negative and positive clipping
  25:.\main.c      **** *  thresholds, the LED1 is turned on.
  26:.\main.c      **** *
  27:.\main.c      **** ********************************************************************************
  28:.\main.c      **** * Copyright 2012-2014, Cypress Semiconductor Corporation. All rights reserved.
  29:.\main.c      **** * This software is owned by Cypress Semiconductor Corporation and is protected
  30:.\main.c      **** * by and subject to worldwide patent and copyright laws and treaties.
  31:.\main.c      **** * Therefore, you may use this software only as provided in the license agreement
ARM GAS  C:\Users\PIET~1.COU\AppData\Local\Temp\ccZqKeev.s 			page 2


  32:.\main.c      **** * accompanying the software package from which you obtained this software.
  33:.\main.c      **** * CYPRESS AND ITS SUPPLIERS MAKE NO WARRANTY OF ANY KIND, EXPRESS OR IMPLIED,
  34:.\main.c      **** * WITH REGARD TO THIS SOFTWARE, INCLUDING, BUT NOT LIMITED TO, NONINFRINGEMENT,
  35:.\main.c      **** * IMPLIED WARRANTIES OF MERCHANTABILITY AND FITNESS FOR A PARTICULAR PURPOSE.
  36:.\main.c      **** *******************************************************************************/
  37:.\main.c      **** 
  38:.\main.c      **** #include <project.h>
  39:.\main.c      **** 
  40:.\main.c      **** #define BUFFER_SIZE                 (4u)
  41:.\main.c      **** #define LINKS                       0
  42:.\main.c      **** #define RECHTS                      1
  43:.\main.c      **** 
  44:.\main.c      **** /* DMA Configuration for RxDMA */
  45:.\main.c      **** #define RxDMA_BYTES_PER_BURST       (1u)
  46:.\main.c      **** #define RxDMA_REQUEST_PER_BURST     (1u)
  47:.\main.c      **** #define RxDMA_SRC_BASE              (CYDEV_PERIPH_BASE)
  48:.\main.c      **** #define RxDMA_DST_BASE              (CYDEV_SRAM_BASE)
  49:.\main.c      **** 
  50:.\main.c      **** /* DMA Configuration for TxDMA */
  51:.\main.c      **** #define TxDMA_BYTES_PER_BURST       (1u)
  52:.\main.c      **** #define TxDMA_REQUEST_PER_BURST     (1u)
  53:.\main.c      **** #define TxDMA_SRC_BASE              (CYDEV_SRAM_BASE)
  54:.\main.c      **** #define TxDMA_DST_BASE              (CYDEV_PERIPH_BASE)
  55:.\main.c      **** 
  56:.\main.c      **** /* Function prototypes */
  57:.\main.c      **** static void DmaRxConfiguration(void);
  58:.\main.c      **** static void DmaTxConfiguration(void);
  59:.\main.c      **** static void DisplayUpdate(void);
  60:.\main.c      **** 
  61:.\main.c      **** /* Variable declarations for RxDMA and TxDMA */
  62:.\main.c      **** static uint8 rxDmaChan;
  63:.\main.c      **** static uint8 rxDmaTd[1u];
  64:.\main.c      **** static uint8 txDmaChan;
  65:.\main.c      **** static uint8 txDmaTd[1u];
  66:.\main.c      **** 
  67:.\main.c      **** /* Receive buffer */
  68:.\main.c      **** //static uint8 rxBuff[BUFFER_SIZE];
  69:.\main.c      **** static int16 rxBuff[BUFFER_SIZE/2];
  70:.\main.c      **** static int sampleIn[2];
  71:.\main.c      **** 
  72:.\main.c      **** /* Data to be transmitted by Tx */
  73:.\main.c      **** static int16 txBuff[BUFFER_SIZE];
  74:.\main.c      **** static int sampleUit[2];
  75:.\main.c      **** 
  76:.\main.c      **** CY_ISR(sampleInt) {
  27              		.loc 1 76 0
  28              		.cfi_startproc
  29              		@ args = 0, pretend = 0, frame = 0
  30              		@ frame_needed = 0, uses_anonymous_args = 0
  31 0000 08B5     		push	{r3, lr}
  32              		.cfi_def_cfa_offset 8
  33              		.cfi_offset 3, -8
  34              		.cfi_offset 14, -4
  77:.\main.c      ****     LEDs_Write (LEDs_Read() | 0x1);
  35              		.loc 1 77 0
  36 0002 FFF7FEFF 		bl	LEDs_Read
  37              	.LVL0:
ARM GAS  C:\Users\PIET~1.COU\AppData\Local\Temp\ccZqKeev.s 			page 3


  38 0006 40F00100 		orr	r0, r0, #1
  39 000a C0B2     		uxtb	r0, r0
  40 000c FFF7FEFF 		bl	LEDs_Write
  41              	.LVL1:
  78:.\main.c      ****     txBuff[LINKS] = sampleUit[LINKS];
  42              		.loc 1 78 0
  43 0010 0A4B     		ldr	r3, .L2
  44 0012 9A68     		ldr	r2, [r3, #8]
  79:.\main.c      ****     txBuff[RECHTS] = sampleUit[RECHTS];
  80:.\main.c      **** 
  81:.\main.c      ****     sampleIn[LINKS] = (int)rxBuff[LINKS];
  45              		.loc 1 81 0
  46 0014 B3F91010 		ldrsh	r1, [r3, #16]
  78:.\main.c      ****     txBuff[LINKS] = sampleUit[LINKS];
  47              		.loc 1 78 0
  48 0018 1A80     		strh	r2, [r3]	@ movhi
  79:.\main.c      ****     txBuff[RECHTS] = sampleUit[RECHTS];
  49              		.loc 1 79 0
  50 001a DA68     		ldr	r2, [r3, #12]
  51              		.loc 1 81 0
  52 001c 5961     		str	r1, [r3, #20]
  79:.\main.c      ****     txBuff[RECHTS] = sampleUit[RECHTS];
  53              		.loc 1 79 0
  54 001e 5A80     		strh	r2, [r3, #2]	@ movhi
  82:.\main.c      ****     sampleIn[RECHTS] = (int)rxBuff[RECHTS];
  55              		.loc 1 82 0
  56 0020 B3F91220 		ldrsh	r2, [r3, #18]
  83:.\main.c      ****     sampleUit[LINKS] = sampleIn[LINKS];
  57              		.loc 1 83 0
  58 0024 9960     		str	r1, [r3, #8]
  82:.\main.c      ****     sampleIn[RECHTS] = (int)rxBuff[RECHTS];
  59              		.loc 1 82 0
  60 0026 9A61     		str	r2, [r3, #24]
  84:.\main.c      ****     sampleUit[RECHTS] = sampleIn[RECHTS];
  61              		.loc 1 84 0
  62 0028 DA60     		str	r2, [r3, #12]
  85:.\main.c      ****     LEDs_Write (LEDs_Read() & 0x2);
  63              		.loc 1 85 0
  64 002a FFF7FEFF 		bl	LEDs_Read
  65              	.LVL2:
  86:.\main.c      ****     }
  66              		.loc 1 86 0
  67 002e BDE80840 		pop	{r3, lr}
  68              		.cfi_restore 14
  69              		.cfi_restore 3
  70              		.cfi_def_cfa_offset 0
  85:.\main.c      ****     LEDs_Write (LEDs_Read() & 0x2);
  71              		.loc 1 85 0
  72 0032 00F00200 		and	r0, r0, #2
  73 0036 FFF7FEBF 		b	LEDs_Write
  74              	.LVL3:
  75              	.L3:
  76 003a 00BF     		.align	2
  77              	.L2:
  78 003c 00000000 		.word	.LANCHOR0
  79              		.cfi_endproc
  80              	.LFE63:
ARM GAS  C:\Users\PIET~1.COU\AppData\Local\Temp\ccZqKeev.s 			page 4


  81              		.size	sampleInt, .-sampleInt
  82              		.section	.text.startup.main,"ax",%progbits
  83              		.align	1
  84              		.global	main
  85              		.thumb
  86              		.thumb_func
  87              		.type	main, %function
  88              	main:
  89              	.LFB64:
  87:.\main.c      **** 
  88:.\main.c      **** /*******************************************************************************
  89:.\main.c      **** * Function Name: main
  90:.\main.c      **** ********************************************************************************
  91:.\main.c      **** *
  92:.\main.c      **** * Summary:
  93:.\main.c      **** *  The main function performs the following tasks:
  94:.\main.c      **** *   1. Starts all components
  95:.\main.c      **** *   2. Configures the DMA transfer for the Rx and Tx directions
  96:.\main.c      **** *   3. Enables Rx and Tx directions
  97:.\main.c      **** *   4. Scans for a button event and increment the first element of txBuff[] if
  98:.\main.c      **** *      the button was pressed
  99:.\main.c      **** *   5. Prints out the received data onto the LCD with a user defined refresh
 100:.\main.c      **** *      rate
 101:.\main.c      **** *   
 102:.\main.c      **** * Parameters:
 103:.\main.c      **** *  None.
 104:.\main.c      **** *
 105:.\main.c      **** * Return:
 106:.\main.c      **** *  None.
 107:.\main.c      **** *
 108:.\main.c      **** *******************************************************************************/
 109:.\main.c      **** int main()
 110:.\main.c      **** {   
  90              		.loc 1 110 0
  91              		.cfi_startproc
  92              		@ Volatile: function does not return.
  93              		@ args = 0, pretend = 0, frame = 0
  94              		@ frame_needed = 0, uses_anonymous_args = 0
  95 0000 08B5     		push	{r3, lr}
  96              		.cfi_def_cfa_offset 8
  97              		.cfi_offset 3, -8
  98              		.cfi_offset 14, -4
 111:.\main.c      ****     CyGlobalIntEnable;          /* Enable global interrupts. */
  99              		.loc 1 111 0
 100              	@ 111 ".\main.c" 1
 101 0002 62B6     		CPSIE   i
 102              	@ 0 "" 2
 112:.\main.c      ****     LCD_Start();
 103              		.loc 1 112 0
 104              		.thumb
 105 0004 FFF7FEFF 		bl	LCD_Start
 106              	.LVL4:
 113:.\main.c      ****     LCD_PrintString("Uit:");
 107              		.loc 1 113 0
 108 0008 4148     		ldr	r0, .L12
 109 000a FFF7FEFF 		bl	LCD_PrintString
 110              	.LVL5:
ARM GAS  C:\Users\PIET~1.COU\AppData\Local\Temp\ccZqKeev.s 			page 5


 114:.\main.c      ****     LCD_Position(1u, 0u);
 111              		.loc 1 114 0
 112 000e 0021     		movs	r1, #0
 113 0010 0120     		movs	r0, #1
 114 0012 FFF7FEFF 		bl	LCD_Position
 115              	.LVL6:
 115:.\main.c      ****     LCD_PrintString("In :");
 116              		.loc 1 115 0
 117 0016 3F48     		ldr	r0, .L12+4
 118 0018 FFF7FEFF 		bl	LCD_PrintString
 119              	.LVL7:
 116:.\main.c      **** 
 117:.\main.c      ****     I2S_1_Start();
 120              		.loc 1 117 0
 121 001c FFF7FEFF 		bl	I2S_1_Start
 122              	.LVL8:
 118:.\main.c      ****     LEDs_Write (0x0);
 123              		.loc 1 118 0
 124 0020 0020     		movs	r0, #0
 125 0022 FFF7FEFF 		bl	LEDs_Write
 126              	.LVL9:
 127              	.LBB8:
 128              	.LBB9:
 119:.\main.c      ****     
 120:.\main.c      ****     /* Configure DMAs for each direction */ 
 121:.\main.c      ****     DmaRxConfiguration();
 122:.\main.c      ****     DmaTxConfiguration();
 123:.\main.c      ****     SampleKlaar_StartEx(sampleInt);
 124:.\main.c      **** 
 125:.\main.c      ****     LCD_Position(1u,0u);
 126:.\main.c      **** 
 127:.\main.c      ****     
 128:.\main.c      ****     I2S_1_EnableRx();
 129:.\main.c      **** 
 130:.\main.c      ****     while(0u != (I2S_1_ReadTxStatus() & I2S_1_TX_FIFO_0_NOT_FULL))
 131:.\main.c      ****     {
 132:.\main.c      ****         /* Wait for TxDMA to fill Tx FIFO */
 133:.\main.c      ****     }
 134:.\main.c      ****     CyDelayUs(1);
 135:.\main.c      ****     I2S_1_EnableTx();   /* Enable Tx direction */
 136:.\main.c      ****    
 137:.\main.c      ****     for(;;) {
 138:.\main.c      ****         /* Execute following tasks once every millisecond */
 139:.\main.c      **** //        CyDelay(100);
 140:.\main.c      **** 
 141:.\main.c      ****         /* Print out Tx and Rx data onto LCD */
 142:.\main.c      ****         if (Clip_Read())
 143:.\main.c      ****             DisplayUpdate();
 144:.\main.c      ****     }
 145:.\main.c      **** }
 146:.\main.c      **** 
 147:.\main.c      **** 
 148:.\main.c      **** /*******************************************************************************
 149:.\main.c      **** * Function Name: DmaRxConfiguration
 150:.\main.c      **** ********************************************************************************
 151:.\main.c      **** *
 152:.\main.c      **** * Summary:
ARM GAS  C:\Users\PIET~1.COU\AppData\Local\Temp\ccZqKeev.s 			page 6


 153:.\main.c      **** *  Configures the DMA transfer for the Rx direction.
 154:.\main.c      **** *   
 155:.\main.c      **** * Parameters:
 156:.\main.c      **** *  None.
 157:.\main.c      **** *
 158:.\main.c      **** * Return:
 159:.\main.c      **** *  None.
 160:.\main.c      **** *
 161:.\main.c      **** *******************************************************************************/
 162:.\main.c      **** void DmaRxConfiguration(void)
 163:.\main.c      **** {
 164:.\main.c      ****     /* Rx DMA Config
 165:.\main.c      ****     * Init DMA, 1 byte bursts, each burst requires a request */
 166:.\main.c      ****     rxDmaChan = RxDMA_DmaInitialize(RxDMA_BYTES_PER_BURST, RxDMA_REQUEST_PER_BURST,
 129              		.loc 1 166 0
 130 0026 0120     		movs	r0, #1
 131 0028 0146     		mov	r1, r0
 132 002a 4FF48042 		mov	r2, #16384
 133 002e 41F6FF73 		movw	r3, #8191
 134 0032 FFF7FEFF 		bl	RxDMA_DmaInitialize
 135              	.LVL10:
 136 0036 384C     		ldr	r4, .L12+8
 137 0038 2077     		strb	r0, [r4, #28]
 167:.\main.c      ****                                      HI16(RxDMA_SRC_BASE), HI16(RxDMA_DST_BASE));
 168:.\main.c      **** 
 169:.\main.c      ****     rxDmaTd[0u] = CyDmaTdAllocate();
 138              		.loc 1 169 0
 139 003a FFF7FEFF 		bl	CyDmaTdAllocate
 140              	.LVL11:
 170:.\main.c      ****     /* Configure this Td as follows:
 171:.\main.c      ****     *  - The TD is looping on itself
 172:.\main.c      ****     *  - Increment the destination address, but not the source address
 173:.\main.c      ****     */
 174:.\main.c      ****     CyDmaTdSetConfiguration(rxDmaTd[0], BUFFER_SIZE, rxDmaTd[0u], TD_INC_DST_ADR | RxDMA__TD_TERMOU
 141              		.loc 1 174 0
 142 003e 0623     		movs	r3, #6
 169:.\main.c      ****     /* Configure this Td as follows:
 143              		.loc 1 169 0
 144 0040 0246     		mov	r2, r0
 145              		.loc 1 174 0
 146 0042 0421     		movs	r1, #4
 169:.\main.c      ****     /* Configure this Td as follows:
 147              		.loc 1 169 0
 148 0044 6077     		strb	r0, [r4, #29]
 149              		.loc 1 174 0
 150 0046 FFF7FEFF 		bl	CyDmaTdSetConfiguration
 151              	.LVL12:
 175:.\main.c      **** 
 176:.\main.c      ****     /* From the I2S to the memory */
 177:.\main.c      ****     CyDmaTdSetAddress(rxDmaTd[0u], LO16((uint32)I2S_1_RX_CH0_F0_PTR), LO16((uint32)rxBuff));
 152              		.loc 1 177 0
 153 004a 04F11002 		add	r2, r4, #16
 154 004e 92B2     		uxth	r2, r2
 155 0050 46F24551 		movw	r1, #25925
 156 0054 607F     		ldrb	r0, [r4, #29]	@ zero_extendqisi2
 157 0056 FFF7FEFF 		bl	CyDmaTdSetAddress
 158              	.LVL13:
ARM GAS  C:\Users\PIET~1.COU\AppData\Local\Temp\ccZqKeev.s 			page 7


 178:.\main.c      **** 
 179:.\main.c      ****     /* Associate the TD with the channel */
 180:.\main.c      ****     CyDmaChSetInitialTd(rxDmaChan, rxDmaTd[0u]);
 159              		.loc 1 180 0
 160 005a 617F     		ldrb	r1, [r4, #29]	@ zero_extendqisi2
 161 005c 207F     		ldrb	r0, [r4, #28]	@ zero_extendqisi2
 162 005e FFF7FEFF 		bl	CyDmaChSetInitialTd
 163              	.LVL14:
 181:.\main.c      **** 
 182:.\main.c      ****     /* Enable the channel */
 183:.\main.c      ****     CyDmaChEnable(rxDmaChan, 1u);
 164              		.loc 1 183 0
 165 0062 0121     		movs	r1, #1
 166 0064 207F     		ldrb	r0, [r4, #28]	@ zero_extendqisi2
 167 0066 FFF7FEFF 		bl	CyDmaChEnable
 168              	.LVL15:
 169              	.LBE9:
 170              	.LBE8:
 171              	.LBB10:
 172              	.LBB11:
 184:.\main.c      **** }
 185:.\main.c      **** 
 186:.\main.c      **** 
 187:.\main.c      **** /*******************************************************************************
 188:.\main.c      **** * Function Name: DmaTxConfiguration
 189:.\main.c      **** ********************************************************************************
 190:.\main.c      **** *
 191:.\main.c      **** * Summary:
 192:.\main.c      **** *  Configures the DMA transfer for the Tx direction.
 193:.\main.c      **** *   
 194:.\main.c      **** * Parameters:
 195:.\main.c      **** *  None.
 196:.\main.c      **** *
 197:.\main.c      **** * Return:
 198:.\main.c      **** *  None.
 199:.\main.c      **** *
 200:.\main.c      **** *******************************************************************************/
 201:.\main.c      **** void DmaTxConfiguration(void)
 202:.\main.c      **** {
 203:.\main.c      ****      /* Tx DMA Config
 204:.\main.c      ****     * Init DMA, 1 byte bursts, each burst requires a request
 205:.\main.c      ****     */ 
 206:.\main.c      ****     txDmaChan = TxDMA_DmaInitialize(TxDMA_BYTES_PER_BURST, TxDMA_REQUEST_PER_BURST, 
 173              		.loc 1 206 0
 174 006a 0120     		movs	r0, #1
 175 006c 0146     		mov	r1, r0
 176 006e 41F6FF72 		movw	r2, #8191
 177 0072 4FF48043 		mov	r3, #16384
 178 0076 FFF7FEFF 		bl	TxDMA_DmaInitialize
 179              	.LVL16:
 180 007a A077     		strb	r0, [r4, #30]
 207:.\main.c      ****                                     HI16(TxDMA_SRC_BASE), HI16(TxDMA_DST_BASE));
 208:.\main.c      **** 
 209:.\main.c      ****     txDmaTd[0u] = CyDmaTdAllocate();
 181              		.loc 1 209 0
 182 007c FFF7FEFF 		bl	CyDmaTdAllocate
 183              	.LVL17:
ARM GAS  C:\Users\PIET~1.COU\AppData\Local\Temp\ccZqKeev.s 			page 8


 210:.\main.c      **** 
 211:.\main.c      ****     /* Configure this Td chain as follows:
 212:.\main.c      ****     *  - The TD is looping on itself
 213:.\main.c      ****     *  - Increment the source address, but not the destination address   
 214:.\main.c      ****     */
 215:.\main.c      ****     CyDmaTdSetConfiguration(txDmaTd[0u], BUFFER_SIZE, txDmaTd[0u], TD_INC_SRC_ADR);
 184              		.loc 1 215 0
 185 0080 0123     		movs	r3, #1
 209:.\main.c      **** 
 186              		.loc 1 209 0
 187 0082 0246     		mov	r2, r0
 188              		.loc 1 215 0
 189 0084 0421     		movs	r1, #4
 209:.\main.c      **** 
 190              		.loc 1 209 0
 191 0086 E077     		strb	r0, [r4, #31]
 192              		.loc 1 215 0
 193 0088 FFF7FEFF 		bl	CyDmaTdSetConfiguration
 194              	.LVL18:
 216:.\main.c      ****     
 217:.\main.c      ****     /* From the memory to the I2S */
 218:.\main.c      ****     CyDmaTdSetAddress(txDmaTd[0u], LO16((uint32)txBuff), LO16((uint32)I2S_1_TX_CH0_F0_PTR));
 195              		.loc 1 218 0
 196 008c 46F24542 		movw	r2, #25669
 197 0090 A1B2     		uxth	r1, r4
 198 0092 E07F     		ldrb	r0, [r4, #31]	@ zero_extendqisi2
 199 0094 FFF7FEFF 		bl	CyDmaTdSetAddress
 200              	.LVL19:
 219:.\main.c      **** 
 220:.\main.c      ****     /* Associate the TD with the channel */
 221:.\main.c      ****     CyDmaChSetInitialTd(txDmaChan, txDmaTd[0u]);
 201              		.loc 1 221 0
 202 0098 E17F     		ldrb	r1, [r4, #31]	@ zero_extendqisi2
 203 009a A07F     		ldrb	r0, [r4, #30]	@ zero_extendqisi2
 204 009c FFF7FEFF 		bl	CyDmaChSetInitialTd
 205              	.LVL20:
 222:.\main.c      **** 
 223:.\main.c      ****     /* Enable the channel */
 224:.\main.c      ****     CyDmaChEnable(txDmaChan, 1u);
 206              		.loc 1 224 0
 207 00a0 0121     		movs	r1, #1
 208 00a2 A07F     		ldrb	r0, [r4, #30]	@ zero_extendqisi2
 209 00a4 FFF7FEFF 		bl	CyDmaChEnable
 210              	.LVL21:
 211              	.LBE11:
 212              	.LBE10:
 123:.\main.c      **** 
 213              		.loc 1 123 0
 214 00a8 1C48     		ldr	r0, .L12+12
 215 00aa FFF7FEFF 		bl	SampleKlaar_StartEx
 216              	.LVL22:
 125:.\main.c      **** 
 217              		.loc 1 125 0
 218 00ae 0120     		movs	r0, #1
 219 00b0 0021     		movs	r1, #0
 220 00b2 FFF7FEFF 		bl	LCD_Position
 221              	.LVL23:
ARM GAS  C:\Users\PIET~1.COU\AppData\Local\Temp\ccZqKeev.s 			page 9


 128:.\main.c      **** 
 222              		.loc 1 128 0
 223 00b6 FFF7FEFF 		bl	I2S_1_EnableRx
 224              	.LVL24:
 225              	.L5:
 130:.\main.c      ****     {
 226              		.loc 1 130 0 discriminator 1
 227 00ba 194B     		ldr	r3, .L12+16
 228 00bc 1B78     		ldrb	r3, [r3]	@ zero_extendqisi2
 229 00be 9B07     		lsls	r3, r3, #30
 230 00c0 FBD4     		bmi	.L5
 134:.\main.c      ****     I2S_1_EnableTx();   /* Enable Tx direction */
 231              		.loc 1 134 0
 232 00c2 0120     		movs	r0, #1
 233 00c4 FFF7FEFF 		bl	CyDelayUs
 234              	.LVL25:
 135:.\main.c      ****    
 235              		.loc 1 135 0
 236 00c8 FFF7FEFF 		bl	I2S_1_EnableTx
 237              	.LVL26:
 238              	.L6:
 142:.\main.c      ****             DisplayUpdate();
 239              		.loc 1 142 0
 240 00cc FFF7FEFF 		bl	Clip_Read
 241              	.LVL27:
 242 00d0 0028     		cmp	r0, #0
 243 00d2 FBD0     		beq	.L6
 244              	.LVL28:
 245              	.LBB12:
 246              	.LBB13:
 225:.\main.c      **** }
 226:.\main.c      **** 
 227:.\main.c      **** /*******************************************************************************
 228:.\main.c      **** *  Function Name: DisplayUpdate
 229:.\main.c      **** ********************************************************************************
 230:.\main.c      **** *
 231:.\main.c      **** * Summary:
 232:.\main.c      **** *  This function prints out the Tx and Rx data onto the LCD.  
 233:.\main.c      **** *
 234:.\main.c      **** * Parameters:
 235:.\main.c      **** *  None.
 236:.\main.c      **** *
 237:.\main.c      **** * Return:
 238:.\main.c      **** *  None.
 239:.\main.c      **** *
 240:.\main.c      **** *******************************************************************************/
 241:.\main.c      **** static void DisplayUpdate(void)
 242:.\main.c      **** {
 243:.\main.c      ****     uint8 idx;
 244:.\main.c      ****     uint8 col;
 245:.\main.c      **** 
 246:.\main.c      ****     /* Set start position for data output */
 247:.\main.c      ****     col = 4u; 
 248:.\main.c      **** //	for(idx = 0u; idx < BUFFER_SIZE; idx+=2)
 249:.\main.c      **** 	for(idx = 0u; idx < BUFFER_SIZE/2; idx++)
 250:.\main.c      ****     {
 251:.\main.c      ****         LCD_Position(0u, col);
ARM GAS  C:\Users\PIET~1.COU\AppData\Local\Temp\ccZqKeev.s 			page 10


 247              		.loc 1 251 0
 248 00d4 0421     		movs	r1, #4
 249 00d6 0020     		movs	r0, #0
 250 00d8 FFF7FEFF 		bl	LCD_Position
 251              	.LVL29:
 252:.\main.c      **** //        LCD_PrintInt16(((int16)txBuff[idx]<<8)+(int16)txBuff[idx+1]);
 253:.\main.c      ****         LCD_PrintInt16(sampleUit[idx]);
 252              		.loc 1 253 0
 253 00dc 2089     		ldrh	r0, [r4, #8]
 254 00de FFF7FEFF 		bl	LCD_PrintInt16
 255              	.LVL30:
 254:.\main.c      ****         LCD_Position(1u, col);
 256              		.loc 1 254 0
 257 00e2 0421     		movs	r1, #4
 258 00e4 0120     		movs	r0, #1
 259 00e6 FFF7FEFF 		bl	LCD_Position
 260              	.LVL31:
 255:.\main.c      **** //        LCD_PrintInt16(((int16)rxBuff[idx]<<8)+(int16)rxBuff[idx+1]);
 256:.\main.c      ****         LCD_PrintInt16(sampleIn[idx]);
 261              		.loc 1 256 0
 262 00ea A08A     		ldrh	r0, [r4, #20]
 263 00ec FFF7FEFF 		bl	LCD_PrintInt16
 264              	.LVL32:
 251:.\main.c      **** //        LCD_PrintInt16(((int16)txBuff[idx]<<8)+(int16)txBuff[idx+1]);
 265              		.loc 1 251 0
 266 00f0 0A21     		movs	r1, #10
 267 00f2 0020     		movs	r0, #0
 268 00f4 FFF7FEFF 		bl	LCD_Position
 269              	.LVL33:
 253:.\main.c      ****         LCD_Position(1u, col);
 270              		.loc 1 253 0
 271 00f8 A089     		ldrh	r0, [r4, #12]
 272 00fa FFF7FEFF 		bl	LCD_PrintInt16
 273              	.LVL34:
 254:.\main.c      **** //        LCD_PrintInt16(((int16)rxBuff[idx]<<8)+(int16)rxBuff[idx+1]);
 274              		.loc 1 254 0
 275 00fe 0120     		movs	r0, #1
 276 0100 0A21     		movs	r1, #10
 277 0102 FFF7FEFF 		bl	LCD_Position
 278              	.LVL35:
 279              		.loc 1 256 0
 280 0106 208B     		ldrh	r0, [r4, #24]
 281 0108 FFF7FEFF 		bl	LCD_PrintInt16
 282              	.LVL36:
 283 010c DEE7     		b	.L6
 284              	.L13:
 285 010e 00BF     		.align	2
 286              	.L12:
 287 0110 00000000 		.word	.LC0
 288 0114 05000000 		.word	.LC1
 289 0118 00000000 		.word	.LANCHOR0
 290 011c 00000000 		.word	sampleInt
 291 0120 65640040 		.word	1073767525
 292              	.LBE13:
 293              	.LBE12:
 294              		.cfi_endproc
 295              	.LFE64:
ARM GAS  C:\Users\PIET~1.COU\AppData\Local\Temp\ccZqKeev.s 			page 11


 296              		.size	main, .-main
 297              		.section	.rodata.str1.1,"aMS",%progbits,1
 298              	.LC0:
 299 0000 5569743A 		.ascii	"Uit:\000"
 299      00
 300              	.LC1:
 301 0005 496E203A 		.ascii	"In :\000"
 301      00
 302              		.bss
 303              		.align	2
 304              		.set	.LANCHOR0,. + 0
 305              		.type	txBuff, %object
 306              		.size	txBuff, 8
 307              	txBuff:
 308 0000 00000000 		.space	8
 308      00000000 
 309              		.type	sampleUit, %object
 310              		.size	sampleUit, 8
 311              	sampleUit:
 312 0008 00000000 		.space	8
 312      00000000 
 313              		.type	rxBuff, %object
 314              		.size	rxBuff, 4
 315              	rxBuff:
 316 0010 00000000 		.space	4
 317              		.type	sampleIn, %object
 318              		.size	sampleIn, 8
 319              	sampleIn:
 320 0014 00000000 		.space	8
 320      00000000 
 321              		.type	rxDmaChan, %object
 322              		.size	rxDmaChan, 1
 323              	rxDmaChan:
 324 001c 00       		.space	1
 325              		.type	rxDmaTd, %object
 326              		.size	rxDmaTd, 1
 327              	rxDmaTd:
 328 001d 00       		.space	1
 329              		.type	txDmaChan, %object
 330              		.size	txDmaChan, 1
 331              	txDmaChan:
 332 001e 00       		.space	1
 333              		.type	txDmaTd, %object
 334              		.size	txDmaTd, 1
 335              	txDmaTd:
 336 001f 00       		.space	1
 337              		.text
 338              	.Letext0:
 339              		.file 2 "c:\\program files (x86)\\cypress\\psoc creator\\3.3\\psoc creator\\import\\gnu\\arm\\4.9.
 340              		.file 3 "c:\\program files (x86)\\cypress\\psoc creator\\3.3\\psoc creator\\import\\gnu\\arm\\4.9.
 341              		.file 4 "Generated_Source\\PSoC5/cytypes.h"
 342              		.file 5 "Generated_Source\\PSoC5/LEDs.h"
 343              		.file 6 "Generated_Source\\PSoC5/CYDMAC.H"
 344              		.file 7 "Generated_Source\\PSoC5/RxDMA_dma.h"
 345              		.file 8 "Generated_Source\\PSoC5/TxDMA_dma.h"
 346              		.file 9 "Generated_Source\\PSoC5/LCD.h"
 347              		.file 10 "Generated_Source\\PSoC5/I2S_1.h"
ARM GAS  C:\Users\PIET~1.COU\AppData\Local\Temp\ccZqKeev.s 			page 12


 348              		.file 11 "Generated_Source\\PSoC5/SampleKlaar.h"
 349              		.file 12 "Generated_Source\\PSoC5/CyLib.h"
 350              		.file 13 "Generated_Source\\PSoC5/Clip.h"
 351              		.file 14 "Generated_Source\\PSoC5/core_cm3.h"