ARM GAS  C:\Users\Jona\AppData\Local\Temp\ccCJGPjC.s 			page 1


   1              		.syntax unified
   2              		.cpu cortex-m3
   3              		.fpu softvfp
   4              		.eabi_attribute 20, 1
   5              		.eabi_attribute 21, 1
   6              		.eabi_attribute 23, 3
   7              		.eabi_attribute 24, 1
   8              		.eabi_attribute 25, 1
   9              		.eabi_attribute 26, 1
  10              		.eabi_attribute 30, 6
  11              		.eabi_attribute 34, 1
  12              		.eabi_attribute 18, 4
  13              		.thumb
  14              		.syntax unified
  15              		.file	"audioCodec.c"
  16              		.text
  17              	.Ltext0:
  18              		.cfi_sections	.debug_frame
  19              		.global	CodecInitData
  20              		.section	.rodata
  21              		.align	2
  22              		.type	CodecInitData, %object
  23              		.size	CodecInitData, 22
  24              	CodecInitData:
  25 0000 1E       		.byte	30
  26 0001 00       		.byte	0
  27 0002 0C       		.byte	12
  28 0003 00       		.byte	0
  29 0004 0E       		.byte	14
  30 0005 02       		.byte	2
  31 0006 00       		.byte	0
  32 0007 1F       		.byte	31
  33 0008 02       		.byte	2
  34 0009 1F       		.byte	31
  35 000a 04       		.byte	4
  36 000b 64       		.byte	100
  37 000c 06       		.byte	6
  38 000d 64       		.byte	100
  39 000e 0A       		.byte	10
  40 000f 00       		.byte	0
  41 0010 08       		.byte	8
  42 0011 12       		.byte	18
  43 0012 10       		.byte	16
  44 0013 A0       		.byte	-96
  45 0014 12       		.byte	18
  46 0015 01       		.byte	1
  47              		.section	.text.sendCodecCommand,"ax",%progbits
  48              		.align	2
  49              		.global	sendCodecCommand
  50              		.thumb
  51              		.thumb_func
  52              		.type	sendCodecCommand, %function
  53              	sendCodecCommand:
  54              	.LFB63:
  55              		.file 1 "audioCodec.c"
   1:audioCodec.c  **** /* ========================================
   2:audioCodec.c  ****  *
ARM GAS  C:\Users\Jona\AppData\Local\Temp\ccCJGPjC.s 			page 2


   3:audioCodec.c  ****  * AudioCodec.c
   4:audioCodec.c  ****  * rev 1.6 10/2/2016
   5:audioCodec.c  ****  * Piet Coussens & Rogier Delporte, 2015
   6:audioCodec.c  ****  * Odisee PBa elektronica
   7:audioCodec.c  ****  *
   8:audioCodec.c  ****  * ========================================
   9:audioCodec.c  **** */
  10:audioCodec.c  **** 
  11:audioCodec.c  **** #include <AudioCodec.h>
  12:audioCodec.c  **** #include <dspSystem.h>
  13:audioCodec.c  **** 
  14:audioCodec.c  **** #define I2C_CODEC_INIT_LENGTH   (11u)   /* lengte van de initialisatie datastructuur CodecInitData 
  15:audioCodec.c  **** 
  16:audioCodec.c  **** /* Codec initialisation data structure (always 2 bytes) */
  17:audioCodec.c  **** const uint8 CodecInitData[I2C_CODEC_INIT_LENGTH][2] = {
  18:audioCodec.c  ****     {RESET_Reg,0x00},
  19:audioCodec.c  ****     {PWR_DWN_CTRL_Reg, 0x00},                         // Power reduction register
  20:audioCodec.c  ****     {DIGI_AUDIO_INTERFACE_FORMAT_Reg, 0x02},          // Digital data format 16b I2S mode
  21:audioCodec.c  ****     {LEFT_LINE_IN_Reg, (uint8) LINVOL},               // Left in setup register
  22:audioCodec.c  ****     {RIGHT_LINE_IN_Reg, (uint8) RINVOL},              // right in setup register
  23:audioCodec.c  ****     {LEFT_HP_OUT_Reg, (uint8) LHPVOL},                // Left headphone out setup register
  24:audioCodec.c  ****     {RIGHT_HP_OUT_Reg, (uint8) RHPVOL},               // right headphone out  setup register
  25:audioCodec.c  ****     {DIGI_AUDIO_PATH_CTRL_Reg, (uint8) ADCHPD},      // digital audio path configuration
  26:audioCodec.c  ****     {ANAL_AUDIO_PATH_CTRL_Reg,                        // analog audio pathway configuration
  27:audioCodec.c  ****         (uint8) ((SIDEATT << 6)|(SIDETONE << 5)|(DACSEL << 4)|(BYPASS << 3)|(INSEL << 2)|(MUTEMIC <
  28:audioCodec.c  ****     {SAMPLING_CTRL_Reg,                               // clock configuration
  29:audioCodec.c  ****         #if SAMPLE_RATE == 88                            
  30:audioCodec.c  ****         0xBC  
  31:audioCodec.c  ****         #elif SAMPLE_RATE == 44
  32:audioCodec.c  ****         0xA0
  33:audioCodec.c  ****         #elif SAMPLE_RATE == 29
  34:audioCodec.c  ****         0x9C
  35:audioCodec.c  ****         #elif SAMPLE_RATE == 22
  36:audioCodec.c  ****         0xE0
  37:audioCodec.c  ****         #elif SAMPLE_RATE == 14
  38:audioCodec.c  ****         0xE2
  39:audioCodec.c  ****         #elif SAMPLE_RATE == 8
  40:audioCodec.c  ****         0xAC
  41:audioCodec.c  ****         #elif SAMPLE_RATE == 7
  42:audioCodec.c  ****         0x8C
  43:audioCodec.c  ****         #elif SAMPLE_RATE == 4
  44:audioCodec.c  ****         0xEC
  45:audioCodec.c  ****         #elif SAMPLE_RATE == 2
  46:audioCodec.c  ****         0xCE
  47:audioCodec.c  ****         #endif
  48:audioCodec.c  ****     },
  49:audioCodec.c  ****     {ACTIVE_CTRL_Reg, 0x01}      // Codec enable
  50:audioCodec.c  **** };
  51:audioCodec.c  **** 
  52:audioCodec.c  **** /***********************************************************************************************
  53:audioCodec.c  ****  * Private functie declaraties 
  54:audioCodec.c  ****  ***********************************************************************************************/
  55:audioCodec.c  **** 
  56:audioCodec.c  **** // Bereken de volume-parameter voor de headphone (48-127) i.f.v. de potmeterwaarde (uint8 0-255)
  57:audioCodec.c  **** // volume dient aangepast te worden als de returnwaarde van deze functie > 0;
  58:audioCodec.c  **** uint8 _berekenVolumeHP(uint8 PotWaarde);
  59:audioCodec.c  **** 
ARM GAS  C:\Users\Jona\AppData\Local\Temp\ccCJGPjC.s 			page 3


  60:audioCodec.c  **** // Bereken de volume-parameter voor de line-ingang (0-31) i.f.v. de potmeterwaarde (uint8 0-255)
  61:audioCodec.c  **** // zie definitie van LINVOL en RINVOC van de codec
  62:audioCodec.c  **** // volume dient aangepast te worden als de returnwaarde van deze functie > 31;
  63:audioCodec.c  **** uint8 _berekenVolumeLineIn(uint8 PotWaarde);
  64:audioCodec.c  **** 
  65:audioCodec.c  **** /***********************************************************************************************
  66:audioCodec.c  ****  * Publieke functie Definities 
  67:audioCodec.c  ****  ***********************************************************************************************/
  68:audioCodec.c  **** // zend een commando naar de codec
  69:audioCodec.c  **** uint8 sendCodecCommand(uint8 registerAddress, uint8 newData){
  56              		.loc 1 69 0
  57              		.cfi_startproc
  58              		@ args = 0, pretend = 0, frame = 16
  59              		@ frame_needed = 1, uses_anonymous_args = 0
  60 0000 80B5     		push	{r7, lr}
  61              		.cfi_def_cfa_offset 8
  62              		.cfi_offset 7, -8
  63              		.cfi_offset 14, -4
  64 0002 84B0     		sub	sp, sp, #16
  65              		.cfi_def_cfa_offset 24
  66 0004 00AF     		add	r7, sp, #0
  67              		.cfi_def_cfa_register 7
  68 0006 0346     		mov	r3, r0
  69 0008 0A46     		mov	r2, r1
  70 000a FB71     		strb	r3, [r7, #7]
  71 000c 1346     		mov	r3, r2
  72 000e BB71     		strb	r3, [r7, #6]
  70:audioCodec.c  ****     uint8 I2CData[2];
  71:audioCodec.c  ****     I2S_EN_Write(0);                            // stop I2S interface als actief
  73              		.loc 1 71 0
  74 0010 0020     		movs	r0, #0
  75 0012 FFF7FEFF 		bl	I2S_EN_Write
  72:audioCodec.c  ****     I2C_Codec_control_MasterClearStatus();
  76              		.loc 1 72 0
  77 0016 FFF7FEFF 		bl	I2C_Codec_control_MasterClearStatus
  73:audioCodec.c  ****     I2CData[0] = registerAddress; I2CData[1] = newData;
  78              		.loc 1 73 0
  79 001a FB79     		ldrb	r3, [r7, #7]
  80 001c 3B73     		strb	r3, [r7, #12]
  81 001e BB79     		ldrb	r3, [r7, #6]
  82 0020 7B73     		strb	r3, [r7, #13]
  74:audioCodec.c  ****     I2C_Codec_control_MasterWriteBuf(I2C_CODEC_ADDRESS, I2CData, 2, I2C_Codec_control_MODE_COMPLETE
  83              		.loc 1 74 0
  84 0022 07F10C01 		add	r1, r7, #12
  85 0026 0023     		movs	r3, #0
  86 0028 0222     		movs	r2, #2
  87 002a 1A20     		movs	r0, #26
  88 002c FFF7FEFF 		bl	I2C_Codec_control_MasterWriteBuf
  75:audioCodec.c  ****     CyDelayUs(30);  
  89              		.loc 1 75 0
  90 0030 1E20     		movs	r0, #30
  91 0032 FFF7FEFF 		bl	CyDelayUs
  76:audioCodec.c  ****     I2S_EN_Write(1);                            // start I2S interface opnieuw
  92              		.loc 1 76 0
  93 0036 0120     		movs	r0, #1
  94 0038 FFF7FEFF 		bl	I2S_EN_Write
  77:audioCodec.c  ****     return (I2C_Codec_control_MasterStatus());
ARM GAS  C:\Users\Jona\AppData\Local\Temp\ccCJGPjC.s 			page 4


  95              		.loc 1 77 0
  96 003c FFF7FEFF 		bl	I2C_Codec_control_MasterStatus
  97 0040 0346     		mov	r3, r0
  78:audioCodec.c  **** }
  98              		.loc 1 78 0
  99 0042 1846     		mov	r0, r3
 100 0044 1037     		adds	r7, r7, #16
 101              		.cfi_def_cfa_offset 8
 102 0046 BD46     		mov	sp, r7
 103              		.cfi_def_cfa_register 13
 104              		@ sp needed
 105 0048 80BD     		pop	{r7, pc}
 106              		.cfi_endproc
 107              	.LFE63:
 108              		.size	sendCodecCommand, .-sendCodecCommand
 109 004a 00BF     		.section	.text.initCodec,"ax",%progbits
 110              		.align	2
 111              		.global	initCodec
 112              		.thumb
 113              		.thumb_func
 114              		.type	initCodec, %function
 115              	initCodec:
 116              	.LFB64:
  79:audioCodec.c  **** 
  80:audioCodec.c  **** // initialiseer de codec met de datastructuur CodecInitData[] in AudioCodec.h
  81:audioCodec.c  **** uint8 initCodec() {
 117              		.loc 1 81 0
 118              		.cfi_startproc
 119              		@ args = 0, pretend = 0, frame = 8
 120              		@ frame_needed = 1, uses_anonymous_args = 0
 121 0000 80B5     		push	{r7, lr}
 122              		.cfi_def_cfa_offset 8
 123              		.cfi_offset 7, -8
 124              		.cfi_offset 14, -4
 125 0002 82B0     		sub	sp, sp, #8
 126              		.cfi_def_cfa_offset 16
 127 0004 00AF     		add	r7, sp, #0
 128              		.cfi_def_cfa_register 7
  82:audioCodec.c  ****     uint8 temp;
  83:audioCodec.c  ****     I2S_EN_Write(0);                            // stop I2S interface als actief
 129              		.loc 1 83 0
 130 0006 0020     		movs	r0, #0
 131 0008 FFF7FEFF 		bl	I2S_EN_Write
  84:audioCodec.c  ****     for (temp = 0; temp < I2C_CODEC_INIT_LENGTH; temp++) {
 132              		.loc 1 84 0
 133 000c 0023     		movs	r3, #0
 134 000e FB71     		strb	r3, [r7, #7]
 135 0010 16E0     		b	.L4
 136              	.L6:
  85:audioCodec.c  ****         I2C_Codec_control_MasterWriteBuf(I2C_CODEC_ADDRESS, (uint8 *)CodecInitData[temp], 2, I2C_Co
 137              		.loc 1 85 0
 138 0012 FB79     		ldrb	r3, [r7, #7]	@ zero_extendqisi2
 139 0014 5B00     		lsls	r3, r3, #1
 140 0016 104A     		ldr	r2, .L8
 141 0018 9918     		adds	r1, r3, r2
 142 001a 0023     		movs	r3, #0
 143 001c 0222     		movs	r2, #2
ARM GAS  C:\Users\Jona\AppData\Local\Temp\ccCJGPjC.s 			page 5


 144 001e 1A20     		movs	r0, #26
 145 0020 FFF7FEFF 		bl	I2C_Codec_control_MasterWriteBuf
  86:audioCodec.c  ****         // Wait for the data transfer to complete
  87:audioCodec.c  ****         while(I2C_Codec_control_MasterStatus() & I2C_Codec_control_MSTAT_XFER_INP);    
 146              		.loc 1 87 0
 147 0024 00BF     		nop
 148              	.L5:
 149              		.loc 1 87 0 is_stmt 0 discriminator 1
 150 0026 FFF7FEFF 		bl	I2C_Codec_control_MasterStatus
 151 002a 0346     		mov	r3, r0
 152 002c 03F00403 		and	r3, r3, #4
 153 0030 002B     		cmp	r3, #0
 154 0032 F8D1     		bne	.L5
  88:audioCodec.c  ****         CyDelayUs(50);
 155              		.loc 1 88 0 is_stmt 1 discriminator 2
 156 0034 3220     		movs	r0, #50
 157 0036 FFF7FEFF 		bl	CyDelayUs
  84:audioCodec.c  ****         I2C_Codec_control_MasterWriteBuf(I2C_CODEC_ADDRESS, (uint8 *)CodecInitData[temp], 2, I2C_Co
 158              		.loc 1 84 0 discriminator 2
 159 003a FB79     		ldrb	r3, [r7, #7]	@ zero_extendqisi2
 160 003c 0133     		adds	r3, r3, #1
 161 003e FB71     		strb	r3, [r7, #7]
 162              	.L4:
  84:audioCodec.c  ****         I2C_Codec_control_MasterWriteBuf(I2C_CODEC_ADDRESS, (uint8 *)CodecInitData[temp], 2, I2C_Co
 163              		.loc 1 84 0 is_stmt 0 discriminator 1
 164 0040 FB79     		ldrb	r3, [r7, #7]	@ zero_extendqisi2
 165 0042 0A2B     		cmp	r3, #10
 166 0044 E5D9     		bls	.L6
  89:audioCodec.c  ****         }
  90:audioCodec.c  ****     I2S_EN_Write(1);                            // start I2S interface opnieuw
 167              		.loc 1 90 0 is_stmt 1
 168 0046 0120     		movs	r0, #1
 169 0048 FFF7FEFF 		bl	I2S_EN_Write
  91:audioCodec.c  ****     return(1);
 170              		.loc 1 91 0
 171 004c 0123     		movs	r3, #1
  92:audioCodec.c  **** }
 172              		.loc 1 92 0
 173 004e 1846     		mov	r0, r3
 174 0050 0837     		adds	r7, r7, #8
 175              		.cfi_def_cfa_offset 8
 176 0052 BD46     		mov	sp, r7
 177              		.cfi_def_cfa_register 13
 178              		@ sp needed
 179 0054 80BD     		pop	{r7, pc}
 180              	.L9:
 181 0056 00BF     		.align	2
 182              	.L8:
 183 0058 00000000 		.word	CodecInitData
 184              		.cfi_endproc
 185              	.LFE64:
 186              		.size	initCodec, .-initCodec
 187              		.section	.text.StelHPvolumeIn,"ax",%progbits
 188              		.align	2
 189              		.global	StelHPvolumeIn
 190              		.thumb
 191              		.thumb_func
ARM GAS  C:\Users\Jona\AppData\Local\Temp\ccCJGPjC.s 			page 6


 192              		.type	StelHPvolumeIn, %function
 193              	StelHPvolumeIn:
 194              	.LFB65:
  93:audioCodec.c  **** 
  94:audioCodec.c  **** // stel volume van de hoofdtelefoon-uitgang in i.f.v. een 8-bits getal (van een potmeter)
  95:audioCodec.c  **** uint8 StelHPvolumeIn(uint8 VolWaarde) {
 195              		.loc 1 95 0
 196              		.cfi_startproc
 197              		@ args = 0, pretend = 0, frame = 16
 198              		@ frame_needed = 1, uses_anonymous_args = 0
 199 0000 80B5     		push	{r7, lr}
 200              		.cfi_def_cfa_offset 8
 201              		.cfi_offset 7, -8
 202              		.cfi_offset 14, -4
 203 0002 84B0     		sub	sp, sp, #16
 204              		.cfi_def_cfa_offset 24
 205 0004 00AF     		add	r7, sp, #0
 206              		.cfi_def_cfa_register 7
 207 0006 0346     		mov	r3, r0
 208 0008 FB71     		strb	r3, [r7, #7]
  96:audioCodec.c  ****     uint8 HPvolume;
  97:audioCodec.c  ****     static uint8 HPvolumeUit = 0;
  98:audioCodec.c  ****     HPvolume = _berekenVolumeHP(VolWaarde);                     // Bereken HPvolume a.h.v. potmeter
 209              		.loc 1 98 0
 210 000a FB79     		ldrb	r3, [r7, #7]	@ zero_extendqisi2
 211 000c 1846     		mov	r0, r3
 212 000e FFF7FEFF 		bl	_berekenVolumeHP
 213 0012 0346     		mov	r3, r0
 214 0014 FB73     		strb	r3, [r7, #15]
  99:audioCodec.c  ****     if (HPvolume != 0) {
 215              		.loc 1 99 0
 216 0016 FB7B     		ldrb	r3, [r7, #15]	@ zero_extendqisi2
 217 0018 002B     		cmp	r3, #0
 218 001a 07D0     		beq	.L11
 100:audioCodec.c  ****         HPvolumeUit = HPvolume;
 219              		.loc 1 100 0
 220 001c 064A     		ldr	r2, .L13
 221 001e FB7B     		ldrb	r3, [r7, #15]
 222 0020 1370     		strb	r3, [r2]
 101:audioCodec.c  ****         sendCodecCommand(LEFT_HP_OUT_Reg|1, HPvolume);          // update  HP-volume links & rechts
 223              		.loc 1 101 0
 224 0022 FB7B     		ldrb	r3, [r7, #15]	@ zero_extendqisi2
 225 0024 1946     		mov	r1, r3
 226 0026 0520     		movs	r0, #5
 227 0028 FFF7FEFF 		bl	sendCodecCommand
 228              	.L11:
 102:audioCodec.c  ****     }
 103:audioCodec.c  ****     return (HPvolumeUit);
 229              		.loc 1 103 0
 230 002c 024B     		ldr	r3, .L13
 231 002e 1B78     		ldrb	r3, [r3]	@ zero_extendqisi2
 104:audioCodec.c  **** }
 232              		.loc 1 104 0
 233 0030 1846     		mov	r0, r3
 234 0032 1037     		adds	r7, r7, #16
 235              		.cfi_def_cfa_offset 8
 236 0034 BD46     		mov	sp, r7
ARM GAS  C:\Users\Jona\AppData\Local\Temp\ccCJGPjC.s 			page 7


 237              		.cfi_def_cfa_register 13
 238              		@ sp needed
 239 0036 80BD     		pop	{r7, pc}
 240              	.L14:
 241              		.align	2
 242              	.L13:
 243 0038 00000000 		.word	HPvolumeUit.6416
 244              		.cfi_endproc
 245              	.LFE65:
 246              		.size	StelHPvolumeIn, .-StelHPvolumeIn
 247              		.section	.text.StelLineVolumeIn,"ax",%progbits
 248              		.align	2
 249              		.global	StelLineVolumeIn
 250              		.thumb
 251              		.thumb_func
 252              		.type	StelLineVolumeIn, %function
 253              	StelLineVolumeIn:
 254              	.LFB66:
 105:audioCodec.c  **** 
 106:audioCodec.c  **** // stel het ingangsvolume van de line-in van de codec in i.f.v. een 8-bits getal (van een potmeter)
 107:audioCodec.c  **** uint8 StelLineVolumeIn(uint8 VolWaarde) {
 255              		.loc 1 107 0
 256              		.cfi_startproc
 257              		@ args = 0, pretend = 0, frame = 16
 258              		@ frame_needed = 1, uses_anonymous_args = 0
 259 0000 80B5     		push	{r7, lr}
 260              		.cfi_def_cfa_offset 8
 261              		.cfi_offset 7, -8
 262              		.cfi_offset 14, -4
 263 0002 84B0     		sub	sp, sp, #16
 264              		.cfi_def_cfa_offset 24
 265 0004 00AF     		add	r7, sp, #0
 266              		.cfi_def_cfa_register 7
 267 0006 0346     		mov	r3, r0
 268 0008 FB71     		strb	r3, [r7, #7]
 108:audioCodec.c  ****     uint8 LineVolume;
 109:audioCodec.c  ****     static uint8 LineVolumeUit = 0;
 110:audioCodec.c  ****     LineVolume = _berekenVolumeLineIn(VolWaarde);             // Bereken LineVolume a.h.v. potmeter
 269              		.loc 1 110 0
 270 000a FB79     		ldrb	r3, [r7, #7]	@ zero_extendqisi2
 271 000c 1846     		mov	r0, r3
 272 000e FFF7FEFF 		bl	_berekenVolumeLineIn
 273 0012 0346     		mov	r3, r0
 274 0014 FB73     		strb	r3, [r7, #15]
 111:audioCodec.c  ****     if (LineVolume < 32) {
 275              		.loc 1 111 0
 276 0016 FB7B     		ldrb	r3, [r7, #15]	@ zero_extendqisi2
 277 0018 1F2B     		cmp	r3, #31
 278 001a 07D8     		bhi	.L16
 112:audioCodec.c  ****         LineVolumeUit = LineVolume;
 279              		.loc 1 112 0
 280 001c 064A     		ldr	r2, .L18
 281 001e FB7B     		ldrb	r3, [r7, #15]
 282 0020 1370     		strb	r3, [r2]
 113:audioCodec.c  ****          sendCodecCommand(RIGHT_LINE_IN_Reg|1, LineVolume);    // update  Line-volume links & recht
 283              		.loc 1 113 0
 284 0022 FB7B     		ldrb	r3, [r7, #15]	@ zero_extendqisi2
ARM GAS  C:\Users\Jona\AppData\Local\Temp\ccCJGPjC.s 			page 8


 285 0024 1946     		mov	r1, r3
 286 0026 0320     		movs	r0, #3
 287 0028 FFF7FEFF 		bl	sendCodecCommand
 288              	.L16:
 114:audioCodec.c  ****     }
 115:audioCodec.c  ****     return (LineVolumeUit);
 289              		.loc 1 115 0
 290 002c 024B     		ldr	r3, .L18
 291 002e 1B78     		ldrb	r3, [r3]	@ zero_extendqisi2
 116:audioCodec.c  **** }
 292              		.loc 1 116 0
 293 0030 1846     		mov	r0, r3
 294 0032 1037     		adds	r7, r7, #16
 295              		.cfi_def_cfa_offset 8
 296 0034 BD46     		mov	sp, r7
 297              		.cfi_def_cfa_register 13
 298              		@ sp needed
 299 0036 80BD     		pop	{r7, pc}
 300              	.L19:
 301              		.align	2
 302              	.L18:
 303 0038 01000000 		.word	LineVolumeUit.6421
 304              		.cfi_endproc
 305              	.LFE66:
 306              		.size	StelLineVolumeIn, .-StelLineVolumeIn
 307              		.section	.text.StelSampleRateIn,"ax",%progbits
 308              		.align	2
 309              		.global	StelSampleRateIn
 310              		.thumb
 311              		.thumb_func
 312              		.type	StelSampleRateIn, %function
 313              	StelSampleRateIn:
 314              	.LFB67:
 117:audioCodec.c  **** // Stelt de samplerate van de codec in. Toegestane waarden voor de parameter 'sampleFreq' zijn
 118:audioCodec.c  **** // 88, 44, 29, 22, 14, 8, 7, 4 en 2 (waarde in kHz). Indien de samplefrequentie niet ondersteund wo
 119:audioCodec.c  **** // dan wordt 0 geretourneerd, anders de waarde van sampleFreq
 120:audioCodec.c  **** // opm 1: de waarde 29 lijkt niet goed te werken (werkt enkel op linker kanaal)
 121:audioCodec.c  **** // opm 2: De I2S-interface moet mee aangepast worden om de juiste wordrate te houden
 122:audioCodec.c  **** //      AudioCodeClock = 11,2896 MHz/2 => dus juiste deelfactor invoeren voor I2S-clock met 64 clks
 123:audioCodec.c  **** uint8 StelSampleRateIn(uint8 sampleFreq){
 315              		.loc 1 123 0
 316              		.cfi_startproc
 317              		@ args = 0, pretend = 0, frame = 16
 318              		@ frame_needed = 1, uses_anonymous_args = 0
 319 0000 80B5     		push	{r7, lr}
 320              		.cfi_def_cfa_offset 8
 321              		.cfi_offset 7, -8
 322              		.cfi_offset 14, -4
 323 0002 84B0     		sub	sp, sp, #16
 324              		.cfi_def_cfa_offset 24
 325 0004 00AF     		add	r7, sp, #0
 326              		.cfi_def_cfa_register 7
 327 0006 0346     		mov	r3, r0
 328 0008 FB71     		strb	r3, [r7, #7]
 124:audioCodec.c  ****     uint8 divider;
 125:audioCodec.c  ****     switch (sampleFreq) {
 329              		.loc 1 125 0
ARM GAS  C:\Users\Jona\AppData\Local\Temp\ccCJGPjC.s 			page 9


 330 000a FB79     		ldrb	r3, [r7, #7]	@ zero_extendqisi2
 331 000c 023B     		subs	r3, r3, #2
 332 000e 562B     		cmp	r3, #86
 333 0010 00F2CD80 		bhi	.L21
 334 0014 01A2     		adr	r2, .L23
 335 0016 52F823F0 		ldr	pc, [r2, r3, lsl #2]
 336 001a 00BF     		.p2align 2
 337              	.L23:
 338 001c A9010000 		.word	.L22+1
 339 0020 AF010000 		.word	.L21+1
 340 0024 A3010000 		.word	.L24+1
 341 0028 AF010000 		.word	.L21+1
 342 002c AF010000 		.word	.L21+1
 343 0030 9D010000 		.word	.L25+1
 344 0034 97010000 		.word	.L26+1
 345 0038 AF010000 		.word	.L21+1
 346 003c AF010000 		.word	.L21+1
 347 0040 AF010000 		.word	.L21+1
 348 0044 AF010000 		.word	.L21+1
 349 0048 AF010000 		.word	.L21+1
 350 004c 91010000 		.word	.L27+1
 351 0050 AF010000 		.word	.L21+1
 352 0054 AF010000 		.word	.L21+1
 353 0058 AF010000 		.word	.L21+1
 354 005c AF010000 		.word	.L21+1
 355 0060 AF010000 		.word	.L21+1
 356 0064 AF010000 		.word	.L21+1
 357 0068 AF010000 		.word	.L21+1
 358 006c 8B010000 		.word	.L28+1
 359 0070 AF010000 		.word	.L21+1
 360 0074 AF010000 		.word	.L21+1
 361 0078 AF010000 		.word	.L21+1
 362 007c AF010000 		.word	.L21+1
 363 0080 AF010000 		.word	.L21+1
 364 0084 AF010000 		.word	.L21+1
 365 0088 85010000 		.word	.L29+1
 366 008c AF010000 		.word	.L21+1
 367 0090 AF010000 		.word	.L21+1
 368 0094 AF010000 		.word	.L21+1
 369 0098 AF010000 		.word	.L21+1
 370 009c AF010000 		.word	.L21+1
 371 00a0 AF010000 		.word	.L21+1
 372 00a4 AF010000 		.word	.L21+1
 373 00a8 AF010000 		.word	.L21+1
 374 00ac AF010000 		.word	.L21+1
 375 00b0 AF010000 		.word	.L21+1
 376 00b4 AF010000 		.word	.L21+1
 377 00b8 AF010000 		.word	.L21+1
 378 00bc AF010000 		.word	.L21+1
 379 00c0 AF010000 		.word	.L21+1
 380 00c4 7F010000 		.word	.L30+1
 381 00c8 AF010000 		.word	.L21+1
 382 00cc AF010000 		.word	.L21+1
 383 00d0 AF010000 		.word	.L21+1
 384 00d4 AF010000 		.word	.L21+1
 385 00d8 AF010000 		.word	.L21+1
 386 00dc AF010000 		.word	.L21+1
ARM GAS  C:\Users\Jona\AppData\Local\Temp\ccCJGPjC.s 			page 10


 387 00e0 AF010000 		.word	.L21+1
 388 00e4 AF010000 		.word	.L21+1
 389 00e8 AF010000 		.word	.L21+1
 390 00ec AF010000 		.word	.L21+1
 391 00f0 AF010000 		.word	.L21+1
 392 00f4 AF010000 		.word	.L21+1
 393 00f8 AF010000 		.word	.L21+1
 394 00fc AF010000 		.word	.L21+1
 395 0100 AF010000 		.word	.L21+1
 396 0104 AF010000 		.word	.L21+1
 397 0108 AF010000 		.word	.L21+1
 398 010c AF010000 		.word	.L21+1
 399 0110 AF010000 		.word	.L21+1
 400 0114 AF010000 		.word	.L21+1
 401 0118 AF010000 		.word	.L21+1
 402 011c AF010000 		.word	.L21+1
 403 0120 AF010000 		.word	.L21+1
 404 0124 AF010000 		.word	.L21+1
 405 0128 AF010000 		.word	.L21+1
 406 012c AF010000 		.word	.L21+1
 407 0130 AF010000 		.word	.L21+1
 408 0134 AF010000 		.word	.L21+1
 409 0138 AF010000 		.word	.L21+1
 410 013c AF010000 		.word	.L21+1
 411 0140 AF010000 		.word	.L21+1
 412 0144 AF010000 		.word	.L21+1
 413 0148 AF010000 		.word	.L21+1
 414 014c AF010000 		.word	.L21+1
 415 0150 AF010000 		.word	.L21+1
 416 0154 AF010000 		.word	.L21+1
 417 0158 AF010000 		.word	.L21+1
 418 015c AF010000 		.word	.L21+1
 419 0160 AF010000 		.word	.L21+1
 420 0164 AF010000 		.word	.L21+1
 421 0168 AF010000 		.word	.L21+1
 422 016c AF010000 		.word	.L21+1
 423 0170 AF010000 		.word	.L21+1
 424 0174 79010000 		.word	.L31+1
 425              		.p2align 1
 426              	.L31:
 126:audioCodec.c  ****         case 88: divider = 0xBC; break;
 427              		.loc 1 126 0
 428 0178 BC23     		movs	r3, #188
 429 017a FB73     		strb	r3, [r7, #15]
 430 017c 19E0     		b	.L32
 431              	.L30:
 127:audioCodec.c  ****         case 44: divider = 0xA0; break;
 432              		.loc 1 127 0
 433 017e A023     		movs	r3, #160
 434 0180 FB73     		strb	r3, [r7, #15]
 435 0182 16E0     		b	.L32
 436              	.L29:
 128:audioCodec.c  ****         case 29: divider = 0xA2; break; 
 437              		.loc 1 128 0
 438 0184 A223     		movs	r3, #162
 439 0186 FB73     		strb	r3, [r7, #15]
 440 0188 13E0     		b	.L32
ARM GAS  C:\Users\Jona\AppData\Local\Temp\ccCJGPjC.s 			page 11


 441              	.L28:
 129:audioCodec.c  ****         case 22: divider = 0xE0; break;
 442              		.loc 1 129 0
 443 018a E023     		movs	r3, #224
 444 018c FB73     		strb	r3, [r7, #15]
 445 018e 10E0     		b	.L32
 446              	.L27:
 130:audioCodec.c  ****         case 14: divider = 0xE2; break;     
 447              		.loc 1 130 0
 448 0190 E223     		movs	r3, #226
 449 0192 FB73     		strb	r3, [r7, #15]
 450 0194 0DE0     		b	.L32
 451              	.L26:
 131:audioCodec.c  ****         case  8: divider = 0xAC; break;
 452              		.loc 1 131 0
 453 0196 AC23     		movs	r3, #172
 454 0198 FB73     		strb	r3, [r7, #15]
 455 019a 0AE0     		b	.L32
 456              	.L25:
 132:audioCodec.c  ****         case  7: divider = 0x8C; break;
 457              		.loc 1 132 0
 458 019c 8C23     		movs	r3, #140
 459 019e FB73     		strb	r3, [r7, #15]
 460 01a0 07E0     		b	.L32
 461              	.L24:
 133:audioCodec.c  ****         case  4: divider = 0xEC; break;
 462              		.loc 1 133 0
 463 01a2 EC23     		movs	r3, #236
 464 01a4 FB73     		strb	r3, [r7, #15]
 465 01a6 04E0     		b	.L32
 466              	.L22:
 134:audioCodec.c  ****         case  2: divider = 0xCE; break;
 467              		.loc 1 134 0
 468 01a8 CE23     		movs	r3, #206
 469 01aa FB73     		strb	r3, [r7, #15]
 470 01ac 01E0     		b	.L32
 471              	.L21:
 135:audioCodec.c  ****         default: return(0);
 472              		.loc 1 135 0
 473 01ae 0023     		movs	r3, #0
 474 01b0 05E0     		b	.L33
 475              	.L32:
 136:audioCodec.c  ****     }
 137:audioCodec.c  ****     sendCodecCommand(SAMPLING_CTRL_Reg, divider);
 476              		.loc 1 137 0
 477 01b2 FB7B     		ldrb	r3, [r7, #15]	@ zero_extendqisi2
 478 01b4 1946     		mov	r1, r3
 479 01b6 1020     		movs	r0, #16
 480 01b8 FFF7FEFF 		bl	sendCodecCommand
 138:audioCodec.c  ****     return(sampleFreq);
 481              		.loc 1 138 0
 482 01bc FB79     		ldrb	r3, [r7, #7]	@ zero_extendqisi2
 483              	.L33:
 139:audioCodec.c  **** }
 484              		.loc 1 139 0
 485 01be 1846     		mov	r0, r3
 486 01c0 1037     		adds	r7, r7, #16
ARM GAS  C:\Users\Jona\AppData\Local\Temp\ccCJGPjC.s 			page 12


 487              		.cfi_def_cfa_offset 8
 488 01c2 BD46     		mov	sp, r7
 489              		.cfi_def_cfa_register 13
 490              		@ sp needed
 491 01c4 80BD     		pop	{r7, pc}
 492              		.cfi_endproc
 493              	.LFE67:
 494              		.size	StelSampleRateIn, .-StelSampleRateIn
 495 01c6 00BF     		.section	.text._berekenVolumeHP,"ax",%progbits
 496              		.align	2
 497              		.global	_berekenVolumeHP
 498              		.thumb
 499              		.thumb_func
 500              		.type	_berekenVolumeHP, %function
 501              	_berekenVolumeHP:
 502              	.LFB68:
 140:audioCodec.c  **** 
 141:audioCodec.c  **** /***********************************************************************************************
 142:audioCodec.c  ****  * Private functie Definities 
 143:audioCodec.c  ****  ***********************************************************************************************/
 144:audioCodec.c  **** // Bereken de volume-parameter voor de headphone (48-127) i.f.v. de potmeterwaarde (uint8 0-255)
 145:audioCodec.c  **** // zie definitie van LHPVOL en RHPVOC van de codec
 146:audioCodec.c  **** // volume dient aangepast te worden als de returnwaarde van deze functie > 0;
 147:audioCodec.c  **** uint8 _berekenVolumeHP(uint8 PotWaarde) {
 503              		.loc 1 147 0
 504              		.cfi_startproc
 505              		@ args = 0, pretend = 0, frame = 8
 506              		@ frame_needed = 1, uses_anonymous_args = 0
 507              		@ link register save eliminated.
 508 0000 80B4     		push	{r7}
 509              		.cfi_def_cfa_offset 4
 510              		.cfi_offset 7, -4
 511 0002 83B0     		sub	sp, sp, #12
 512              		.cfi_def_cfa_offset 16
 513 0004 00AF     		add	r7, sp, #0
 514              		.cfi_def_cfa_register 7
 515 0006 0346     		mov	r3, r0
 516 0008 FB71     		strb	r3, [r7, #7]
 148:audioCodec.c  ****     static uint16 Volume, VolumeOud = 1000;
 149:audioCodec.c  ****     if (VolumeOud > 255) 
 517              		.loc 1 149 0
 518 000a 1A4B     		ldr	r3, .L39
 519 000c 1B88     		ldrh	r3, [r3]
 520 000e FF2B     		cmp	r3, #255
 521 0010 04D9     		bls	.L35
 150:audioCodec.c  ****         // Initialisatie van de routine de eerste keer
 151:audioCodec.c  ****         Volume = (uint16)(PotWaarde & 0xFF);
 522              		.loc 1 151 0
 523 0012 FB79     		ldrb	r3, [r7, #7]	@ zero_extendqisi2
 524 0014 9AB2     		uxth	r2, r3
 525 0016 184B     		ldr	r3, .L39+4
 526 0018 1A80     		strh	r2, [r3]	@ movhi
 527 001a 0BE0     		b	.L36
 528              	.L35:
 152:audioCodec.c  ****     else
 153:audioCodec.c  ****         Volume = (Volume * 31 + ((uint16)PotWaarde & 0xFF)) >> 5;
 529              		.loc 1 153 0
ARM GAS  C:\Users\Jona\AppData\Local\Temp\ccCJGPjC.s 			page 13


 530 001c 164B     		ldr	r3, .L39+4
 531 001e 1B88     		ldrh	r3, [r3]
 532 0020 1A46     		mov	r2, r3
 533 0022 1346     		mov	r3, r2
 534 0024 5B01     		lsls	r3, r3, #5
 535 0026 9A1A     		subs	r2, r3, r2
 536 0028 FB79     		ldrb	r3, [r7, #7]	@ zero_extendqisi2
 537 002a 1344     		add	r3, r3, r2
 538 002c 5B11     		asrs	r3, r3, #5
 539 002e 9AB2     		uxth	r2, r3
 540 0030 114B     		ldr	r3, .L39+4
 541 0032 1A80     		strh	r2, [r3]	@ movhi
 542              	.L36:
 154:audioCodec.c  ****     if ((Volume - VolumeOud)!= 0) {
 543              		.loc 1 154 0
 544 0034 104B     		ldr	r3, .L39+4
 545 0036 1A88     		ldrh	r2, [r3]
 546 0038 0E4B     		ldr	r3, .L39
 547 003a 1B88     		ldrh	r3, [r3]
 548 003c 9A42     		cmp	r2, r3
 549 003e 12D0     		beq	.L37
 155:audioCodec.c  ****         VolumeOud = Volume;
 550              		.loc 1 155 0
 551 0040 0D4B     		ldr	r3, .L39+4
 552 0042 1A88     		ldrh	r2, [r3]
 553 0044 0B4B     		ldr	r3, .L39
 554 0046 1A80     		strh	r2, [r3]	@ movhi
 156:audioCodec.c  ****         return(MIN((uint8)((Volume*90>> 8) + 49),127));              // zie def LHPVOL en RHPVOC co
 555              		.loc 1 156 0
 556 0048 0B4B     		ldr	r3, .L39+4
 557 004a 1B88     		ldrh	r3, [r3]
 558 004c 1A46     		mov	r2, r3
 559 004e 5A23     		movs	r3, #90
 560 0050 03FB02F3 		mul	r3, r3, r2
 561 0054 1B12     		asrs	r3, r3, #8
 562 0056 DBB2     		uxtb	r3, r3
 563 0058 3133     		adds	r3, r3, #49
 564 005a DBB2     		uxtb	r3, r3
 565 005c 7F2B     		cmp	r3, #127
 566 005e 28BF     		it	cs
 567 0060 7F23     		movcs	r3, #127
 568 0062 DBB2     		uxtb	r3, r3
 569 0064 00E0     		b	.L38
 570              	.L37:
 157:audioCodec.c  ****     }
 158:audioCodec.c  ****     else 
 159:audioCodec.c  ****         return(0);
 571              		.loc 1 159 0
 572 0066 0023     		movs	r3, #0
 573              	.L38:
 160:audioCodec.c  **** }
 574              		.loc 1 160 0
 575 0068 1846     		mov	r0, r3
 576 006a 0C37     		adds	r7, r7, #12
 577              		.cfi_def_cfa_offset 4
 578 006c BD46     		mov	sp, r7
 579              		.cfi_def_cfa_register 13
ARM GAS  C:\Users\Jona\AppData\Local\Temp\ccCJGPjC.s 			page 14


 580              		@ sp needed
 581 006e 80BC     		pop	{r7}
 582              		.cfi_restore 7
 583              		.cfi_def_cfa_offset 0
 584 0070 7047     		bx	lr
 585              	.L40:
 586 0072 00BF     		.align	2
 587              	.L39:
 588 0074 00000000 		.word	VolumeOud.6441
 589 0078 02000000 		.word	Volume.6440
 590              		.cfi_endproc
 591              	.LFE68:
 592              		.size	_berekenVolumeHP, .-_berekenVolumeHP
 593              		.section	.text._berekenVolumeLineIn,"ax",%progbits
 594              		.align	2
 595              		.global	_berekenVolumeLineIn
 596              		.thumb
 597              		.thumb_func
 598              		.type	_berekenVolumeLineIn, %function
 599              	_berekenVolumeLineIn:
 600              	.LFB69:
 161:audioCodec.c  **** 
 162:audioCodec.c  **** // Bereken de volume-parameter voor de line-ingang (0-31) i.f.v. de potmeterwaarde (uint8 0-255)
 163:audioCodec.c  **** // zie definitie van LINVOL en RINVOC van de codec
 164:audioCodec.c  **** // volume dient aangepast te worden als de returnwaarde van deze functie > 31;
 165:audioCodec.c  **** uint8 _berekenVolumeLineIn(uint8 PotWaarde) {
 601              		.loc 1 165 0
 602              		.cfi_startproc
 603              		@ args = 0, pretend = 0, frame = 8
 604              		@ frame_needed = 1, uses_anonymous_args = 0
 605              		@ link register save eliminated.
 606 0000 80B4     		push	{r7}
 607              		.cfi_def_cfa_offset 4
 608              		.cfi_offset 7, -4
 609 0002 83B0     		sub	sp, sp, #12
 610              		.cfi_def_cfa_offset 16
 611 0004 00AF     		add	r7, sp, #0
 612              		.cfi_def_cfa_register 7
 613 0006 0346     		mov	r3, r0
 614 0008 FB71     		strb	r3, [r7, #7]
 166:audioCodec.c  ****     static uint16 LVolume, LVolumeOud = 1000;
 167:audioCodec.c  ****     if (LVolumeOud > 255) 
 615              		.loc 1 167 0
 616 000a 194B     		ldr	r3, .L46
 617 000c 1B88     		ldrh	r3, [r3]
 618 000e FF2B     		cmp	r3, #255
 619 0010 04D9     		bls	.L42
 168:audioCodec.c  ****         // Initialisatie van de routine de eerste keer
 169:audioCodec.c  ****         LVolume = (uint16)(PotWaarde & 0xFF);
 620              		.loc 1 169 0
 621 0012 FB79     		ldrb	r3, [r7, #7]	@ zero_extendqisi2
 622 0014 9AB2     		uxth	r2, r3
 623 0016 174B     		ldr	r3, .L46+4
 624 0018 1A80     		strh	r2, [r3]	@ movhi
 625 001a 0BE0     		b	.L43
 626              	.L42:
 170:audioCodec.c  ****     else
ARM GAS  C:\Users\Jona\AppData\Local\Temp\ccCJGPjC.s 			page 15


 171:audioCodec.c  ****         LVolume = (LVolume * 31 + ((uint16)PotWaarde & 0xFF)) >> 5;
 627              		.loc 1 171 0
 628 001c 154B     		ldr	r3, .L46+4
 629 001e 1B88     		ldrh	r3, [r3]
 630 0020 1A46     		mov	r2, r3
 631 0022 1346     		mov	r3, r2
 632 0024 5B01     		lsls	r3, r3, #5
 633 0026 9A1A     		subs	r2, r3, r2
 634 0028 FB79     		ldrb	r3, [r7, #7]	@ zero_extendqisi2
 635 002a 1344     		add	r3, r3, r2
 636 002c 5B11     		asrs	r3, r3, #5
 637 002e 9AB2     		uxth	r2, r3
 638 0030 104B     		ldr	r3, .L46+4
 639 0032 1A80     		strh	r2, [r3]	@ movhi
 640              	.L43:
 172:audioCodec.c  ****     if ((LVolume - LVolumeOud)!= 0) {
 641              		.loc 1 172 0
 642 0034 0F4B     		ldr	r3, .L46+4
 643 0036 1A88     		ldrh	r2, [r3]
 644 0038 0D4B     		ldr	r3, .L46
 645 003a 1B88     		ldrh	r3, [r3]
 646 003c 9A42     		cmp	r2, r3
 647 003e 10D0     		beq	.L44
 173:audioCodec.c  ****         LVolumeOud = LVolume;
 648              		.loc 1 173 0
 649 0040 0C4B     		ldr	r3, .L46+4
 650 0042 1A88     		ldrh	r2, [r3]
 651 0044 0A4B     		ldr	r3, .L46
 652 0046 1A80     		strh	r2, [r3]	@ movhi
 174:audioCodec.c  ****         return(MIN((uint8)((LVolume*9)>>6),31));              // zie def LINVOL en RINVOC codec
 653              		.loc 1 174 0
 654 0048 0A4B     		ldr	r3, .L46+4
 655 004a 1B88     		ldrh	r3, [r3]
 656 004c 1A46     		mov	r2, r3
 657 004e 1346     		mov	r3, r2
 658 0050 DB00     		lsls	r3, r3, #3
 659 0052 1344     		add	r3, r3, r2
 660 0054 9B11     		asrs	r3, r3, #6
 661 0056 DBB2     		uxtb	r3, r3
 662 0058 1F2B     		cmp	r3, #31
 663 005a A8BF     		it	ge
 664 005c 1F23     		movge	r3, #31
 665 005e DBB2     		uxtb	r3, r3
 666 0060 00E0     		b	.L45
 667              	.L44:
 175:audioCodec.c  ****     }
 176:audioCodec.c  ****     else 
 177:audioCodec.c  ****         return(32);
 668              		.loc 1 177 0
 669 0062 2023     		movs	r3, #32
 670              	.L45:
 178:audioCodec.c  **** }
 671              		.loc 1 178 0
 672 0064 1846     		mov	r0, r3
 673 0066 0C37     		adds	r7, r7, #12
 674              		.cfi_def_cfa_offset 4
 675 0068 BD46     		mov	sp, r7
ARM GAS  C:\Users\Jona\AppData\Local\Temp\ccCJGPjC.s 			page 16


 676              		.cfi_def_cfa_register 13
 677              		@ sp needed
 678 006a 80BC     		pop	{r7}
 679              		.cfi_restore 7
 680              		.cfi_def_cfa_offset 0
 681 006c 7047     		bx	lr
 682              	.L47:
 683 006e 00BF     		.align	2
 684              	.L46:
 685 0070 02000000 		.word	LVolumeOud.6446
 686 0074 04000000 		.word	LVolume.6445
 687              		.cfi_endproc
 688              	.LFE69:
 689              		.size	_berekenVolumeLineIn, .-_berekenVolumeLineIn
 690              		.bss
 691              	HPvolumeUit.6416:
 692 0000 00       		.space	1
 693              	LineVolumeUit.6421:
 694 0001 00       		.space	1
 695              		.data
 696              		.align	1
 697              		.type	VolumeOud.6441, %object
 698              		.size	VolumeOud.6441, 2
 699              	VolumeOud.6441:
 700 0000 E803     		.short	1000
 701              		.bss
 702              		.align	1
 703              	Volume.6440:
 704 0002 0000     		.space	2
 705              		.data
 706              		.align	1
 707              		.type	LVolumeOud.6446, %object
 708              		.size	LVolumeOud.6446, 2
 709              	LVolumeOud.6446:
 710 0002 E803     		.short	1000
 711              		.bss
 712              		.align	1
 713              	LVolume.6445:
 714 0004 0000     		.space	2
 715              		.text
 716              	.Letext0:
 717              		.file 2 "c:\\program files (x86)\\cypress\\psoc creator\\4.1\\psoc creator\\import\\gnu\\arm\\5.4.
 718              		.file 3 "c:\\program files (x86)\\cypress\\psoc creator\\4.1\\psoc creator\\import\\gnu\\arm\\5.4.
 719              		.file 4 "Generated_Source\\PSoC5/cytypes.h"
 720              		.file 5 "Generated_Source\\PSoC5/core_cm3.h"