ARM GAS  C:\Users\Jona\AppData\Local\Temp\cc6fh2gk.s 			page 1


   1              		.syntax unified
   2              		.cpu cortex-m3
   3              		.fpu softvfp
   4              		.eabi_attribute 20, 1
   5              		.eabi_attribute 21, 1
   6              		.eabi_attribute 23, 3
   7              		.eabi_attribute 24, 1
   8              		.eabi_attribute 25, 1
   9              		.eabi_attribute 26, 1
  10              		.eabi_attribute 30, 6
  11              		.eabi_attribute 34, 1
  12              		.eabi_attribute 18, 4
  13              		.thumb
  14              		.syntax unified
  15              		.file	"cyfitter_cfg.c"
  16              		.text
  17              	.Ltext0:
  18              		.cfi_sections	.debug_frame
  19              		.section	.text.CYMEMZERO,"ax",%progbits
  20              		.align	2
  21              		.thumb
  22              		.thumb_func
  23              		.type	CYMEMZERO, %function
  24              	CYMEMZERO:
  25              	.LFB0:
  26              		.file 1 "Generated_Source\\PSoC5\\cyfitter_cfg.c"
   1:Generated_Source\PSoC5/cyfitter_cfg.c **** 
   2:Generated_Source\PSoC5/cyfitter_cfg.c **** /*******************************************************************************
   3:Generated_Source\PSoC5/cyfitter_cfg.c **** * File Name: cyfitter_cfg.c
   4:Generated_Source\PSoC5/cyfitter_cfg.c **** * 
   5:Generated_Source\PSoC5/cyfitter_cfg.c **** * PSoC Creator  4.1 Update 1
   6:Generated_Source\PSoC5/cyfitter_cfg.c **** *
   7:Generated_Source\PSoC5/cyfitter_cfg.c **** * Description:
   8:Generated_Source\PSoC5/cyfitter_cfg.c **** * This file contains device initialization code.
   9:Generated_Source\PSoC5/cyfitter_cfg.c **** * Except for the user defined sections in CyClockStartupError(), this file should not be modified.
  10:Generated_Source\PSoC5/cyfitter_cfg.c **** * This file is automatically generated by PSoC Creator.
  11:Generated_Source\PSoC5/cyfitter_cfg.c **** *
  12:Generated_Source\PSoC5/cyfitter_cfg.c **** ********************************************************************************
  13:Generated_Source\PSoC5/cyfitter_cfg.c **** * Copyright (c) 2007-2017 Cypress Semiconductor.  All rights reserved.
  14:Generated_Source\PSoC5/cyfitter_cfg.c **** * You may use this file only in accordance with the license, terms, conditions, 
  15:Generated_Source\PSoC5/cyfitter_cfg.c **** * disclaimers, and limitations in the end user license agreement accompanying 
  16:Generated_Source\PSoC5/cyfitter_cfg.c **** * the software package with which this file was provided.
  17:Generated_Source\PSoC5/cyfitter_cfg.c **** ********************************************************************************/
  18:Generated_Source\PSoC5/cyfitter_cfg.c **** 
  19:Generated_Source\PSoC5/cyfitter_cfg.c **** #include <string.h>
  20:Generated_Source\PSoC5/cyfitter_cfg.c **** #include "cytypes.h"
  21:Generated_Source\PSoC5/cyfitter_cfg.c **** #include "cydevice_trm.h"
  22:Generated_Source\PSoC5/cyfitter_cfg.c **** #include "cyfitter.h"
  23:Generated_Source\PSoC5/cyfitter_cfg.c **** #include "CyLib.h"
  24:Generated_Source\PSoC5/cyfitter_cfg.c **** #include "cyfitter_cfg.h"
  25:Generated_Source\PSoC5/cyfitter_cfg.c **** 
  26:Generated_Source\PSoC5/cyfitter_cfg.c **** #define CY_NEED_CYCLOCKSTARTUPERROR 1
  27:Generated_Source\PSoC5/cyfitter_cfg.c **** 
  28:Generated_Source\PSoC5/cyfitter_cfg.c **** 
  29:Generated_Source\PSoC5/cyfitter_cfg.c **** #if defined(__GNUC__) || defined(__ARMCC_VERSION)
  30:Generated_Source\PSoC5/cyfitter_cfg.c ****     #define CYPACKED 
  31:Generated_Source\PSoC5/cyfitter_cfg.c ****     #define CYPACKED_ATTR __attribute__ ((packed))
ARM GAS  C:\Users\Jona\AppData\Local\Temp\cc6fh2gk.s 			page 2


  32:Generated_Source\PSoC5/cyfitter_cfg.c ****     #define CYALIGNED __attribute__ ((aligned))
  33:Generated_Source\PSoC5/cyfitter_cfg.c ****     #define CY_CFG_UNUSED __attribute__ ((unused))
  34:Generated_Source\PSoC5/cyfitter_cfg.c ****     #ifndef CY_CFG_SECTION
  35:Generated_Source\PSoC5/cyfitter_cfg.c ****         #define CY_CFG_SECTION __attribute__ ((section(".psocinit")))
  36:Generated_Source\PSoC5/cyfitter_cfg.c ****     #endif
  37:Generated_Source\PSoC5/cyfitter_cfg.c ****     
  38:Generated_Source\PSoC5/cyfitter_cfg.c ****     #if CYDEV_CONFIGURATION_DMA
  39:Generated_Source\PSoC5/cyfitter_cfg.c ****         #if (defined(__ARMCC_VERSION) || defined(__GNUC__))
  40:Generated_Source\PSoC5/cyfitter_cfg.c ****             #ifndef DMAINITSEC
  41:Generated_Source\PSoC5/cyfitter_cfg.c ****                 #define DMAINITSEC __attribute__ ((section(".dma_init")))
  42:Generated_Source\PSoC5/cyfitter_cfg.c ****             #endif
  43:Generated_Source\PSoC5/cyfitter_cfg.c ****         #elif defined(__ICCARM__)
  44:Generated_Source\PSoC5/cyfitter_cfg.c ****             #define DMAINITSEC _Pragma("location=\".dma_init\"")
  45:Generated_Source\PSoC5/cyfitter_cfg.c ****         #endif
  46:Generated_Source\PSoC5/cyfitter_cfg.c ****     #else
  47:Generated_Source\PSoC5/cyfitter_cfg.c ****         #define DMAINITSEC
  48:Generated_Source\PSoC5/cyfitter_cfg.c ****     #endif
  49:Generated_Source\PSoC5/cyfitter_cfg.c **** 
  50:Generated_Source\PSoC5/cyfitter_cfg.c ****     #if defined(__ARMCC_VERSION)
  51:Generated_Source\PSoC5/cyfitter_cfg.c ****         #define CY_CFG_MEMORY_BARRIER() __memory_changed()
  52:Generated_Source\PSoC5/cyfitter_cfg.c ****     #else
  53:Generated_Source\PSoC5/cyfitter_cfg.c ****         #define CY_CFG_MEMORY_BARRIER() __sync_synchronize()
  54:Generated_Source\PSoC5/cyfitter_cfg.c ****     #endif
  55:Generated_Source\PSoC5/cyfitter_cfg.c ****     
  56:Generated_Source\PSoC5/cyfitter_cfg.c **** #elif defined(__ICCARM__)
  57:Generated_Source\PSoC5/cyfitter_cfg.c ****     #include <intrinsics.h>
  58:Generated_Source\PSoC5/cyfitter_cfg.c **** 
  59:Generated_Source\PSoC5/cyfitter_cfg.c ****     #define CYPACKED __packed
  60:Generated_Source\PSoC5/cyfitter_cfg.c ****     #define CYPACKED_ATTR 
  61:Generated_Source\PSoC5/cyfitter_cfg.c ****     #define CYALIGNED _Pragma("data_alignment=4")
  62:Generated_Source\PSoC5/cyfitter_cfg.c ****     #define CY_CFG_UNUSED _Pragma("diag_suppress=Pe177")
  63:Generated_Source\PSoC5/cyfitter_cfg.c ****     #define CY_CFG_SECTION _Pragma("location=\".psocinit\"")
  64:Generated_Source\PSoC5/cyfitter_cfg.c ****     
  65:Generated_Source\PSoC5/cyfitter_cfg.c ****     #if CYDEV_CONFIGURATION_DMA
  66:Generated_Source\PSoC5/cyfitter_cfg.c ****         #if (defined(__ARMCC_VERSION) || defined(__GNUC__))
  67:Generated_Source\PSoC5/cyfitter_cfg.c ****             #ifndef DMAINITSEC
  68:Generated_Source\PSoC5/cyfitter_cfg.c ****                 #define DMAINITSEC __attribute__ ((section(".dma_init")))
  69:Generated_Source\PSoC5/cyfitter_cfg.c ****             #endif
  70:Generated_Source\PSoC5/cyfitter_cfg.c ****         #elif defined(__ICCARM__)
  71:Generated_Source\PSoC5/cyfitter_cfg.c ****             #define DMAINITSEC _Pragma("location=\".dma_init\"")
  72:Generated_Source\PSoC5/cyfitter_cfg.c ****         #endif
  73:Generated_Source\PSoC5/cyfitter_cfg.c ****     #else
  74:Generated_Source\PSoC5/cyfitter_cfg.c ****         #define DMAINITSEC
  75:Generated_Source\PSoC5/cyfitter_cfg.c ****     #endif
  76:Generated_Source\PSoC5/cyfitter_cfg.c **** 
  77:Generated_Source\PSoC5/cyfitter_cfg.c ****     #define CY_CFG_MEMORY_BARRIER() __DMB()
  78:Generated_Source\PSoC5/cyfitter_cfg.c ****     
  79:Generated_Source\PSoC5/cyfitter_cfg.c **** #else
  80:Generated_Source\PSoC5/cyfitter_cfg.c ****     #error Unsupported toolchain
  81:Generated_Source\PSoC5/cyfitter_cfg.c **** #endif
  82:Generated_Source\PSoC5/cyfitter_cfg.c **** 
  83:Generated_Source\PSoC5/cyfitter_cfg.c **** #ifndef CYCODE
  84:Generated_Source\PSoC5/cyfitter_cfg.c ****     #define CYCODE
  85:Generated_Source\PSoC5/cyfitter_cfg.c **** #endif
  86:Generated_Source\PSoC5/cyfitter_cfg.c **** #ifndef CYDATA
  87:Generated_Source\PSoC5/cyfitter_cfg.c ****     #define CYDATA
  88:Generated_Source\PSoC5/cyfitter_cfg.c **** #endif
ARM GAS  C:\Users\Jona\AppData\Local\Temp\cc6fh2gk.s 			page 3


  89:Generated_Source\PSoC5/cyfitter_cfg.c **** #ifndef CYFAR
  90:Generated_Source\PSoC5/cyfitter_cfg.c ****     #define CYFAR
  91:Generated_Source\PSoC5/cyfitter_cfg.c **** #endif
  92:Generated_Source\PSoC5/cyfitter_cfg.c **** #ifndef CYXDATA
  93:Generated_Source\PSoC5/cyfitter_cfg.c ****     #define CYXDATA
  94:Generated_Source\PSoC5/cyfitter_cfg.c **** #endif
  95:Generated_Source\PSoC5/cyfitter_cfg.c **** 
  96:Generated_Source\PSoC5/cyfitter_cfg.c **** 
  97:Generated_Source\PSoC5/cyfitter_cfg.c **** CY_CFG_UNUSED
  98:Generated_Source\PSoC5/cyfitter_cfg.c **** static void CYMEMZERO(void *s, size_t n);
  99:Generated_Source\PSoC5/cyfitter_cfg.c **** CY_CFG_UNUSED
 100:Generated_Source\PSoC5/cyfitter_cfg.c **** static void CYMEMZERO(void *s, size_t n)
 101:Generated_Source\PSoC5/cyfitter_cfg.c **** {
  27              		.loc 1 101 0
  28              		.cfi_startproc
  29              		@ args = 0, pretend = 0, frame = 8
  30              		@ frame_needed = 1, uses_anonymous_args = 0
  31 0000 80B5     		push	{r7, lr}
  32              		.cfi_def_cfa_offset 8
  33              		.cfi_offset 7, -8
  34              		.cfi_offset 14, -4
  35 0002 82B0     		sub	sp, sp, #8
  36              		.cfi_def_cfa_offset 16
  37 0004 00AF     		add	r7, sp, #0
  38              		.cfi_def_cfa_register 7
  39 0006 7860     		str	r0, [r7, #4]
  40 0008 3960     		str	r1, [r7]
 102:Generated_Source\PSoC5/cyfitter_cfg.c **** 	(void)memset(s, 0, n);
  41              		.loc 1 102 0
  42 000a 3A68     		ldr	r2, [r7]
  43 000c 0021     		movs	r1, #0
  44 000e 7868     		ldr	r0, [r7, #4]
  45 0010 FFF7FEFF 		bl	memset
 103:Generated_Source\PSoC5/cyfitter_cfg.c **** }
  46              		.loc 1 103 0
  47 0014 00BF     		nop
  48 0016 0837     		adds	r7, r7, #8
  49              		.cfi_def_cfa_offset 8
  50 0018 BD46     		mov	sp, r7
  51              		.cfi_def_cfa_register 13
  52              		@ sp needed
  53 001a 80BD     		pop	{r7, pc}
  54              		.cfi_endproc
  55              	.LFE0:
  56              		.size	CYMEMZERO, .-CYMEMZERO
  57              		.section	.text.CYCONFIGCPY,"ax",%progbits
  58              		.align	2
  59              		.thumb
  60              		.thumb_func
  61              		.type	CYCONFIGCPY, %function
  62              	CYCONFIGCPY:
  63              	.LFB1:
 104:Generated_Source\PSoC5/cyfitter_cfg.c **** CY_CFG_UNUSED
 105:Generated_Source\PSoC5/cyfitter_cfg.c **** static void CYCONFIGCPY(void *dest, const void *src, size_t n);
 106:Generated_Source\PSoC5/cyfitter_cfg.c **** CY_CFG_UNUSED
 107:Generated_Source\PSoC5/cyfitter_cfg.c **** static void CYCONFIGCPY(void *dest, const void *src, size_t n)
 108:Generated_Source\PSoC5/cyfitter_cfg.c **** {
ARM GAS  C:\Users\Jona\AppData\Local\Temp\cc6fh2gk.s 			page 4


  64              		.loc 1 108 0
  65              		.cfi_startproc
  66              		@ args = 0, pretend = 0, frame = 16
  67              		@ frame_needed = 1, uses_anonymous_args = 0
  68 0000 80B5     		push	{r7, lr}
  69              		.cfi_def_cfa_offset 8
  70              		.cfi_offset 7, -8
  71              		.cfi_offset 14, -4
  72 0002 84B0     		sub	sp, sp, #16
  73              		.cfi_def_cfa_offset 24
  74 0004 00AF     		add	r7, sp, #0
  75              		.cfi_def_cfa_register 7
  76 0006 F860     		str	r0, [r7, #12]
  77 0008 B960     		str	r1, [r7, #8]
  78 000a 7A60     		str	r2, [r7, #4]
 109:Generated_Source\PSoC5/cyfitter_cfg.c **** 	(void)memcpy(dest, src, n);
  79              		.loc 1 109 0
  80 000c 7A68     		ldr	r2, [r7, #4]
  81 000e B968     		ldr	r1, [r7, #8]
  82 0010 F868     		ldr	r0, [r7, #12]
  83 0012 FFF7FEFF 		bl	memcpy
 110:Generated_Source\PSoC5/cyfitter_cfg.c **** }
  84              		.loc 1 110 0
  85 0016 00BF     		nop
  86 0018 1037     		adds	r7, r7, #16
  87              		.cfi_def_cfa_offset 8
  88 001a BD46     		mov	sp, r7
  89              		.cfi_def_cfa_register 13
  90              		@ sp needed
  91 001c 80BD     		pop	{r7, pc}
  92              		.cfi_endproc
  93              	.LFE1:
  94              		.size	CYCONFIGCPY, .-CYCONFIGCPY
  95 001e 00BF     		.section	.text.CYCONFIGCPYCODE,"ax",%progbits
  96              		.align	2
  97              		.thumb
  98              		.thumb_func
  99              		.type	CYCONFIGCPYCODE, %function
 100              	CYCONFIGCPYCODE:
 101              	.LFB2:
 111:Generated_Source\PSoC5/cyfitter_cfg.c **** CY_CFG_UNUSED
 112:Generated_Source\PSoC5/cyfitter_cfg.c **** static void CYCONFIGCPYCODE(void *dest, const void *src, size_t n);
 113:Generated_Source\PSoC5/cyfitter_cfg.c **** CY_CFG_UNUSED
 114:Generated_Source\PSoC5/cyfitter_cfg.c **** static void CYCONFIGCPYCODE(void *dest, const void *src, size_t n)
 115:Generated_Source\PSoC5/cyfitter_cfg.c **** {
 102              		.loc 1 115 0
 103              		.cfi_startproc
 104              		@ args = 0, pretend = 0, frame = 16
 105              		@ frame_needed = 1, uses_anonymous_args = 0
 106 0000 80B5     		push	{r7, lr}
 107              		.cfi_def_cfa_offset 8
 108              		.cfi_offset 7, -8
 109              		.cfi_offset 14, -4
 110 0002 84B0     		sub	sp, sp, #16
 111              		.cfi_def_cfa_offset 24
 112 0004 00AF     		add	r7, sp, #0
 113              		.cfi_def_cfa_register 7
ARM GAS  C:\Users\Jona\AppData\Local\Temp\cc6fh2gk.s 			page 5


 114 0006 F860     		str	r0, [r7, #12]
 115 0008 B960     		str	r1, [r7, #8]
 116 000a 7A60     		str	r2, [r7, #4]
 116:Generated_Source\PSoC5/cyfitter_cfg.c **** 	(void)memcpy(dest, src, n);
 117              		.loc 1 116 0
 118 000c 7A68     		ldr	r2, [r7, #4]
 119 000e B968     		ldr	r1, [r7, #8]
 120 0010 F868     		ldr	r0, [r7, #12]
 121 0012 FFF7FEFF 		bl	memcpy
 117:Generated_Source\PSoC5/cyfitter_cfg.c **** }
 122              		.loc 1 117 0
 123 0016 00BF     		nop
 124 0018 1037     		adds	r7, r7, #16
 125              		.cfi_def_cfa_offset 8
 126 001a BD46     		mov	sp, r7
 127              		.cfi_def_cfa_register 13
 128              		@ sp needed
 129 001c 80BD     		pop	{r7, pc}
 130              		.cfi_endproc
 131              	.LFE2:
 132              		.size	CYCONFIGCPYCODE, .-CYCONFIGCPYCODE
 133 001e 00BF     		.section	.text.CyClockStartupError,"ax",%progbits
 134              		.align	2
 135              		.thumb
 136              		.thumb_func
 137              		.type	CyClockStartupError, %function
 138              	CyClockStartupError:
 139              	.LFB3:
 118:Generated_Source\PSoC5/cyfitter_cfg.c **** 
 119:Generated_Source\PSoC5/cyfitter_cfg.c **** 
 120:Generated_Source\PSoC5/cyfitter_cfg.c **** 
 121:Generated_Source\PSoC5/cyfitter_cfg.c **** 
 122:Generated_Source\PSoC5/cyfitter_cfg.c **** /* Clock startup error codes                                                   */
 123:Generated_Source\PSoC5/cyfitter_cfg.c **** #define CYCLOCKSTART_NO_ERROR    0u
 124:Generated_Source\PSoC5/cyfitter_cfg.c **** #define CYCLOCKSTART_XTAL_ERROR  1u
 125:Generated_Source\PSoC5/cyfitter_cfg.c **** #define CYCLOCKSTART_32KHZ_ERROR 2u
 126:Generated_Source\PSoC5/cyfitter_cfg.c **** #define CYCLOCKSTART_PLL_ERROR   3u
 127:Generated_Source\PSoC5/cyfitter_cfg.c **** #define CYCLOCKSTART_FLL_ERROR   4u
 128:Generated_Source\PSoC5/cyfitter_cfg.c **** 
 129:Generated_Source\PSoC5/cyfitter_cfg.c **** 
 130:Generated_Source\PSoC5/cyfitter_cfg.c **** #ifdef CY_NEED_CYCLOCKSTARTUPERROR
 131:Generated_Source\PSoC5/cyfitter_cfg.c **** /*******************************************************************************
 132:Generated_Source\PSoC5/cyfitter_cfg.c **** * Function Name: CyClockStartupError
 133:Generated_Source\PSoC5/cyfitter_cfg.c **** ********************************************************************************
 134:Generated_Source\PSoC5/cyfitter_cfg.c **** * Summary:
 135:Generated_Source\PSoC5/cyfitter_cfg.c **** *  If an error is encountered during clock configuration (crystal startup error,
 136:Generated_Source\PSoC5/cyfitter_cfg.c **** *  PLL lock error, etc.), the system will end up here.  Unless reimplemented by
 137:Generated_Source\PSoC5/cyfitter_cfg.c **** *  the customer, this function will stop in an infinite loop.
 138:Generated_Source\PSoC5/cyfitter_cfg.c **** *
 139:Generated_Source\PSoC5/cyfitter_cfg.c **** * Parameters:
 140:Generated_Source\PSoC5/cyfitter_cfg.c **** *   void
 141:Generated_Source\PSoC5/cyfitter_cfg.c **** *
 142:Generated_Source\PSoC5/cyfitter_cfg.c **** * Return:
 143:Generated_Source\PSoC5/cyfitter_cfg.c **** *   void
 144:Generated_Source\PSoC5/cyfitter_cfg.c **** *
 145:Generated_Source\PSoC5/cyfitter_cfg.c **** *******************************************************************************/
 146:Generated_Source\PSoC5/cyfitter_cfg.c **** CY_CFG_UNUSED
ARM GAS  C:\Users\Jona\AppData\Local\Temp\cc6fh2gk.s 			page 6


 147:Generated_Source\PSoC5/cyfitter_cfg.c **** static void CyClockStartupError(uint8 errorCode);
 148:Generated_Source\PSoC5/cyfitter_cfg.c **** CY_CFG_UNUSED
 149:Generated_Source\PSoC5/cyfitter_cfg.c **** static void CyClockStartupError(uint8 errorCode)
 150:Generated_Source\PSoC5/cyfitter_cfg.c **** {
 140              		.loc 1 150 0
 141              		.cfi_startproc
 142              		@ args = 0, pretend = 0, frame = 8
 143              		@ frame_needed = 1, uses_anonymous_args = 0
 144              		@ link register save eliminated.
 145 0000 80B4     		push	{r7}
 146              		.cfi_def_cfa_offset 4
 147              		.cfi_offset 7, -4
 148 0002 83B0     		sub	sp, sp, #12
 149              		.cfi_def_cfa_offset 16
 150 0004 00AF     		add	r7, sp, #0
 151              		.cfi_def_cfa_register 7
 152 0006 0346     		mov	r3, r0
 153 0008 FB71     		strb	r3, [r7, #7]
 154              	.L5:
 151:Generated_Source\PSoC5/cyfitter_cfg.c ****     /* To remove the compiler warning if errorCode not used. */
 152:Generated_Source\PSoC5/cyfitter_cfg.c **** #if defined(CY_PSOC3) && (CY_PSOC3)
 153:Generated_Source\PSoC5/cyfitter_cfg.c ****     errorCode = errorCode;
 154:Generated_Source\PSoC5/cyfitter_cfg.c **** #else
 155:Generated_Source\PSoC5/cyfitter_cfg.c ****     (void)errorCode;
 156:Generated_Source\PSoC5/cyfitter_cfg.c **** #endif /* CY_PSOC3 */
 157:Generated_Source\PSoC5/cyfitter_cfg.c **** 
 158:Generated_Source\PSoC5/cyfitter_cfg.c ****     /* If we have a clock startup error (bad MHz crystal, PLL lock, etc.),  */
 159:Generated_Source\PSoC5/cyfitter_cfg.c ****     /* we will end up here to allow the customer to implement something to  */
 160:Generated_Source\PSoC5/cyfitter_cfg.c ****     /* deal with the clock condition.                                       */
 161:Generated_Source\PSoC5/cyfitter_cfg.c **** 
 162:Generated_Source\PSoC5/cyfitter_cfg.c **** #ifdef CY_CFG_CLOCK_STARTUP_ERROR_CALLBACK
 163:Generated_Source\PSoC5/cyfitter_cfg.c ****     CY_CFG_Clock_Startup_ErrorCallback();
 164:Generated_Source\PSoC5/cyfitter_cfg.c **** #else
 165:Generated_Source\PSoC5/cyfitter_cfg.c ****     /*  If not using CY_CFG_CLOCK_STARTUP_ERROR_CALLBACK, place your clock startup code here. */
 166:Generated_Source\PSoC5/cyfitter_cfg.c ****     /* `#START CyClockStartupError` */
 167:Generated_Source\PSoC5/cyfitter_cfg.c **** 
 168:Generated_Source\PSoC5/cyfitter_cfg.c ****     /* If we have a clock startup error (bad MHz crystal, PLL lock, etc.),  */
 169:Generated_Source\PSoC5/cyfitter_cfg.c ****     /* we will end up here to allow the customer to implement something to  */
 170:Generated_Source\PSoC5/cyfitter_cfg.c ****     /* deal with the clock condition.                                       */
 171:Generated_Source\PSoC5/cyfitter_cfg.c **** 
 172:Generated_Source\PSoC5/cyfitter_cfg.c ****     /* `#END` */
 173:Generated_Source\PSoC5/cyfitter_cfg.c **** 
 174:Generated_Source\PSoC5/cyfitter_cfg.c ****     while(1) {}
 155              		.loc 1 174 0 discriminator 1
 156 000a FEE7     		b	.L5
 157              		.cfi_endproc
 158              	.LFE3:
 159              		.size	CyClockStartupError, .-CyClockStartupError
 160              		.section	.dma_init,"a",%progbits
 161              		.align	2
 162              		.type	CH1_ADDR_DATA0.4966, %object
 163              		.size	CH1_ADDR_DATA0.4966, 8
 164              	CH1_ADDR_DATA0.4966:
 165 0000 01       		.byte	1
 166 0001 00       		.byte	0
 167 0002 00       		.byte	0
 168 0003 00       		.byte	0
ARM GAS  C:\Users\Jona\AppData\Local\Temp\cc6fh2gk.s 			page 7


 169 0004 00       		.byte	0
 170 0005 20       		.byte	32
 171 0006 00       		.byte	0
 172 0007 40       		.byte	64
 173              		.align	2
 174              		.type	CH2_ADDR_DATA0.4967, %object
 175              		.size	CH2_ADDR_DATA0.4967, 8
 176              	CH2_ADDR_DATA0.4967:
 177 0008 01       		.byte	1
 178 0009 00       		.byte	0
 179 000a 00       		.byte	0
 180 000b 00       		.byte	0
 181 000c 00       		.byte	0
 182 000d 20       		.byte	32
 183 000e 01       		.byte	1
 184 000f 40       		.byte	64
 185              		.align	2
 186              		.type	CH5_ADDR_DATA0.4968, %object
 187              		.size	CH5_ADDR_DATA0.4968, 8
 188              	CH5_ADDR_DATA0.4968:
 189 0010 01       		.byte	1
 190 0011 00       		.byte	0
 191 0012 00       		.byte	0
 192 0013 00       		.byte	0
 193 0014 00       		.byte	0
 194 0015 48       		.byte	72
 195 0016 00       		.byte	0
 196 0017 40       		.byte	64
 197              		.align	2
 198              		.type	CH6_ADDR_DATA0.4969, %object
 199              		.size	CH6_ADDR_DATA0.4969, 8
 200              	CH6_ADDR_DATA0.4969:
 201 0018 01       		.byte	1
 202 0019 00       		.byte	0
 203 001a 00       		.byte	0
 204 001b 00       		.byte	0
 205 001c 00       		.byte	0
 206 001d 48       		.byte	72
 207 001e 01       		.byte	1
 208 001f 40       		.byte	64
 209              		.align	2
 210              		.type	DMA_TD_START_CMD.4970, %object
 211              		.size	DMA_TD_START_CMD.4970, 5
 212              	DMA_TD_START_CMD.4970:
 213 0020 01       		.byte	1
 214 0021 00       		.byte	0
 215 0022 00       		.byte	0
 216 0023 00       		.byte	0
 217 0024 01       		.byte	1
 218 0025 000000   		.align	2
 219              		.type	CFG_TD_LIST0.4972, %object
 220              		.size	CFG_TD_LIST0.4972, 640
 221              	CFG_TD_LIST0.4972:
 222 0028 0800     		.short	8
 223 002a 02       		.byte	2
 224 002b 23       		.byte	35
 225 002c 0000     		.short	0
ARM GAS  C:\Users\Jona\AppData\Local\Temp\cc6fh2gk.s 			page 8


 226 002e 0876     		.short	30216
 227 0030 0800     		.short	8
 228 0032 03       		.byte	3
 229 0033 23       		.byte	35
 230 0034 0000     		.short	0
 231 0036 1076     		.short	30224
 232 0038 0800     		.short	8
 233 003a 04       		.byte	4
 234 003b 23       		.byte	35
 235 003c 0000     		.short	0
 236 003e 2876     		.short	30248
 237 0040 0800     		.short	8
 238 0042 05       		.byte	5
 239 0043 23       		.byte	35
 240 0044 0000     		.short	0
 241 0046 3076     		.short	30256
 242 0048 0500     		.short	5
 243 004a 06       		.byte	6
 244 004b 23       		.byte	35
 245 004c 0000     		.short	0
 246 004e 2070     		.short	28704
 247 0050 0500     		.short	5
 248 0052 07       		.byte	7
 249 0053 23       		.byte	35
 250 0054 0000     		.short	0
 251 0056 3070     		.short	28720
 252 0058 0500     		.short	5
 253 005a 08       		.byte	8
 254 005b 23       		.byte	35
 255 005c 0000     		.short	0
 256 005e 6070     		.short	28768
 257 0060 0500     		.short	5
 258 0062 FE       		.byte	-2
 259 0063 23       		.byte	35
 260 0064 0000     		.short	0
 261 0066 7070     		.short	28784
 262 0068 4000     		.short	64
 263 006a FE       		.byte	-2
 264 006b 22       		.byte	34
 265 006c 0000     		.short	0
 266 006e 3051     		.short	20784
 267 0070 8001     		.short	384
 268 0072 0B       		.byte	11
 269 0073 22       		.byte	34
 270 0074 0000     		.short	0
 271 0076 0000     		.short	0
 272 0078 8001     		.short	384
 273 007a 0C       		.byte	12
 274 007b 22       		.byte	34
 275 007c 0000     		.short	0
 276 007e 000A     		.short	2560
 277 0080 8001     		.short	384
 278 0082 0D       		.byte	13
 279 0083 22       		.byte	34
 280 0084 0000     		.short	0
 281 0086 000C     		.short	3072
 282 0088 8001     		.short	384
ARM GAS  C:\Users\Jona\AppData\Local\Temp\cc6fh2gk.s 			page 9


 283 008a 0E       		.byte	14
 284 008b 22       		.byte	34
 285 008c 0000     		.short	0
 286 008e 000E     		.short	3584
 287 0090 8001     		.short	384
 288 0092 0F       		.byte	15
 289 0093 22       		.byte	34
 290 0094 0000     		.short	0
 291 0096 001A     		.short	6656
 292 0098 8000     		.short	128
 293 009a 10       		.byte	16
 294 009b 22       		.byte	34
 295 009c 0000     		.short	0
 296 009e 0041     		.short	16640
 297 00a0 8000     		.short	128
 298 00a2 11       		.byte	17
 299 00a3 22       		.byte	34
 300 00a4 0000     		.short	0
 301 00a6 0043     		.short	17152
 302 00a8 8000     		.short	128
 303 00aa FE       		.byte	-2
 304 00ab 22       		.byte	34
 305 00ac 0000     		.short	0
 306 00ae 0047     		.short	18176
 307 00b0 0700     		.short	7
 308 00b2 13       		.byte	19
 309 00b3 23       		.byte	35
 310 00b4 0000     		.short	0
 311 00b6 1052     		.short	21008
 312 00b8 0600     		.short	6
 313 00ba 14       		.byte	20
 314 00bb 23       		.byte	35
 315 00bc 0000     		.short	0
 316 00be 6052     		.short	21088
 317 00c0 0700     		.short	7
 318 00c2 15       		.byte	21
 319 00c3 23       		.byte	35
 320 00c4 0000     		.short	0
 321 00c6 7852     		.short	21112
 322 00c8 0800     		.short	8
 323 00ca 16       		.byte	22
 324 00cb 23       		.byte	35
 325 00cc 0000     		.short	0
 326 00ce 285B     		.short	23336
 327 00d0 4000     		.short	64
 328 00d2 17       		.byte	23
 329 00d3 23       		.byte	35
 330 00d4 0000     		.short	0
 331 00d6 0064     		.short	25600
 332 00d8 2000     		.short	32
 333 00da FE       		.byte	-2
 334 00db 23       		.byte	35
 335 00dc 0000     		.short	0
 336 00de 7065     		.short	25968
 337 00e0 0800     		.short	8
 338 00e2 19       		.byte	25
 339 00e3 23       		.byte	35
ARM GAS  C:\Users\Jona\AppData\Local\Temp\cc6fh2gk.s 			page 10


 340 00e4 0000     		.short	0
 341 00e6 0051     		.short	20736
 342 00e8 8000     		.short	128
 343 00ea 1A       		.byte	26
 344 00eb 23       		.byte	35
 345 00ec 0000     		.short	0
 346 00ee 0002     		.short	512
 347 00f0 8000     		.short	128
 348 00f2 1B       		.byte	27
 349 00f3 23       		.byte	35
 350 00f4 0000     		.short	0
 351 00f6 8002     		.short	640
 352 00f8 8000     		.short	128
 353 00fa 1C       		.byte	28
 354 00fb 23       		.byte	35
 355 00fc 0000     		.short	0
 356 00fe 0004     		.short	1024
 357 0100 8000     		.short	128
 358 0102 1D       		.byte	29
 359 0103 23       		.byte	35
 360 0104 0000     		.short	0
 361 0106 8004     		.short	1152
 362 0108 8000     		.short	128
 363 010a 1E       		.byte	30
 364 010b 23       		.byte	35
 365 010c 0000     		.short	0
 366 010e 0006     		.short	1536
 367 0110 8000     		.short	128
 368 0112 1F       		.byte	31
 369 0113 23       		.byte	35
 370 0114 0000     		.short	0
 371 0116 8006     		.short	1664
 372 0118 8000     		.short	128
 373 011a 20       		.byte	32
 374 011b 23       		.byte	35
 375 011c 0000     		.short	0
 376 011e 0008     		.short	2048
 377 0120 8000     		.short	128
 378 0122 21       		.byte	33
 379 0123 23       		.byte	35
 380 0124 0000     		.short	0
 381 0126 8008     		.short	2176
 382 0128 8000     		.short	128
 383 012a 22       		.byte	34
 384 012b 23       		.byte	35
 385 012c 0000     		.short	0
 386 012e 0014     		.short	5120
 387 0130 8000     		.short	128
 388 0132 23       		.byte	35
 389 0133 23       		.byte	35
 390 0134 0000     		.short	0
 391 0136 8014     		.short	5248
 392 0138 8000     		.short	128
 393 013a 24       		.byte	36
 394 013b 23       		.byte	35
 395 013c 0000     		.short	0
 396 013e 0016     		.short	5632
ARM GAS  C:\Users\Jona\AppData\Local\Temp\cc6fh2gk.s 			page 11


 397 0140 8000     		.short	128
 398 0142 25       		.byte	37
 399 0143 23       		.byte	35
 400 0144 0000     		.short	0
 401 0146 8016     		.short	5760
 402 0148 8000     		.short	128
 403 014a 26       		.byte	38
 404 014b 23       		.byte	35
 405 014c 0000     		.short	0
 406 014e 0018     		.short	6144
 407 0150 8000     		.short	128
 408 0152 27       		.byte	39
 409 0153 23       		.byte	35
 410 0154 0000     		.short	0
 411 0156 8018     		.short	6272
 412 0158 1000     		.short	16
 413 015a 28       		.byte	40
 414 015b 23       		.byte	35
 415 015c 0000     		.short	0
 416 015e 1050     		.short	20496
 417 0160 1000     		.short	16
 418 0162 29       		.byte	41
 419 0163 23       		.byte	35
 420 0164 0000     		.short	0
 421 0166 0050     		.short	20480
 422 0168 8000     		.short	128
 423 016a 2A       		.byte	42
 424 016b 23       		.byte	35
 425 016c 0000     		.short	0
 426 016e 004D     		.short	19712
 427 0170 8000     		.short	128
 428 0172 2B       		.byte	43
 429 0173 23       		.byte	35
 430 0174 0000     		.short	0
 431 0176 804D     		.short	19840
 432 0178 8000     		.short	128
 433 017a 2C       		.byte	44
 434 017b 23       		.byte	35
 435 017c 0000     		.short	0
 436 017e 004C     		.short	19456
 437 0180 8000     		.short	128
 438 0182 2D       		.byte	45
 439 0183 23       		.byte	35
 440 0184 0000     		.short	0
 441 0186 804C     		.short	19584
 442 0188 8000     		.short	128
 443 018a 2E       		.byte	46
 444 018b 23       		.byte	35
 445 018c 0000     		.short	0
 446 018e 8047     		.short	18304
 447 0190 8000     		.short	128
 448 0192 2F       		.byte	47
 449 0193 23       		.byte	35
 450 0194 0000     		.short	0
 451 0196 0046     		.short	17920
 452 0198 8000     		.short	128
 453 019a 30       		.byte	48
ARM GAS  C:\Users\Jona\AppData\Local\Temp\cc6fh2gk.s 			page 12


 454 019b 23       		.byte	35
 455 019c 0000     		.short	0
 456 019e 8046     		.short	18048
 457 01a0 8000     		.short	128
 458 01a2 31       		.byte	49
 459 01a3 23       		.byte	35
 460 01a4 0000     		.short	0
 461 01a6 0045     		.short	17664
 462 01a8 8000     		.short	128
 463 01aa 32       		.byte	50
 464 01ab 23       		.byte	35
 465 01ac 0000     		.short	0
 466 01ae 8045     		.short	17792
 467 01b0 8000     		.short	128
 468 01b2 33       		.byte	51
 469 01b3 23       		.byte	35
 470 01b4 0000     		.short	0
 471 01b6 0044     		.short	17408
 472 01b8 8000     		.short	128
 473 01ba 34       		.byte	52
 474 01bb 23       		.byte	35
 475 01bc 0000     		.short	0
 476 01be 8044     		.short	17536
 477 01c0 8000     		.short	128
 478 01c2 35       		.byte	53
 479 01c3 23       		.byte	35
 480 01c4 0000     		.short	0
 481 01c6 801B     		.short	7040
 482 01c8 8000     		.short	128
 483 01ca 36       		.byte	54
 484 01cb 23       		.byte	35
 485 01cc 0000     		.short	0
 486 01ce 0015     		.short	5376
 487 01d0 8000     		.short	128
 488 01d2 37       		.byte	55
 489 01d3 23       		.byte	35
 490 01d4 0000     		.short	0
 491 01d6 8015     		.short	5504
 492 01d8 8000     		.short	128
 493 01da 38       		.byte	56
 494 01db 23       		.byte	35
 495 01dc 0000     		.short	0
 496 01de 0019     		.short	6400
 497 01e0 8000     		.short	128
 498 01e2 39       		.byte	57
 499 01e3 23       		.byte	35
 500 01e4 0000     		.short	0
 501 01e6 8019     		.short	6528
 502 01e8 8000     		.short	128
 503 01ea 3A       		.byte	58
 504 01eb 23       		.byte	35
 505 01ec 0000     		.short	0
 506 01ee 0017     		.short	5888
 507 01f0 8000     		.short	128
 508 01f2 3B       		.byte	59
 509 01f3 23       		.byte	35
 510 01f4 0000     		.short	0
ARM GAS  C:\Users\Jona\AppData\Local\Temp\cc6fh2gk.s 			page 13


 511 01f6 8017     		.short	6016
 512 01f8 8000     		.short	128
 513 01fa 3C       		.byte	60
 514 01fb 23       		.byte	35
 515 01fc 0000     		.short	0
 516 01fe 0009     		.short	2304
 517 0200 8000     		.short	128
 518 0202 3D       		.byte	61
 519 0203 23       		.byte	35
 520 0204 0000     		.short	0
 521 0206 8009     		.short	2432
 522 0208 8000     		.short	128
 523 020a 3E       		.byte	62
 524 020b 23       		.byte	35
 525 020c 0000     		.short	0
 526 020e 0007     		.short	1792
 527 0210 8000     		.short	128
 528 0212 3F       		.byte	63
 529 0213 23       		.byte	35
 530 0214 0000     		.short	0
 531 0216 8007     		.short	1920
 532 0218 8000     		.short	128
 533 021a 40       		.byte	64
 534 021b 23       		.byte	35
 535 021c 0000     		.short	0
 536 021e 800B     		.short	2944
 537 0220 8000     		.short	128
 538 0222 41       		.byte	65
 539 0223 23       		.byte	35
 540 0224 0000     		.short	0
 541 0226 0005     		.short	1280
 542 0228 8000     		.short	128
 543 022a 42       		.byte	66
 544 022b 23       		.byte	35
 545 022c 0000     		.short	0
 546 022e 8005     		.short	1408
 547 0230 8000     		.short	128
 548 0232 43       		.byte	67
 549 0233 23       		.byte	35
 550 0234 0000     		.short	0
 551 0236 800D     		.short	3456
 552 0238 8000     		.short	128
 553 023a 44       		.byte	68
 554 023b 23       		.byte	35
 555 023c 0000     		.short	0
 556 023e 0003     		.short	768
 557 0240 8000     		.short	128
 558 0242 45       		.byte	69
 559 0243 23       		.byte	35
 560 0244 0000     		.short	0
 561 0246 8003     		.short	896
 562 0248 8000     		.short	128
 563 024a 46       		.byte	70
 564 024b 23       		.byte	35
 565 024c 0000     		.short	0
 566 024e 800F     		.short	3968
 567 0250 8000     		.short	128
ARM GAS  C:\Users\Jona\AppData\Local\Temp\cc6fh2gk.s 			page 14


 568 0252 47       		.byte	71
 569 0253 23       		.byte	35
 570 0254 0000     		.short	0
 571 0256 8001     		.short	384
 572 0258 8000     		.short	128
 573 025a 48       		.byte	72
 574 025b 23       		.byte	35
 575 025c 0000     		.short	0
 576 025e 0049     		.short	18688
 577 0260 8000     		.short	128
 578 0262 49       		.byte	73
 579 0263 23       		.byte	35
 580 0264 0000     		.short	0
 581 0266 8049     		.short	18816
 582 0268 8000     		.short	128
 583 026a 4A       		.byte	74
 584 026b 23       		.byte	35
 585 026c 0000     		.short	0
 586 026e 0048     		.short	18432
 587 0270 8000     		.short	128
 588 0272 4B       		.byte	75
 589 0273 23       		.byte	35
 590 0274 0000     		.short	0
 591 0276 8048     		.short	18560
 592 0278 8000     		.short	128
 593 027a 4C       		.byte	76
 594 027b 23       		.byte	35
 595 027c 0000     		.short	0
 596 027e 8043     		.short	17280
 597 0280 8000     		.short	128
 598 0282 4D       		.byte	77
 599 0283 23       		.byte	35
 600 0284 0000     		.short	0
 601 0286 0042     		.short	16896
 602 0288 8000     		.short	128
 603 028a 4E       		.byte	78
 604 028b 23       		.byte	35
 605 028c 0000     		.short	0
 606 028e 8042     		.short	17024
 607 0290 8000     		.short	128
 608 0292 4F       		.byte	79
 609 0293 23       		.byte	35
 610 0294 0000     		.short	0
 611 0296 8041     		.short	16768
 612 0298 8000     		.short	128
 613 029a 50       		.byte	80
 614 029b 23       		.byte	35
 615 029c 0000     		.short	0
 616 029e 0040     		.short	16384
 617 02a0 8000     		.short	128
 618 02a2 FE       		.byte	-2
 619 02a3 23       		.byte	35
 620 02a4 0000     		.short	0
 621 02a6 8040     		.short	16512
 622              		.section	.text.cfg_dma_init,"ax",%progbits
 623              		.align	2
 624              		.thumb
ARM GAS  C:\Users\Jona\AppData\Local\Temp\cc6fh2gk.s 			page 15


 625              		.thumb_func
 626              		.type	cfg_dma_init, %function
 627              	cfg_dma_init:
 628              	.LFB4:
 175:Generated_Source\PSoC5/cyfitter_cfg.c **** #endif /* CY_CFG_CLOCK_STARTUP_ERROR_CALLBACK */
 176:Generated_Source\PSoC5/cyfitter_cfg.c **** }
 177:Generated_Source\PSoC5/cyfitter_cfg.c **** #endif
 178:Generated_Source\PSoC5/cyfitter_cfg.c **** 
 179:Generated_Source\PSoC5/cyfitter_cfg.c **** /* IDMUX Address: CYREG_IDMUX_DRQ_CTL0 Size (bytes): 6 */
 180:Generated_Source\PSoC5/cyfitter_cfg.c **** #define BS_IDMUX_VAL ((const uint8 CYFAR *)0x48000000u)
 181:Generated_Source\PSoC5/cyfitter_cfg.c **** 
 182:Generated_Source\PSoC5/cyfitter_cfg.c **** /* IOPORT_2 Address: CYDEV_PRTDSI_PRT2_BASE Size (bytes): 7 */
 183:Generated_Source\PSoC5/cyfitter_cfg.c **** #define BS_IOPORT_2_VAL ((const uint8 CYFAR *)0x48000008u)
 184:Generated_Source\PSoC5/cyfitter_cfg.c **** 
 185:Generated_Source\PSoC5/cyfitter_cfg.c **** /* IOPORT_7 Address: CYDEV_PRTDSI_PRT12_BASE Size (bytes): 6 */
 186:Generated_Source\PSoC5/cyfitter_cfg.c **** #define BS_IOPORT_7_VAL ((const uint8 CYFAR *)0x48000010u)
 187:Generated_Source\PSoC5/cyfitter_cfg.c **** 
 188:Generated_Source\PSoC5/cyfitter_cfg.c **** /* IOPORT_8 Address: CYDEV_PRTDSI_PRT15_BASE Size (bytes): 7 */
 189:Generated_Source\PSoC5/cyfitter_cfg.c **** #define BS_IOPORT_8_VAL ((const uint8 CYFAR *)0x48000018u)
 190:Generated_Source\PSoC5/cyfitter_cfg.c **** 
 191:Generated_Source\PSoC5/cyfitter_cfg.c **** /* IDMUX_IRQ Address: CYREG_IDMUX_IRQ_CTL0 Size (bytes): 8 */
 192:Generated_Source\PSoC5/cyfitter_cfg.c **** #define BS_IDMUX_IRQ_VAL ((const uint8 CYFAR *)0x48000020u)
 193:Generated_Source\PSoC5/cyfitter_cfg.c **** 
 194:Generated_Source\PSoC5/cyfitter_cfg.c **** /* SAR1 Address: CYREG_SAR1_SW0 Size (bytes): 8 */
 195:Generated_Source\PSoC5/cyfitter_cfg.c **** #define BS_SAR1_VAL ((const uint8 CYFAR *)0x48000028u)
 196:Generated_Source\PSoC5/cyfitter_cfg.c **** 
 197:Generated_Source\PSoC5/cyfitter_cfg.c **** /* UDB_1_4_1_CONFIG Address: CYDEV_UCFG_B0_P1_U0_BASE Size (bytes): 128 */
 198:Generated_Source\PSoC5/cyfitter_cfg.c **** #define BS_UDB_1_4_1_CONFIG_VAL ((const uint8 CYFAR *)0x48000030u)
 199:Generated_Source\PSoC5/cyfitter_cfg.c **** 
 200:Generated_Source\PSoC5/cyfitter_cfg.c **** /* UDB_1_4_0_CONFIG Address: CYDEV_UCFG_B0_P1_U1_BASE Size (bytes): 128 */
 201:Generated_Source\PSoC5/cyfitter_cfg.c **** #define BS_UDB_1_4_0_CONFIG_VAL ((const uint8 CYFAR *)0x480000B0u)
 202:Generated_Source\PSoC5/cyfitter_cfg.c **** 
 203:Generated_Source\PSoC5/cyfitter_cfg.c **** /* UDB_1_3_0_CONFIG Address: CYDEV_UCFG_B0_P2_U0_BASE Size (bytes): 128 */
 204:Generated_Source\PSoC5/cyfitter_cfg.c **** #define BS_UDB_1_3_0_CONFIG_VAL ((const uint8 CYFAR *)0x48000130u)
 205:Generated_Source\PSoC5/cyfitter_cfg.c **** 
 206:Generated_Source\PSoC5/cyfitter_cfg.c **** /* UDB_1_3_1_CONFIG Address: CYDEV_UCFG_B0_P2_U1_BASE Size (bytes): 128 */
 207:Generated_Source\PSoC5/cyfitter_cfg.c **** #define BS_UDB_1_3_1_CONFIG_VAL ((const uint8 CYFAR *)0x480001B0u)
 208:Generated_Source\PSoC5/cyfitter_cfg.c **** 
 209:Generated_Source\PSoC5/cyfitter_cfg.c **** /* UDB_1_2_1_CONFIG Address: CYDEV_UCFG_B0_P3_U0_BASE Size (bytes): 128 */
 210:Generated_Source\PSoC5/cyfitter_cfg.c **** #define BS_UDB_1_2_1_CONFIG_VAL ((const uint8 CYFAR *)0x48000230u)
 211:Generated_Source\PSoC5/cyfitter_cfg.c **** 
 212:Generated_Source\PSoC5/cyfitter_cfg.c **** /* UDB_1_2_0_CONFIG Address: CYDEV_UCFG_B0_P3_U1_BASE Size (bytes): 128 */
 213:Generated_Source\PSoC5/cyfitter_cfg.c **** #define BS_UDB_1_2_0_CONFIG_VAL ((const uint8 CYFAR *)0x480002B0u)
 214:Generated_Source\PSoC5/cyfitter_cfg.c **** 
 215:Generated_Source\PSoC5/cyfitter_cfg.c **** /* UDB_0_2_1_CONFIG Address: CYDEV_UCFG_B0_P4_U0_BASE Size (bytes): 128 */
 216:Generated_Source\PSoC5/cyfitter_cfg.c **** #define BS_UDB_0_2_1_CONFIG_VAL ((const uint8 CYFAR *)0x48000330u)
 217:Generated_Source\PSoC5/cyfitter_cfg.c **** 
 218:Generated_Source\PSoC5/cyfitter_cfg.c **** /* UDB_0_2_0_CONFIG Address: CYDEV_UCFG_B0_P4_U1_BASE Size (bytes): 128 */
 219:Generated_Source\PSoC5/cyfitter_cfg.c **** #define BS_UDB_0_2_0_CONFIG_VAL ((const uint8 CYFAR *)0x480003B0u)
 220:Generated_Source\PSoC5/cyfitter_cfg.c **** 
 221:Generated_Source\PSoC5/cyfitter_cfg.c **** /* UDB_1_0_0_CONFIG Address: CYDEV_UCFG_B1_P2_U0_BASE Size (bytes): 128 */
 222:Generated_Source\PSoC5/cyfitter_cfg.c **** #define BS_UDB_1_0_0_CONFIG_VAL ((const uint8 CYFAR *)0x48000430u)
 223:Generated_Source\PSoC5/cyfitter_cfg.c **** 
 224:Generated_Source\PSoC5/cyfitter_cfg.c **** /* UDB_1_0_1_CONFIG Address: CYDEV_UCFG_B1_P2_U1_BASE Size (bytes): 128 */
 225:Generated_Source\PSoC5/cyfitter_cfg.c **** #define BS_UDB_1_0_1_CONFIG_VAL ((const uint8 CYFAR *)0x480004B0u)
 226:Generated_Source\PSoC5/cyfitter_cfg.c **** 
 227:Generated_Source\PSoC5/cyfitter_cfg.c **** /* UDB_1_1_1_CONFIG Address: CYDEV_UCFG_B1_P3_U0_BASE Size (bytes): 128 */
ARM GAS  C:\Users\Jona\AppData\Local\Temp\cc6fh2gk.s 			page 16


 228:Generated_Source\PSoC5/cyfitter_cfg.c **** #define BS_UDB_1_1_1_CONFIG_VAL ((const uint8 CYFAR *)0x48000530u)
 229:Generated_Source\PSoC5/cyfitter_cfg.c **** 
 230:Generated_Source\PSoC5/cyfitter_cfg.c **** /* UDB_1_1_0_CONFIG Address: CYDEV_UCFG_B1_P3_U1_BASE Size (bytes): 128 */
 231:Generated_Source\PSoC5/cyfitter_cfg.c **** #define BS_UDB_1_1_0_CONFIG_VAL ((const uint8 CYFAR *)0x480005B0u)
 232:Generated_Source\PSoC5/cyfitter_cfg.c **** 
 233:Generated_Source\PSoC5/cyfitter_cfg.c **** /* UDB_0_1_1_CONFIG Address: CYDEV_UCFG_B1_P4_U0_BASE Size (bytes): 128 */
 234:Generated_Source\PSoC5/cyfitter_cfg.c **** #define BS_UDB_0_1_1_CONFIG_VAL ((const uint8 CYFAR *)0x48000630u)
 235:Generated_Source\PSoC5/cyfitter_cfg.c **** 
 236:Generated_Source\PSoC5/cyfitter_cfg.c **** /* UDB_0_1_0_CONFIG Address: CYDEV_UCFG_B1_P4_U1_BASE Size (bytes): 128 */
 237:Generated_Source\PSoC5/cyfitter_cfg.c **** #define BS_UDB_0_1_0_CONFIG_VAL ((const uint8 CYFAR *)0x480006B0u)
 238:Generated_Source\PSoC5/cyfitter_cfg.c **** 
 239:Generated_Source\PSoC5/cyfitter_cfg.c **** /* UWRK_B0_WRK_DP_BITS Address: CYDEV_UWRK_UWRK8_B0_BASE Size (bytes): 64 */
 240:Generated_Source\PSoC5/cyfitter_cfg.c **** #define BS_UWRK_B0_WRK_DP_BITS_VAL ((const uint8 CYFAR *)0x48000730u)
 241:Generated_Source\PSoC5/cyfitter_cfg.c **** 
 242:Generated_Source\PSoC5/cyfitter_cfg.c **** /* UWRK_B1_WRK_STATCTL_BITS Address: CYDEV_UWRK_UWRK8_B1_BASE + 0x00000070u Size (bytes): 32 */
 243:Generated_Source\PSoC5/cyfitter_cfg.c **** #define BS_UWRK_B1_WRK_STATCTL_BITS_VAL ((const uint8 CYFAR *)0x48000770u)
 244:Generated_Source\PSoC5/cyfitter_cfg.c **** 
 245:Generated_Source\PSoC5/cyfitter_cfg.c **** /* UCFG_BCTL1 Address: CYREG_BCTL1_MDCLK_EN Size (bytes): 16 */
 246:Generated_Source\PSoC5/cyfitter_cfg.c **** #define BS_UCFG_BCTL1_VAL ((const uint8 CYFAR *)0x48000790u)
 247:Generated_Source\PSoC5/cyfitter_cfg.c **** 
 248:Generated_Source\PSoC5/cyfitter_cfg.c **** /* UCFG_BCTL0 Address: CYREG_BCTL0_MDCLK_EN Size (bytes): 16 */
 249:Generated_Source\PSoC5/cyfitter_cfg.c **** #define BS_UCFG_BCTL0_VAL ((const uint8 CYFAR *)0x480007A0u)
 250:Generated_Source\PSoC5/cyfitter_cfg.c **** 
 251:Generated_Source\PSoC5/cyfitter_cfg.c **** /* DSISWITCH_0_0 Address: CYDEV_UCFG_DSI13_BASE Size (bytes): 128 */
 252:Generated_Source\PSoC5/cyfitter_cfg.c **** #define BS_DSISWITCH_0_0_VAL ((const uint8 CYFAR *)0x480007B0u)
 253:Generated_Source\PSoC5/cyfitter_cfg.c **** 
 254:Generated_Source\PSoC5/cyfitter_cfg.c **** /* DSI0_0_HV_ROUTING Address: CYDEV_UCFG_DSI13_BASE + 0x00000080u Size (bytes): 128 */
 255:Generated_Source\PSoC5/cyfitter_cfg.c **** #define BS_DSI0_0_HV_ROUTING_VAL ((const uint8 CYFAR *)0x48000830u)
 256:Generated_Source\PSoC5/cyfitter_cfg.c **** 
 257:Generated_Source\PSoC5/cyfitter_cfg.c **** /* DSISWITCH_0_1 Address: CYDEV_UCFG_DSI12_BASE Size (bytes): 128 */
 258:Generated_Source\PSoC5/cyfitter_cfg.c **** #define BS_DSISWITCH_0_1_VAL ((const uint8 CYFAR *)0x480008B0u)
 259:Generated_Source\PSoC5/cyfitter_cfg.c **** 
 260:Generated_Source\PSoC5/cyfitter_cfg.c **** /* DSI0_1_HV_ROUTING Address: CYDEV_UCFG_DSI12_BASE + 0x00000080u Size (bytes): 128 */
 261:Generated_Source\PSoC5/cyfitter_cfg.c **** #define BS_DSI0_1_HV_ROUTING_VAL ((const uint8 CYFAR *)0x48000930u)
 262:Generated_Source\PSoC5/cyfitter_cfg.c **** 
 263:Generated_Source\PSoC5/cyfitter_cfg.c **** /* DSI0_2_HV_ROUTING Address: CYDEV_UCFG_DSI7_BASE + 0x00000080u Size (bytes): 128 */
 264:Generated_Source\PSoC5/cyfitter_cfg.c **** #define BS_DSI0_2_HV_ROUTING_VAL ((const uint8 CYFAR *)0x480009B0u)
 265:Generated_Source\PSoC5/cyfitter_cfg.c **** 
 266:Generated_Source\PSoC5/cyfitter_cfg.c **** /* DSISWITCH_0_3 Address: CYDEV_UCFG_DSI6_BASE Size (bytes): 128 */
 267:Generated_Source\PSoC5/cyfitter_cfg.c **** #define BS_DSISWITCH_0_3_VAL ((const uint8 CYFAR *)0x48000A30u)
 268:Generated_Source\PSoC5/cyfitter_cfg.c **** 
 269:Generated_Source\PSoC5/cyfitter_cfg.c **** /* DSI0_3_HV_ROUTING Address: CYDEV_UCFG_DSI6_BASE + 0x00000080u Size (bytes): 128 */
 270:Generated_Source\PSoC5/cyfitter_cfg.c **** #define BS_DSI0_3_HV_ROUTING_VAL ((const uint8 CYFAR *)0x48000AB0u)
 271:Generated_Source\PSoC5/cyfitter_cfg.c **** 
 272:Generated_Source\PSoC5/cyfitter_cfg.c **** /* DSISWITCH_0_4 Address: CYDEV_UCFG_DSI5_BASE Size (bytes): 128 */
 273:Generated_Source\PSoC5/cyfitter_cfg.c **** #define BS_DSISWITCH_0_4_VAL ((const uint8 CYFAR *)0x48000B30u)
 274:Generated_Source\PSoC5/cyfitter_cfg.c **** 
 275:Generated_Source\PSoC5/cyfitter_cfg.c **** /* DSI0_4_HV_ROUTING Address: CYDEV_UCFG_DSI5_BASE + 0x00000080u Size (bytes): 128 */
 276:Generated_Source\PSoC5/cyfitter_cfg.c **** #define BS_DSI0_4_HV_ROUTING_VAL ((const uint8 CYFAR *)0x48000BB0u)
 277:Generated_Source\PSoC5/cyfitter_cfg.c **** 
 278:Generated_Source\PSoC5/cyfitter_cfg.c **** /* DSISWITCH_0_5 Address: CYDEV_UCFG_DSI4_BASE Size (bytes): 128 */
 279:Generated_Source\PSoC5/cyfitter_cfg.c **** #define BS_DSISWITCH_0_5_VAL ((const uint8 CYFAR *)0x48000C30u)
 280:Generated_Source\PSoC5/cyfitter_cfg.c **** 
 281:Generated_Source\PSoC5/cyfitter_cfg.c **** /* DSI0_5_HV_ROUTING Address: CYDEV_UCFG_DSI4_BASE + 0x00000080u Size (bytes): 128 */
 282:Generated_Source\PSoC5/cyfitter_cfg.c **** #define BS_DSI0_5_HV_ROUTING_VAL ((const uint8 CYFAR *)0x48000CB0u)
 283:Generated_Source\PSoC5/cyfitter_cfg.c **** 
 284:Generated_Source\PSoC5/cyfitter_cfg.c **** /* UDB_1_0_HV_ROUTING Address: CYDEV_UCFG_B1_P5_ROUTE_BASE + 0x00000080u Size (bytes): 128 */
ARM GAS  C:\Users\Jona\AppData\Local\Temp\cc6fh2gk.s 			page 17


 285:Generated_Source\PSoC5/cyfitter_cfg.c **** #define BS_UDB_1_0_HV_ROUTING_VAL ((const uint8 CYFAR *)0x48000D30u)
 286:Generated_Source\PSoC5/cyfitter_cfg.c **** 
 287:Generated_Source\PSoC5/cyfitter_cfg.c **** /* UDBSWITCH_1_0 Address: CYDEV_UCFG_B1_P2_ROUTE_BASE Size (bytes): 128 */
 288:Generated_Source\PSoC5/cyfitter_cfg.c **** #define BS_UDBSWITCH_1_0_VAL ((const uint8 CYFAR *)0x48000DB0u)
 289:Generated_Source\PSoC5/cyfitter_cfg.c **** 
 290:Generated_Source\PSoC5/cyfitter_cfg.c **** /* UDB_2_0_HV_ROUTING Address: CYDEV_UCFG_B1_P2_ROUTE_BASE + 0x00000080u Size (bytes): 128 */
 291:Generated_Source\PSoC5/cyfitter_cfg.c **** #define BS_UDB_2_0_HV_ROUTING_VAL ((const uint8 CYFAR *)0x48000E30u)
 292:Generated_Source\PSoC5/cyfitter_cfg.c **** 
 293:Generated_Source\PSoC5/cyfitter_cfg.c **** /* UDBSWITCH_0_1 Address: CYDEV_UCFG_B1_P4_ROUTE_BASE Size (bytes): 128 */
 294:Generated_Source\PSoC5/cyfitter_cfg.c **** #define BS_UDBSWITCH_0_1_VAL ((const uint8 CYFAR *)0x48000EB0u)
 295:Generated_Source\PSoC5/cyfitter_cfg.c **** 
 296:Generated_Source\PSoC5/cyfitter_cfg.c **** /* UDB_1_1_HV_ROUTING Address: CYDEV_UCFG_B1_P4_ROUTE_BASE + 0x00000080u Size (bytes): 128 */
 297:Generated_Source\PSoC5/cyfitter_cfg.c **** #define BS_UDB_1_1_HV_ROUTING_VAL ((const uint8 CYFAR *)0x48000F30u)
 298:Generated_Source\PSoC5/cyfitter_cfg.c **** 
 299:Generated_Source\PSoC5/cyfitter_cfg.c **** /* UDBSWITCH_1_1 Address: CYDEV_UCFG_B1_P3_ROUTE_BASE Size (bytes): 128 */
 300:Generated_Source\PSoC5/cyfitter_cfg.c **** #define BS_UDBSWITCH_1_1_VAL ((const uint8 CYFAR *)0x48000FB0u)
 301:Generated_Source\PSoC5/cyfitter_cfg.c **** 
 302:Generated_Source\PSoC5/cyfitter_cfg.c **** /* UDB_2_1_HV_ROUTING Address: CYDEV_UCFG_B1_P3_ROUTE_BASE + 0x00000080u Size (bytes): 128 */
 303:Generated_Source\PSoC5/cyfitter_cfg.c **** #define BS_UDB_2_1_HV_ROUTING_VAL ((const uint8 CYFAR *)0x48001030u)
 304:Generated_Source\PSoC5/cyfitter_cfg.c **** 
 305:Generated_Source\PSoC5/cyfitter_cfg.c **** /* UDBSWITCH_0_2 Address: CYDEV_UCFG_B0_P4_ROUTE_BASE Size (bytes): 128 */
 306:Generated_Source\PSoC5/cyfitter_cfg.c **** #define BS_UDBSWITCH_0_2_VAL ((const uint8 CYFAR *)0x480010B0u)
 307:Generated_Source\PSoC5/cyfitter_cfg.c **** 
 308:Generated_Source\PSoC5/cyfitter_cfg.c **** /* UDB_1_2_HV_ROUTING Address: CYDEV_UCFG_B0_P4_ROUTE_BASE + 0x00000080u Size (bytes): 128 */
 309:Generated_Source\PSoC5/cyfitter_cfg.c **** #define BS_UDB_1_2_HV_ROUTING_VAL ((const uint8 CYFAR *)0x48001130u)
 310:Generated_Source\PSoC5/cyfitter_cfg.c **** 
 311:Generated_Source\PSoC5/cyfitter_cfg.c **** /* UDBSWITCH_1_2 Address: CYDEV_UCFG_B0_P3_ROUTE_BASE Size (bytes): 128 */
 312:Generated_Source\PSoC5/cyfitter_cfg.c **** #define BS_UDBSWITCH_1_2_VAL ((const uint8 CYFAR *)0x480011B0u)
 313:Generated_Source\PSoC5/cyfitter_cfg.c **** 
 314:Generated_Source\PSoC5/cyfitter_cfg.c **** /* UDB_2_2_HV_ROUTING Address: CYDEV_UCFG_B0_P3_ROUTE_BASE + 0x00000080u Size (bytes): 128 */
 315:Generated_Source\PSoC5/cyfitter_cfg.c **** #define BS_UDB_2_2_HV_ROUTING_VAL ((const uint8 CYFAR *)0x48001230u)
 316:Generated_Source\PSoC5/cyfitter_cfg.c **** 
 317:Generated_Source\PSoC5/cyfitter_cfg.c **** /* UDB_1_3_HV_ROUTING Address: CYDEV_UCFG_B0_P5_ROUTE_BASE + 0x00000080u Size (bytes): 128 */
 318:Generated_Source\PSoC5/cyfitter_cfg.c **** #define BS_UDB_1_3_HV_ROUTING_VAL ((const uint8 CYFAR *)0x480012B0u)
 319:Generated_Source\PSoC5/cyfitter_cfg.c **** 
 320:Generated_Source\PSoC5/cyfitter_cfg.c **** /* UDBSWITCH_1_3 Address: CYDEV_UCFG_B0_P2_ROUTE_BASE Size (bytes): 128 */
 321:Generated_Source\PSoC5/cyfitter_cfg.c **** #define BS_UDBSWITCH_1_3_VAL ((const uint8 CYFAR *)0x48001330u)
 322:Generated_Source\PSoC5/cyfitter_cfg.c **** 
 323:Generated_Source\PSoC5/cyfitter_cfg.c **** /* UDB_2_3_HV_ROUTING Address: CYDEV_UCFG_B0_P2_ROUTE_BASE + 0x00000080u Size (bytes): 128 */
 324:Generated_Source\PSoC5/cyfitter_cfg.c **** #define BS_UDB_2_3_HV_ROUTING_VAL ((const uint8 CYFAR *)0x480013B0u)
 325:Generated_Source\PSoC5/cyfitter_cfg.c **** 
 326:Generated_Source\PSoC5/cyfitter_cfg.c **** /* UDB_1_4_HV_ROUTING Address: CYDEV_UCFG_B0_P6_ROUTE_BASE + 0x00000080u Size (bytes): 128 */
 327:Generated_Source\PSoC5/cyfitter_cfg.c **** #define BS_UDB_1_4_HV_ROUTING_VAL ((const uint8 CYFAR *)0x48001430u)
 328:Generated_Source\PSoC5/cyfitter_cfg.c **** 
 329:Generated_Source\PSoC5/cyfitter_cfg.c **** /* UDBSWITCH_1_4 Address: CYDEV_UCFG_B0_P1_ROUTE_BASE Size (bytes): 128 */
 330:Generated_Source\PSoC5/cyfitter_cfg.c **** #define BS_UDBSWITCH_1_4_VAL ((const uint8 CYFAR *)0x480014B0u)
 331:Generated_Source\PSoC5/cyfitter_cfg.c **** 
 332:Generated_Source\PSoC5/cyfitter_cfg.c **** /* UDB_2_4_HV_ROUTING Address: CYDEV_UCFG_B0_P1_ROUTE_BASE + 0x00000080u Size (bytes): 128 */
 333:Generated_Source\PSoC5/cyfitter_cfg.c **** #define BS_UDB_2_4_HV_ROUTING_VAL ((const uint8 CYFAR *)0x48001530u)
 334:Generated_Source\PSoC5/cyfitter_cfg.c **** 
 335:Generated_Source\PSoC5/cyfitter_cfg.c **** /* UDB_1_5_HV_ROUTING Address: CYDEV_UCFG_B0_P7_ROUTE_BASE + 0x00000080u Size (bytes): 128 */
 336:Generated_Source\PSoC5/cyfitter_cfg.c **** #define BS_UDB_1_5_HV_ROUTING_VAL ((const uint8 CYFAR *)0x480015B0u)
 337:Generated_Source\PSoC5/cyfitter_cfg.c **** 
 338:Generated_Source\PSoC5/cyfitter_cfg.c **** /* UDB_2_5_HV_ROUTING Address: CYDEV_UCFG_B0_P0_ROUTE_BASE + 0x00000080u Size (bytes): 128 */
 339:Generated_Source\PSoC5/cyfitter_cfg.c **** #define BS_UDB_2_5_HV_ROUTING_VAL ((const uint8 CYFAR *)0x48001630u)
 340:Generated_Source\PSoC5/cyfitter_cfg.c **** 
 341:Generated_Source\PSoC5/cyfitter_cfg.c **** /* DSISWITCH_1_0 Address: CYDEV_UCFG_DSI9_BASE Size (bytes): 128 */
ARM GAS  C:\Users\Jona\AppData\Local\Temp\cc6fh2gk.s 			page 18


 342:Generated_Source\PSoC5/cyfitter_cfg.c **** #define BS_DSISWITCH_1_0_VAL ((const uint8 CYFAR *)0x480016B0u)
 343:Generated_Source\PSoC5/cyfitter_cfg.c **** 
 344:Generated_Source\PSoC5/cyfitter_cfg.c **** /* DSI3_0_HV_ROUTING Address: CYDEV_UCFG_DSI9_BASE + 0x00000080u Size (bytes): 128 */
 345:Generated_Source\PSoC5/cyfitter_cfg.c **** #define BS_DSI3_0_HV_ROUTING_VAL ((const uint8 CYFAR *)0x48001730u)
 346:Generated_Source\PSoC5/cyfitter_cfg.c **** 
 347:Generated_Source\PSoC5/cyfitter_cfg.c **** /* DSISWITCH_1_1 Address: CYDEV_UCFG_DSI8_BASE Size (bytes): 128 */
 348:Generated_Source\PSoC5/cyfitter_cfg.c **** #define BS_DSISWITCH_1_1_VAL ((const uint8 CYFAR *)0x480017B0u)
 349:Generated_Source\PSoC5/cyfitter_cfg.c **** 
 350:Generated_Source\PSoC5/cyfitter_cfg.c **** /* DSI3_1_HV_ROUTING Address: CYDEV_UCFG_DSI8_BASE + 0x00000080u Size (bytes): 128 */
 351:Generated_Source\PSoC5/cyfitter_cfg.c **** #define BS_DSI3_1_HV_ROUTING_VAL ((const uint8 CYFAR *)0x48001830u)
 352:Generated_Source\PSoC5/cyfitter_cfg.c **** 
 353:Generated_Source\PSoC5/cyfitter_cfg.c **** /* DSI3_2_HV_ROUTING Address: CYDEV_UCFG_DSI3_BASE + 0x00000080u Size (bytes): 128 */
 354:Generated_Source\PSoC5/cyfitter_cfg.c **** #define BS_DSI3_2_HV_ROUTING_VAL ((const uint8 CYFAR *)0x480018B0u)
 355:Generated_Source\PSoC5/cyfitter_cfg.c **** 
 356:Generated_Source\PSoC5/cyfitter_cfg.c **** /* DSISWITCH_1_3 Address: CYDEV_UCFG_DSI2_BASE Size (bytes): 128 */
 357:Generated_Source\PSoC5/cyfitter_cfg.c **** #define BS_DSISWITCH_1_3_VAL ((const uint8 CYFAR *)0x48001930u)
 358:Generated_Source\PSoC5/cyfitter_cfg.c **** 
 359:Generated_Source\PSoC5/cyfitter_cfg.c **** /* DSI3_3_HV_ROUTING Address: CYDEV_UCFG_DSI2_BASE + 0x00000080u Size (bytes): 128 */
 360:Generated_Source\PSoC5/cyfitter_cfg.c **** #define BS_DSI3_3_HV_ROUTING_VAL ((const uint8 CYFAR *)0x480019B0u)
 361:Generated_Source\PSoC5/cyfitter_cfg.c **** 
 362:Generated_Source\PSoC5/cyfitter_cfg.c **** /* DSI3_4_HV_ROUTING Address: CYDEV_UCFG_DSI1_BASE + 0x00000080u Size (bytes): 128 */
 363:Generated_Source\PSoC5/cyfitter_cfg.c **** #define BS_DSI3_4_HV_ROUTING_VAL ((const uint8 CYFAR *)0x48001A30u)
 364:Generated_Source\PSoC5/cyfitter_cfg.c **** 
 365:Generated_Source\PSoC5/cyfitter_cfg.c **** /* DSISWITCH_1_5 Address: CYDEV_UCFG_DSI0_BASE Size (bytes): 128 */
 366:Generated_Source\PSoC5/cyfitter_cfg.c **** #define BS_DSISWITCH_1_5_VAL ((const uint8 CYFAR *)0x48001AB0u)
 367:Generated_Source\PSoC5/cyfitter_cfg.c **** 
 368:Generated_Source\PSoC5/cyfitter_cfg.c **** /* DSI3_5_HV_ROUTING Address: CYDEV_UCFG_DSI0_BASE + 0x00000080u Size (bytes): 128 */
 369:Generated_Source\PSoC5/cyfitter_cfg.c **** #define BS_DSI3_5_HV_ROUTING_VAL ((const uint8 CYFAR *)0x48001B30u)
 370:Generated_Source\PSoC5/cyfitter_cfg.c **** 
 371:Generated_Source\PSoC5/cyfitter_cfg.c **** /* IOPINS0_0 Address: CYREG_PRT0_DM0 Size (bytes): 8 */
 372:Generated_Source\PSoC5/cyfitter_cfg.c **** #define BS_IOPINS0_0_VAL ((const uint8 CYFAR *)0x48001BB0u)
 373:Generated_Source\PSoC5/cyfitter_cfg.c **** 
 374:Generated_Source\PSoC5/cyfitter_cfg.c **** /* IOPINS0_7 Address: CYREG_PRT12_DR Size (bytes): 10 */
 375:Generated_Source\PSoC5/cyfitter_cfg.c **** #define BS_IOPINS0_7_VAL ((const uint8 CYFAR *)0x48001BB8u)
 376:Generated_Source\PSoC5/cyfitter_cfg.c **** 
 377:Generated_Source\PSoC5/cyfitter_cfg.c **** /* IOPINS0_8 Address: CYREG_PRT15_DM0 Size (bytes): 8 */
 378:Generated_Source\PSoC5/cyfitter_cfg.c **** #define BS_IOPINS0_8_VAL ((const uint8 CYFAR *)0x48001BC4u)
 379:Generated_Source\PSoC5/cyfitter_cfg.c **** 
 380:Generated_Source\PSoC5/cyfitter_cfg.c **** /* IOPINS0_1 Address: CYREG_PRT1_DM0 Size (bytes): 8 */
 381:Generated_Source\PSoC5/cyfitter_cfg.c **** #define BS_IOPINS0_1_VAL ((const uint8 CYFAR *)0x48001BCCu)
 382:Generated_Source\PSoC5/cyfitter_cfg.c **** 
 383:Generated_Source\PSoC5/cyfitter_cfg.c **** /* IOPINS0_2 Address: CYREG_PRT2_DM0 Size (bytes): 8 */
 384:Generated_Source\PSoC5/cyfitter_cfg.c **** #define BS_IOPINS0_2_VAL ((const uint8 CYFAR *)0x48001BD4u)
 385:Generated_Source\PSoC5/cyfitter_cfg.c **** 
 386:Generated_Source\PSoC5/cyfitter_cfg.c **** /* CYDEV_CLKDIST_ACFG0_CFG0 Address: CYREG_CLKDIST_ACFG0_CFG0 Size (bytes): 8 */
 387:Generated_Source\PSoC5/cyfitter_cfg.c **** #define BS_CYDEV_CLKDIST_ACFG0_CFG0_VAL ((const uint8 CYFAR *)0x48001BDCu)
 388:Generated_Source\PSoC5/cyfitter_cfg.c **** 
 389:Generated_Source\PSoC5/cyfitter_cfg.c **** /* PHUB_CFGMEM1 Address: CYREG_PHUB_CFGMEM1_CFG0 Size (bytes): 4 */
 390:Generated_Source\PSoC5/cyfitter_cfg.c **** #define BS_PHUB_CFGMEM1_VAL ((const uint8 CYFAR *)0x48001BE4u)
 391:Generated_Source\PSoC5/cyfitter_cfg.c **** 
 392:Generated_Source\PSoC5/cyfitter_cfg.c **** 
 393:Generated_Source\PSoC5/cyfitter_cfg.c **** /*******************************************************************************
 394:Generated_Source\PSoC5/cyfitter_cfg.c **** * Function Name: cfg_dma_init
 395:Generated_Source\PSoC5/cyfitter_cfg.c **** ********************************************************************************
 396:Generated_Source\PSoC5/cyfitter_cfg.c **** * Summary:
 397:Generated_Source\PSoC5/cyfitter_cfg.c **** *  This function is used to copy device configuration data from constant values
 398:Generated_Source\PSoC5/cyfitter_cfg.c **** *  stored in memory into the proper chip configuration registers using DMA.  It
ARM GAS  C:\Users\Jona\AppData\Local\Temp\cc6fh2gk.s 			page 19


 399:Generated_Source\PSoC5/cyfitter_cfg.c **** *  pulls data out of the CFG_TD_LISTs to know exactly how/what to configure.
 400:Generated_Source\PSoC5/cyfitter_cfg.c **** *
 401:Generated_Source\PSoC5/cyfitter_cfg.c **** * Parameters:  
 402:Generated_Source\PSoC5/cyfitter_cfg.c **** *   void
 403:Generated_Source\PSoC5/cyfitter_cfg.c **** *
 404:Generated_Source\PSoC5/cyfitter_cfg.c **** * Return:
 405:Generated_Source\PSoC5/cyfitter_cfg.c **** *   void
 406:Generated_Source\PSoC5/cyfitter_cfg.c **** *
 407:Generated_Source\PSoC5/cyfitter_cfg.c **** *******************************************************************************/
 408:Generated_Source\PSoC5/cyfitter_cfg.c **** static void cfg_dma_init(void);
 409:Generated_Source\PSoC5/cyfitter_cfg.c **** static void cfg_dma_init(void)
 410:Generated_Source\PSoC5/cyfitter_cfg.c **** {
 629              		.loc 1 410 0
 630              		.cfi_startproc
 631              		@ args = 0, pretend = 0, frame = 8
 632              		@ frame_needed = 1, uses_anonymous_args = 0
 633 0000 80B5     		push	{r7, lr}
 634              		.cfi_def_cfa_offset 8
 635              		.cfi_offset 7, -8
 636              		.cfi_offset 14, -4
 637 0002 82B0     		sub	sp, sp, #8
 638              		.cfi_def_cfa_offset 16
 639 0004 00AF     		add	r7, sp, #0
 640              		.cfi_def_cfa_register 7
 411:Generated_Source\PSoC5/cyfitter_cfg.c **** 	/* TD structure for little-endian systems. Does not require endian swap */
 412:Generated_Source\PSoC5/cyfitter_cfg.c **** 	CYPACKED struct td_t {
 413:Generated_Source\PSoC5/cyfitter_cfg.c **** 		uint16 size;
 414:Generated_Source\PSoC5/cyfitter_cfg.c **** 		uint8 next_td_ptr;
 415:Generated_Source\PSoC5/cyfitter_cfg.c **** 		uint8 flags;
 416:Generated_Source\PSoC5/cyfitter_cfg.c **** 		uint16 src;
 417:Generated_Source\PSoC5/cyfitter_cfg.c **** 		uint16 dest;
 418:Generated_Source\PSoC5/cyfitter_cfg.c **** 	} CYPACKED_ATTR;
 419:Generated_Source\PSoC5/cyfitter_cfg.c **** 
 420:Generated_Source\PSoC5/cyfitter_cfg.c **** 	/* PHUB_CH1_CFGMEM_CFG0/1 initialization data */
 421:Generated_Source\PSoC5/cyfitter_cfg.c **** 	DMAINITSEC static const uint8 CYCODE CH1_ADDR_DATA0[] = { 0x01u, 0x00u, 0x00u, 0x00u, 0x00u, 0x20u
 422:Generated_Source\PSoC5/cyfitter_cfg.c **** 
 423:Generated_Source\PSoC5/cyfitter_cfg.c **** 	/* PHUB_CH2_CFGMEM_CFG0/1 initialization data */
 424:Generated_Source\PSoC5/cyfitter_cfg.c **** 	DMAINITSEC static const uint8 CYCODE CH2_ADDR_DATA0[] = { 0x01u, 0x00u, 0x00u, 0x00u, 0x00u, 0x20u
 425:Generated_Source\PSoC5/cyfitter_cfg.c **** 
 426:Generated_Source\PSoC5/cyfitter_cfg.c **** 	/* PHUB_CH5_CFGMEM_CFG0/1 initialization data */
 427:Generated_Source\PSoC5/cyfitter_cfg.c **** 	DMAINITSEC static const uint8 CYCODE CH5_ADDR_DATA0[] = { 0x01u, 0x00u, 0x00u, 0x00u, 0x00u, 0x48u
 428:Generated_Source\PSoC5/cyfitter_cfg.c **** 
 429:Generated_Source\PSoC5/cyfitter_cfg.c **** 	/* PHUB_CH6_CFGMEM_CFG0/1 initialization data */
 430:Generated_Source\PSoC5/cyfitter_cfg.c **** 	DMAINITSEC static const uint8 CYCODE CH6_ADDR_DATA0[] = { 0x01u, 0x00u, 0x00u, 0x00u, 0x00u, 0x48u
 431:Generated_Source\PSoC5/cyfitter_cfg.c **** 
 432:Generated_Source\PSoC5/cyfitter_cfg.c **** 	/* Initialization data for each DMA channel's TD registers */
 433:Generated_Source\PSoC5/cyfitter_cfg.c **** 	DMAINITSEC static const uint8 CYCODE DMA_TD_START_CMD[] = { 0x01u, 0x00u, 0x00u, 0x00u, 0x01u };
 434:Generated_Source\PSoC5/cyfitter_cfg.c **** 
 435:Generated_Source\PSoC5/cyfitter_cfg.c **** 	CYALIGNED static uint32 CYXDATA DMA_ZERO_VAL;
 436:Generated_Source\PSoC5/cyfitter_cfg.c **** 
 437:Generated_Source\PSoC5/cyfitter_cfg.c **** 	/* This table holds all of the initialization data necessary for the DMA
 438:Generated_Source\PSoC5/cyfitter_cfg.c **** 	   process to transfer data from the source location to the destination. */
 439:Generated_Source\PSoC5/cyfitter_cfg.c **** 	/* Source addresses can be relocated, but only when in 32bit addresses.
 440:Generated_Source\PSoC5/cyfitter_cfg.c **** 	   Because the standard TD table only has 16bit addresses, we generate a
 441:Generated_Source\PSoC5/cyfitter_cfg.c **** 	   separate CFG_TD_ADDR table for the source addresses that supports 32bit
 442:Generated_Source\PSoC5/cyfitter_cfg.c **** 	   addresses. */
 443:Generated_Source\PSoC5/cyfitter_cfg.c **** 	DMAINITSEC static const struct td_t CYCODE CFG_TD_LIST0[] = {
ARM GAS  C:\Users\Jona\AppData\Local\Temp\cc6fh2gk.s 			page 20


 444:Generated_Source\PSoC5/cyfitter_cfg.c **** 		/* Size, Next, Flags, Source, Destination */
 445:Generated_Source\PSoC5/cyfitter_cfg.c **** 		{ 8u, 0x02u, 0x23u, (uint16)(uint32)(0u), (uint16)(CYREG_PHUB_CFGMEM1_CFG0) },	/* TD 1 */
 446:Generated_Source\PSoC5/cyfitter_cfg.c **** 		{ 8u, 0x03u, 0x23u, (uint16)(uint32)(0u), (uint16)(CYREG_PHUB_CFGMEM2_CFG0) },	/* TD 2 */
 447:Generated_Source\PSoC5/cyfitter_cfg.c **** 		{ 8u, 0x04u, 0x23u, (uint16)(uint32)(0u), (uint16)(CYREG_PHUB_CFGMEM5_CFG0) },	/* TD 3 */
 448:Generated_Source\PSoC5/cyfitter_cfg.c **** 		{ 8u, 0x05u, 0x23u, (uint16)(uint32)(0u), (uint16)(CYREG_PHUB_CFGMEM6_CFG0) },	/* TD 4 */
 449:Generated_Source\PSoC5/cyfitter_cfg.c **** 		{ 5u, 0x06u, 0x23u, (uint16)(uint32)(0u), (uint16)(CYREG_PHUB_CH1_BASIC_CFG) },	/* TD 5 */
 450:Generated_Source\PSoC5/cyfitter_cfg.c **** 		{ 5u, 0x07u, 0x23u, (uint16)(uint32)(0u), (uint16)(CYREG_PHUB_CH2_BASIC_CFG) },	/* TD 6 */
 451:Generated_Source\PSoC5/cyfitter_cfg.c **** 		{ 5u, 0x08u, 0x23u, (uint16)(uint32)(0u), (uint16)(CYREG_PHUB_CH5_BASIC_CFG) },	/* TD 7 */
 452:Generated_Source\PSoC5/cyfitter_cfg.c **** 		{ 5u, 0xFEu, 0x23u, (uint16)(uint32)(0u), (uint16)(CYREG_PHUB_CH6_BASIC_CFG) },	/* TD 8 */
 453:Generated_Source\PSoC5/cyfitter_cfg.c **** 		{ 64u, 0xFEu, 0x22u, (uint16)(uint32)(0u), (uint16)(CYREG_PRT3_DR) },	/* TD 9 */
 454:Generated_Source\PSoC5/cyfitter_cfg.c **** 		{ 384u, 0x0Bu, 0x22u, (uint16)(uint32)(0u), (uint16)(CYDEV_UCFG_B0_P0_U0_BASE) },	/* TD 10 */
 455:Generated_Source\PSoC5/cyfitter_cfg.c **** 		{ 384u, 0x0Cu, 0x22u, (uint16)(uint32)(0u), (uint16)(CYDEV_UCFG_B0_P5_U0_BASE) },	/* TD 11 */
 456:Generated_Source\PSoC5/cyfitter_cfg.c **** 		{ 384u, 0x0Du, 0x22u, (uint16)(uint32)(0u), (uint16)(CYDEV_UCFG_B0_P6_U0_BASE) },	/* TD 12 */
 457:Generated_Source\PSoC5/cyfitter_cfg.c **** 		{ 384u, 0x0Eu, 0x22u, (uint16)(uint32)(0u), (uint16)(CYDEV_UCFG_B0_P7_U0_BASE) },	/* TD 13 */
 458:Generated_Source\PSoC5/cyfitter_cfg.c **** 		{ 384u, 0x0Fu, 0x22u, (uint16)(uint32)(0u), (uint16)(CYDEV_UCFG_B1_P5_U0_BASE) },	/* TD 14 */
 459:Generated_Source\PSoC5/cyfitter_cfg.c **** 		{ 128u, 0x10u, 0x22u, (uint16)(uint32)(0u), (uint16)(CYDEV_UCFG_DSI1_BASE) },	/* TD 15 */
 460:Generated_Source\PSoC5/cyfitter_cfg.c **** 		{ 128u, 0x11u, 0x22u, (uint16)(uint32)(0u), (uint16)(CYDEV_UCFG_DSI3_BASE) },	/* TD 16 */
 461:Generated_Source\PSoC5/cyfitter_cfg.c **** 		{ 128u, 0xFEu, 0x22u, (uint16)(uint32)(0u), (uint16)(CYDEV_UCFG_DSI7_BASE) },	/* TD 17 */
 462:Generated_Source\PSoC5/cyfitter_cfg.c **** 		{ 7u, 0x13u, 0x23u, (uint16)(uint32)(0u), (uint16)(CYDEV_PRTDSI_PRT2_BASE) },	/* TD 18 */
 463:Generated_Source\PSoC5/cyfitter_cfg.c **** 		{ 6u, 0x14u, 0x23u, (uint16)(uint32)(0u), (uint16)(CYDEV_PRTDSI_PRT12_BASE) },	/* TD 19 */
 464:Generated_Source\PSoC5/cyfitter_cfg.c **** 		{ 7u, 0x15u, 0x23u, (uint16)(uint32)(0u), (uint16)(CYDEV_PRTDSI_PRT15_BASE) },	/* TD 20 */
 465:Generated_Source\PSoC5/cyfitter_cfg.c **** 		{ 8u, 0x16u, 0x23u, (uint16)(uint32)(0u), (uint16)(CYREG_SAR1_SW0) },	/* TD 21 */
 466:Generated_Source\PSoC5/cyfitter_cfg.c **** 		{ 64u, 0x17u, 0x23u, (uint16)(uint32)(0u), (uint16)(CYDEV_UWRK_UWRK8_B0_BASE) },	/* TD 22 */
 467:Generated_Source\PSoC5/cyfitter_cfg.c **** 		{ 32u, 0xFEu, 0x23u, (uint16)(uint32)(0u), (uint16)(CYDEV_UWRK_UWRK8_B1_BASE + 0x00000070u) },	/*
 468:Generated_Source\PSoC5/cyfitter_cfg.c **** 		{ 8u, 0x19u, 0x23u, (uint16)(uint32)(0u), (uint16)(CYREG_IDMUX_IRQ_CTL0) },	/* TD 24 */
 469:Generated_Source\PSoC5/cyfitter_cfg.c **** 		{ 128u, 0x1Au, 0x23u, (uint16)(uint32)(0u), (uint16)(CYDEV_UCFG_B0_P1_U0_BASE) },	/* TD 25 */
 470:Generated_Source\PSoC5/cyfitter_cfg.c **** 		{ 128u, 0x1Bu, 0x23u, (uint16)(uint32)(0u), (uint16)(CYDEV_UCFG_B0_P1_U1_BASE) },	/* TD 26 */
 471:Generated_Source\PSoC5/cyfitter_cfg.c **** 		{ 128u, 0x1Cu, 0x23u, (uint16)(uint32)(0u), (uint16)(CYDEV_UCFG_B0_P2_U0_BASE) },	/* TD 27 */
 472:Generated_Source\PSoC5/cyfitter_cfg.c **** 		{ 128u, 0x1Du, 0x23u, (uint16)(uint32)(0u), (uint16)(CYDEV_UCFG_B0_P2_U1_BASE) },	/* TD 28 */
 473:Generated_Source\PSoC5/cyfitter_cfg.c **** 		{ 128u, 0x1Eu, 0x23u, (uint16)(uint32)(0u), (uint16)(CYDEV_UCFG_B0_P3_U0_BASE) },	/* TD 29 */
 474:Generated_Source\PSoC5/cyfitter_cfg.c **** 		{ 128u, 0x1Fu, 0x23u, (uint16)(uint32)(0u), (uint16)(CYDEV_UCFG_B0_P3_U1_BASE) },	/* TD 30 */
 475:Generated_Source\PSoC5/cyfitter_cfg.c **** 		{ 128u, 0x20u, 0x23u, (uint16)(uint32)(0u), (uint16)(CYDEV_UCFG_B0_P4_U0_BASE) },	/* TD 31 */
 476:Generated_Source\PSoC5/cyfitter_cfg.c **** 		{ 128u, 0x21u, 0x23u, (uint16)(uint32)(0u), (uint16)(CYDEV_UCFG_B0_P4_U1_BASE) },	/* TD 32 */
 477:Generated_Source\PSoC5/cyfitter_cfg.c **** 		{ 128u, 0x22u, 0x23u, (uint16)(uint32)(0u), (uint16)(CYDEV_UCFG_B1_P2_U0_BASE) },	/* TD 33 */
 478:Generated_Source\PSoC5/cyfitter_cfg.c **** 		{ 128u, 0x23u, 0x23u, (uint16)(uint32)(0u), (uint16)(CYDEV_UCFG_B1_P2_U1_BASE) },	/* TD 34 */
 479:Generated_Source\PSoC5/cyfitter_cfg.c **** 		{ 128u, 0x24u, 0x23u, (uint16)(uint32)(0u), (uint16)(CYDEV_UCFG_B1_P3_U0_BASE) },	/* TD 35 */
 480:Generated_Source\PSoC5/cyfitter_cfg.c **** 		{ 128u, 0x25u, 0x23u, (uint16)(uint32)(0u), (uint16)(CYDEV_UCFG_B1_P3_U1_BASE) },	/* TD 36 */
 481:Generated_Source\PSoC5/cyfitter_cfg.c **** 		{ 128u, 0x26u, 0x23u, (uint16)(uint32)(0u), (uint16)(CYDEV_UCFG_B1_P4_U0_BASE) },	/* TD 37 */
 482:Generated_Source\PSoC5/cyfitter_cfg.c **** 		{ 128u, 0x27u, 0x23u, (uint16)(uint32)(0u), (uint16)(CYDEV_UCFG_B1_P4_U1_BASE) },	/* TD 38 */
 483:Generated_Source\PSoC5/cyfitter_cfg.c **** 		{ 16u, 0x28u, 0x23u, (uint16)(uint32)(0u), (uint16)(CYREG_BCTL1_MDCLK_EN) },	/* TD 39 */
 484:Generated_Source\PSoC5/cyfitter_cfg.c **** 		{ 16u, 0x29u, 0x23u, (uint16)(uint32)(0u), (uint16)(CYREG_BCTL0_MDCLK_EN) },	/* TD 40 */
 485:Generated_Source\PSoC5/cyfitter_cfg.c **** 		{ 128u, 0x2Au, 0x23u, (uint16)(uint32)(0u), (uint16)(CYDEV_UCFG_DSI13_BASE) },	/* TD 41 */
 486:Generated_Source\PSoC5/cyfitter_cfg.c **** 		{ 128u, 0x2Bu, 0x23u, (uint16)(uint32)(0u), (uint16)(CYDEV_UCFG_DSI13_BASE + 0x00000080u) },	/* T
 487:Generated_Source\PSoC5/cyfitter_cfg.c **** 		{ 128u, 0x2Cu, 0x23u, (uint16)(uint32)(0u), (uint16)(CYDEV_UCFG_DSI12_BASE) },	/* TD 43 */
 488:Generated_Source\PSoC5/cyfitter_cfg.c **** 		{ 128u, 0x2Du, 0x23u, (uint16)(uint32)(0u), (uint16)(CYDEV_UCFG_DSI12_BASE + 0x00000080u) },	/* T
 489:Generated_Source\PSoC5/cyfitter_cfg.c **** 		{ 128u, 0x2Eu, 0x23u, (uint16)(uint32)(0u), (uint16)(CYDEV_UCFG_DSI7_BASE + 0x00000080u) },	/* TD
 490:Generated_Source\PSoC5/cyfitter_cfg.c **** 		{ 128u, 0x2Fu, 0x23u, (uint16)(uint32)(0u), (uint16)(CYDEV_UCFG_DSI6_BASE) },	/* TD 46 */
 491:Generated_Source\PSoC5/cyfitter_cfg.c **** 		{ 128u, 0x30u, 0x23u, (uint16)(uint32)(0u), (uint16)(CYDEV_UCFG_DSI6_BASE + 0x00000080u) },	/* TD
 492:Generated_Source\PSoC5/cyfitter_cfg.c **** 		{ 128u, 0x31u, 0x23u, (uint16)(uint32)(0u), (uint16)(CYDEV_UCFG_DSI5_BASE) },	/* TD 48 */
 493:Generated_Source\PSoC5/cyfitter_cfg.c **** 		{ 128u, 0x32u, 0x23u, (uint16)(uint32)(0u), (uint16)(CYDEV_UCFG_DSI5_BASE + 0x00000080u) },	/* TD
 494:Generated_Source\PSoC5/cyfitter_cfg.c **** 		{ 128u, 0x33u, 0x23u, (uint16)(uint32)(0u), (uint16)(CYDEV_UCFG_DSI4_BASE) },	/* TD 50 */
 495:Generated_Source\PSoC5/cyfitter_cfg.c **** 		{ 128u, 0x34u, 0x23u, (uint16)(uint32)(0u), (uint16)(CYDEV_UCFG_DSI4_BASE + 0x00000080u) },	/* TD
 496:Generated_Source\PSoC5/cyfitter_cfg.c **** 		{ 128u, 0x35u, 0x23u, (uint16)(uint32)(0u), (uint16)(CYDEV_UCFG_B1_P5_ROUTE_BASE + 0x00000080u) }
 497:Generated_Source\PSoC5/cyfitter_cfg.c **** 		{ 128u, 0x36u, 0x23u, (uint16)(uint32)(0u), (uint16)(CYDEV_UCFG_B1_P2_ROUTE_BASE) },	/* TD 53 */
 498:Generated_Source\PSoC5/cyfitter_cfg.c **** 		{ 128u, 0x37u, 0x23u, (uint16)(uint32)(0u), (uint16)(CYDEV_UCFG_B1_P2_ROUTE_BASE + 0x00000080u) }
 499:Generated_Source\PSoC5/cyfitter_cfg.c **** 		{ 128u, 0x38u, 0x23u, (uint16)(uint32)(0u), (uint16)(CYDEV_UCFG_B1_P4_ROUTE_BASE) },	/* TD 55 */
 500:Generated_Source\PSoC5/cyfitter_cfg.c **** 		{ 128u, 0x39u, 0x23u, (uint16)(uint32)(0u), (uint16)(CYDEV_UCFG_B1_P4_ROUTE_BASE + 0x00000080u) }
ARM GAS  C:\Users\Jona\AppData\Local\Temp\cc6fh2gk.s 			page 21


 501:Generated_Source\PSoC5/cyfitter_cfg.c **** 		{ 128u, 0x3Au, 0x23u, (uint16)(uint32)(0u), (uint16)(CYDEV_UCFG_B1_P3_ROUTE_BASE) },	/* TD 57 */
 502:Generated_Source\PSoC5/cyfitter_cfg.c **** 		{ 128u, 0x3Bu, 0x23u, (uint16)(uint32)(0u), (uint16)(CYDEV_UCFG_B1_P3_ROUTE_BASE + 0x00000080u) }
 503:Generated_Source\PSoC5/cyfitter_cfg.c **** 		{ 128u, 0x3Cu, 0x23u, (uint16)(uint32)(0u), (uint16)(CYDEV_UCFG_B0_P4_ROUTE_BASE) },	/* TD 59 */
 504:Generated_Source\PSoC5/cyfitter_cfg.c **** 		{ 128u, 0x3Du, 0x23u, (uint16)(uint32)(0u), (uint16)(CYDEV_UCFG_B0_P4_ROUTE_BASE + 0x00000080u) }
 505:Generated_Source\PSoC5/cyfitter_cfg.c **** 		{ 128u, 0x3Eu, 0x23u, (uint16)(uint32)(0u), (uint16)(CYDEV_UCFG_B0_P3_ROUTE_BASE) },	/* TD 61 */
 506:Generated_Source\PSoC5/cyfitter_cfg.c **** 		{ 128u, 0x3Fu, 0x23u, (uint16)(uint32)(0u), (uint16)(CYDEV_UCFG_B0_P3_ROUTE_BASE + 0x00000080u) }
 507:Generated_Source\PSoC5/cyfitter_cfg.c **** 		{ 128u, 0x40u, 0x23u, (uint16)(uint32)(0u), (uint16)(CYDEV_UCFG_B0_P5_ROUTE_BASE + 0x00000080u) }
 508:Generated_Source\PSoC5/cyfitter_cfg.c **** 		{ 128u, 0x41u, 0x23u, (uint16)(uint32)(0u), (uint16)(CYDEV_UCFG_B0_P2_ROUTE_BASE) },	/* TD 64 */
 509:Generated_Source\PSoC5/cyfitter_cfg.c **** 		{ 128u, 0x42u, 0x23u, (uint16)(uint32)(0u), (uint16)(CYDEV_UCFG_B0_P2_ROUTE_BASE + 0x00000080u) }
 510:Generated_Source\PSoC5/cyfitter_cfg.c **** 		{ 128u, 0x43u, 0x23u, (uint16)(uint32)(0u), (uint16)(CYDEV_UCFG_B0_P6_ROUTE_BASE + 0x00000080u) }
 511:Generated_Source\PSoC5/cyfitter_cfg.c **** 		{ 128u, 0x44u, 0x23u, (uint16)(uint32)(0u), (uint16)(CYDEV_UCFG_B0_P1_ROUTE_BASE) },	/* TD 67 */
 512:Generated_Source\PSoC5/cyfitter_cfg.c **** 		{ 128u, 0x45u, 0x23u, (uint16)(uint32)(0u), (uint16)(CYDEV_UCFG_B0_P1_ROUTE_BASE + 0x00000080u) }
 513:Generated_Source\PSoC5/cyfitter_cfg.c **** 		{ 128u, 0x46u, 0x23u, (uint16)(uint32)(0u), (uint16)(CYDEV_UCFG_B0_P7_ROUTE_BASE + 0x00000080u) }
 514:Generated_Source\PSoC5/cyfitter_cfg.c **** 		{ 128u, 0x47u, 0x23u, (uint16)(uint32)(0u), (uint16)(CYDEV_UCFG_B0_P0_ROUTE_BASE + 0x00000080u) }
 515:Generated_Source\PSoC5/cyfitter_cfg.c **** 		{ 128u, 0x48u, 0x23u, (uint16)(uint32)(0u), (uint16)(CYDEV_UCFG_DSI9_BASE) },	/* TD 71 */
 516:Generated_Source\PSoC5/cyfitter_cfg.c **** 		{ 128u, 0x49u, 0x23u, (uint16)(uint32)(0u), (uint16)(CYDEV_UCFG_DSI9_BASE + 0x00000080u) },	/* TD
 517:Generated_Source\PSoC5/cyfitter_cfg.c **** 		{ 128u, 0x4Au, 0x23u, (uint16)(uint32)(0u), (uint16)(CYDEV_UCFG_DSI8_BASE) },	/* TD 73 */
 518:Generated_Source\PSoC5/cyfitter_cfg.c **** 		{ 128u, 0x4Bu, 0x23u, (uint16)(uint32)(0u), (uint16)(CYDEV_UCFG_DSI8_BASE + 0x00000080u) },	/* TD
 519:Generated_Source\PSoC5/cyfitter_cfg.c **** 		{ 128u, 0x4Cu, 0x23u, (uint16)(uint32)(0u), (uint16)(CYDEV_UCFG_DSI3_BASE + 0x00000080u) },	/* TD
 520:Generated_Source\PSoC5/cyfitter_cfg.c **** 		{ 128u, 0x4Du, 0x23u, (uint16)(uint32)(0u), (uint16)(CYDEV_UCFG_DSI2_BASE) },	/* TD 76 */
 521:Generated_Source\PSoC5/cyfitter_cfg.c **** 		{ 128u, 0x4Eu, 0x23u, (uint16)(uint32)(0u), (uint16)(CYDEV_UCFG_DSI2_BASE + 0x00000080u) },	/* TD
 522:Generated_Source\PSoC5/cyfitter_cfg.c **** 		{ 128u, 0x4Fu, 0x23u, (uint16)(uint32)(0u), (uint16)(CYDEV_UCFG_DSI1_BASE + 0x00000080u) },	/* TD
 523:Generated_Source\PSoC5/cyfitter_cfg.c **** 		{ 128u, 0x50u, 0x23u, (uint16)(uint32)(0u), (uint16)(CYDEV_UCFG_DSI0_BASE) },	/* TD 79 */
 524:Generated_Source\PSoC5/cyfitter_cfg.c **** 		{ 128u, 0xFEu, 0x23u, (uint16)(uint32)(0u), (uint16)(CYDEV_UCFG_DSI0_BASE + 0x00000080u) },	/* TD
 525:Generated_Source\PSoC5/cyfitter_cfg.c **** 	};
 526:Generated_Source\PSoC5/cyfitter_cfg.c **** 
 527:Generated_Source\PSoC5/cyfitter_cfg.c **** 	/* Source addresses can be relocated, but only when in 32bit addresses.
 528:Generated_Source\PSoC5/cyfitter_cfg.c **** 	   Because the standard TD table only has 16bit addresses, we generate a
 529:Generated_Source\PSoC5/cyfitter_cfg.c **** 	   separate table for the source addresses that does use 32bit addresses. This
 530:Generated_Source\PSoC5/cyfitter_cfg.c **** 	   table will be re-merged with the corresponding CFG_TD_LIST table during
 531:Generated_Source\PSoC5/cyfitter_cfg.c **** 	   initialization. */
 532:Generated_Source\PSoC5/cyfitter_cfg.c **** 	static const void * const CFG_TD_ADDR0[] = {
 533:Generated_Source\PSoC5/cyfitter_cfg.c **** 		(const void *)(CH1_ADDR_DATA0),	/* TD 1 */
 534:Generated_Source\PSoC5/cyfitter_cfg.c **** 		(const void *)(CH2_ADDR_DATA0),	/* TD 2 */
 535:Generated_Source\PSoC5/cyfitter_cfg.c **** 		(const void *)(CH5_ADDR_DATA0),	/* TD 3 */
 536:Generated_Source\PSoC5/cyfitter_cfg.c **** 		(const void *)(CH6_ADDR_DATA0),	/* TD 4 */
 537:Generated_Source\PSoC5/cyfitter_cfg.c **** 		(const void *)(DMA_TD_START_CMD),	/* TD 5 */
 538:Generated_Source\PSoC5/cyfitter_cfg.c **** 		(const void *)(DMA_TD_START_CMD),	/* TD 6 */
 539:Generated_Source\PSoC5/cyfitter_cfg.c **** 		(const void *)(DMA_TD_START_CMD),	/* TD 7 */
 540:Generated_Source\PSoC5/cyfitter_cfg.c **** 		(const void *)(DMA_TD_START_CMD),	/* TD 8 */
 541:Generated_Source\PSoC5/cyfitter_cfg.c **** 		(const void *)(&DMA_ZERO_VAL),	/* TD 9 */
 542:Generated_Source\PSoC5/cyfitter_cfg.c **** 		(const void *)(&DMA_ZERO_VAL),	/* TD 10 */
 543:Generated_Source\PSoC5/cyfitter_cfg.c **** 		(const void *)(&DMA_ZERO_VAL),	/* TD 11 */
 544:Generated_Source\PSoC5/cyfitter_cfg.c **** 		(const void *)(&DMA_ZERO_VAL),	/* TD 12 */
 545:Generated_Source\PSoC5/cyfitter_cfg.c **** 		(const void *)(&DMA_ZERO_VAL),	/* TD 13 */
 546:Generated_Source\PSoC5/cyfitter_cfg.c **** 		(const void *)(&DMA_ZERO_VAL),	/* TD 14 */
 547:Generated_Source\PSoC5/cyfitter_cfg.c **** 		(const void *)(&DMA_ZERO_VAL),	/* TD 15 */
 548:Generated_Source\PSoC5/cyfitter_cfg.c **** 		(const void *)(&DMA_ZERO_VAL),	/* TD 16 */
 549:Generated_Source\PSoC5/cyfitter_cfg.c **** 		(const void *)(&DMA_ZERO_VAL),	/* TD 17 */
 550:Generated_Source\PSoC5/cyfitter_cfg.c **** 		(const void *)(BS_IOPORT_2_VAL),	/* TD 18 */
 551:Generated_Source\PSoC5/cyfitter_cfg.c **** 		(const void *)(BS_IOPORT_7_VAL),	/* TD 19 */
 552:Generated_Source\PSoC5/cyfitter_cfg.c **** 		(const void *)(BS_IOPORT_8_VAL),	/* TD 20 */
 553:Generated_Source\PSoC5/cyfitter_cfg.c **** 		(const void *)(BS_SAR1_VAL),	/* TD 21 */
 554:Generated_Source\PSoC5/cyfitter_cfg.c **** 		(const void *)(BS_UWRK_B0_WRK_DP_BITS_VAL),	/* TD 22 */
 555:Generated_Source\PSoC5/cyfitter_cfg.c **** 		(const void *)(BS_UWRK_B1_WRK_STATCTL_BITS_VAL),	/* TD 23 */
 556:Generated_Source\PSoC5/cyfitter_cfg.c **** 		(const void *)(BS_IDMUX_IRQ_VAL),	/* TD 24 */
 557:Generated_Source\PSoC5/cyfitter_cfg.c **** 		(const void *)(BS_UDB_1_4_1_CONFIG_VAL),	/* TD 25 */
ARM GAS  C:\Users\Jona\AppData\Local\Temp\cc6fh2gk.s 			page 22


 558:Generated_Source\PSoC5/cyfitter_cfg.c **** 		(const void *)(BS_UDB_1_4_0_CONFIG_VAL),	/* TD 26 */
 559:Generated_Source\PSoC5/cyfitter_cfg.c **** 		(const void *)(BS_UDB_1_3_0_CONFIG_VAL),	/* TD 27 */
 560:Generated_Source\PSoC5/cyfitter_cfg.c **** 		(const void *)(BS_UDB_1_3_1_CONFIG_VAL),	/* TD 28 */
 561:Generated_Source\PSoC5/cyfitter_cfg.c **** 		(const void *)(BS_UDB_1_2_1_CONFIG_VAL),	/* TD 29 */
 562:Generated_Source\PSoC5/cyfitter_cfg.c **** 		(const void *)(BS_UDB_1_2_0_CONFIG_VAL),	/* TD 30 */
 563:Generated_Source\PSoC5/cyfitter_cfg.c **** 		(const void *)(BS_UDB_0_2_1_CONFIG_VAL),	/* TD 31 */
 564:Generated_Source\PSoC5/cyfitter_cfg.c **** 		(const void *)(BS_UDB_0_2_0_CONFIG_VAL),	/* TD 32 */
 565:Generated_Source\PSoC5/cyfitter_cfg.c **** 		(const void *)(BS_UDB_1_0_0_CONFIG_VAL),	/* TD 33 */
 566:Generated_Source\PSoC5/cyfitter_cfg.c **** 		(const void *)(BS_UDB_1_0_1_CONFIG_VAL),	/* TD 34 */
 567:Generated_Source\PSoC5/cyfitter_cfg.c **** 		(const void *)(BS_UDB_1_1_1_CONFIG_VAL),	/* TD 35 */
 568:Generated_Source\PSoC5/cyfitter_cfg.c **** 		(const void *)(BS_UDB_1_1_0_CONFIG_VAL),	/* TD 36 */
 569:Generated_Source\PSoC5/cyfitter_cfg.c **** 		(const void *)(BS_UDB_0_1_1_CONFIG_VAL),	/* TD 37 */
 570:Generated_Source\PSoC5/cyfitter_cfg.c **** 		(const void *)(BS_UDB_0_1_0_CONFIG_VAL),	/* TD 38 */
 571:Generated_Source\PSoC5/cyfitter_cfg.c **** 		(const void *)(BS_UCFG_BCTL1_VAL),	/* TD 39 */
 572:Generated_Source\PSoC5/cyfitter_cfg.c **** 		(const void *)(BS_UCFG_BCTL0_VAL),	/* TD 40 */
 573:Generated_Source\PSoC5/cyfitter_cfg.c **** 		(const void *)(BS_DSISWITCH_0_0_VAL),	/* TD 41 */
 574:Generated_Source\PSoC5/cyfitter_cfg.c **** 		(const void *)(BS_DSI0_0_HV_ROUTING_VAL),	/* TD 42 */
 575:Generated_Source\PSoC5/cyfitter_cfg.c **** 		(const void *)(BS_DSISWITCH_0_1_VAL),	/* TD 43 */
 576:Generated_Source\PSoC5/cyfitter_cfg.c **** 		(const void *)(BS_DSI0_1_HV_ROUTING_VAL),	/* TD 44 */
 577:Generated_Source\PSoC5/cyfitter_cfg.c **** 		(const void *)(BS_DSI0_2_HV_ROUTING_VAL),	/* TD 45 */
 578:Generated_Source\PSoC5/cyfitter_cfg.c **** 		(const void *)(BS_DSISWITCH_0_3_VAL),	/* TD 46 */
 579:Generated_Source\PSoC5/cyfitter_cfg.c **** 		(const void *)(BS_DSI0_3_HV_ROUTING_VAL),	/* TD 47 */
 580:Generated_Source\PSoC5/cyfitter_cfg.c **** 		(const void *)(BS_DSISWITCH_0_4_VAL),	/* TD 48 */
 581:Generated_Source\PSoC5/cyfitter_cfg.c **** 		(const void *)(BS_DSI0_4_HV_ROUTING_VAL),	/* TD 49 */
 582:Generated_Source\PSoC5/cyfitter_cfg.c **** 		(const void *)(BS_DSISWITCH_0_5_VAL),	/* TD 50 */
 583:Generated_Source\PSoC5/cyfitter_cfg.c **** 		(const void *)(BS_DSI0_5_HV_ROUTING_VAL),	/* TD 51 */
 584:Generated_Source\PSoC5/cyfitter_cfg.c **** 		(const void *)(BS_UDB_1_0_HV_ROUTING_VAL),	/* TD 52 */
 585:Generated_Source\PSoC5/cyfitter_cfg.c **** 		(const void *)(BS_UDBSWITCH_1_0_VAL),	/* TD 53 */
 586:Generated_Source\PSoC5/cyfitter_cfg.c **** 		(const void *)(BS_UDB_2_0_HV_ROUTING_VAL),	/* TD 54 */
 587:Generated_Source\PSoC5/cyfitter_cfg.c **** 		(const void *)(BS_UDBSWITCH_0_1_VAL),	/* TD 55 */
 588:Generated_Source\PSoC5/cyfitter_cfg.c **** 		(const void *)(BS_UDB_1_1_HV_ROUTING_VAL),	/* TD 56 */
 589:Generated_Source\PSoC5/cyfitter_cfg.c **** 		(const void *)(BS_UDBSWITCH_1_1_VAL),	/* TD 57 */
 590:Generated_Source\PSoC5/cyfitter_cfg.c **** 		(const void *)(BS_UDB_2_1_HV_ROUTING_VAL),	/* TD 58 */
 591:Generated_Source\PSoC5/cyfitter_cfg.c **** 		(const void *)(BS_UDBSWITCH_0_2_VAL),	/* TD 59 */
 592:Generated_Source\PSoC5/cyfitter_cfg.c **** 		(const void *)(BS_UDB_1_2_HV_ROUTING_VAL),	/* TD 60 */
 593:Generated_Source\PSoC5/cyfitter_cfg.c **** 		(const void *)(BS_UDBSWITCH_1_2_VAL),	/* TD 61 */
 594:Generated_Source\PSoC5/cyfitter_cfg.c **** 		(const void *)(BS_UDB_2_2_HV_ROUTING_VAL),	/* TD 62 */
 595:Generated_Source\PSoC5/cyfitter_cfg.c **** 		(const void *)(BS_UDB_1_3_HV_ROUTING_VAL),	/* TD 63 */
 596:Generated_Source\PSoC5/cyfitter_cfg.c **** 		(const void *)(BS_UDBSWITCH_1_3_VAL),	/* TD 64 */
 597:Generated_Source\PSoC5/cyfitter_cfg.c **** 		(const void *)(BS_UDB_2_3_HV_ROUTING_VAL),	/* TD 65 */
 598:Generated_Source\PSoC5/cyfitter_cfg.c **** 		(const void *)(BS_UDB_1_4_HV_ROUTING_VAL),	/* TD 66 */
 599:Generated_Source\PSoC5/cyfitter_cfg.c **** 		(const void *)(BS_UDBSWITCH_1_4_VAL),	/* TD 67 */
 600:Generated_Source\PSoC5/cyfitter_cfg.c **** 		(const void *)(BS_UDB_2_4_HV_ROUTING_VAL),	/* TD 68 */
 601:Generated_Source\PSoC5/cyfitter_cfg.c **** 		(const void *)(BS_UDB_1_5_HV_ROUTING_VAL),	/* TD 69 */
 602:Generated_Source\PSoC5/cyfitter_cfg.c **** 		(const void *)(BS_UDB_2_5_HV_ROUTING_VAL),	/* TD 70 */
 603:Generated_Source\PSoC5/cyfitter_cfg.c **** 		(const void *)(BS_DSISWITCH_1_0_VAL),	/* TD 71 */
 604:Generated_Source\PSoC5/cyfitter_cfg.c **** 		(const void *)(BS_DSI3_0_HV_ROUTING_VAL),	/* TD 72 */
 605:Generated_Source\PSoC5/cyfitter_cfg.c **** 		(const void *)(BS_DSISWITCH_1_1_VAL),	/* TD 73 */
 606:Generated_Source\PSoC5/cyfitter_cfg.c **** 		(const void *)(BS_DSI3_1_HV_ROUTING_VAL),	/* TD 74 */
 607:Generated_Source\PSoC5/cyfitter_cfg.c **** 		(const void *)(BS_DSI3_2_HV_ROUTING_VAL),	/* TD 75 */
 608:Generated_Source\PSoC5/cyfitter_cfg.c **** 		(const void *)(BS_DSISWITCH_1_3_VAL),	/* TD 76 */
 609:Generated_Source\PSoC5/cyfitter_cfg.c **** 		(const void *)(BS_DSI3_3_HV_ROUTING_VAL),	/* TD 77 */
 610:Generated_Source\PSoC5/cyfitter_cfg.c **** 		(const void *)(BS_DSI3_4_HV_ROUTING_VAL),	/* TD 78 */
 611:Generated_Source\PSoC5/cyfitter_cfg.c **** 		(const void *)(BS_DSISWITCH_1_5_VAL),	/* TD 79 */
 612:Generated_Source\PSoC5/cyfitter_cfg.c **** 		(const void *)(BS_DSI3_5_HV_ROUTING_VAL),	/* TD 80 */
 613:Generated_Source\PSoC5/cyfitter_cfg.c **** 	};
 614:Generated_Source\PSoC5/cyfitter_cfg.c **** 
ARM GAS  C:\Users\Jona\AppData\Local\Temp\cc6fh2gk.s 			page 23


 615:Generated_Source\PSoC5/cyfitter_cfg.c **** 
 616:Generated_Source\PSoC5/cyfitter_cfg.c **** 	uint32 i;
 617:Generated_Source\PSoC5/cyfitter_cfg.c **** 
 618:Generated_Source\PSoC5/cyfitter_cfg.c **** 	DMA_ZERO_VAL = 0u;
 641              		.loc 1 618 0
 642 0006 454B     		ldr	r3, .L15
 643 0008 0022     		movs	r2, #0
 644 000a 1A60     		str	r2, [r3]
 619:Generated_Source\PSoC5/cyfitter_cfg.c **** 	CY_SET_REG8((void CYXDATA *)CYREG_PHUB_CFGMEM0_CFG0, 0x10u);	/* set burstcnt */
 645              		.loc 1 619 0
 646 000c 444B     		ldr	r3, .L15+4
 647 000e 1022     		movs	r2, #16
 648 0010 1A70     		strb	r2, [r3]
 620:Generated_Source\PSoC5/cyfitter_cfg.c **** 	CY_SET_REG8((void CYXDATA *)CYREG_PHUB_CH0_BASIC_CFG, 0x01u);	/* enable ch0 */
 649              		.loc 1 620 0
 650 0012 444B     		ldr	r3, .L15+8
 651 0014 0122     		movs	r2, #1
 652 0016 1A70     		strb	r2, [r3]
 621:Generated_Source\PSoC5/cyfitter_cfg.c **** 	CY_SET_REG8((void CYXDATA *)(CYREG_PHUB_CH0_BASIC_STATUS+1u), 0x00u);	/* set first TD to 0 */
 653              		.loc 1 621 0
 654 0018 434B     		ldr	r3, .L15+12
 655 001a 0022     		movs	r2, #0
 656 001c 1A70     		strb	r2, [r3]
 622:Generated_Source\PSoC5/cyfitter_cfg.c **** 	CY_SET_REG16((void CYXDATA *)CYREG_PHUB_TDMEM0_ORIG_TD0, 80u*8u);	/* transfer size */
 657              		.loc 1 622 0
 658 001e 434B     		ldr	r3, .L15+16
 659 0020 4FF42072 		mov	r2, #640
 660 0024 1A80     		strh	r2, [r3]	@ movhi
 623:Generated_Source\PSoC5/cyfitter_cfg.c **** 	CY_SET_REG8((void CYXDATA *)(CYREG_PHUB_TDMEM0_ORIG_TD0+2u), 0x01u);	/* set next TD to 1 */
 661              		.loc 1 623 0
 662 0026 424B     		ldr	r3, .L15+20
 663 0028 0122     		movs	r2, #1
 664 002a 1A70     		strb	r2, [r3]
 624:Generated_Source\PSoC5/cyfitter_cfg.c **** 	CY_SET_REG8((void CYXDATA *)(CYREG_PHUB_TDMEM0_ORIG_TD0+3u), 0x03u);	/* set TD flags */
 665              		.loc 1 624 0
 666 002c 414B     		ldr	r3, .L15+24
 667 002e 0322     		movs	r2, #3
 668 0030 1A70     		strb	r2, [r3]
 625:Generated_Source\PSoC5/cyfitter_cfg.c **** 	CY_SET_REG16((void CYXDATA *)CYREG_PHUB_TDMEM0_ORIG_TD1, (uint16)((uint32)CFG_TD_LIST0 & 0x0000FFF
 669              		.loc 1 625 0
 670 0032 414B     		ldr	r3, .L15+28
 671 0034 414A     		ldr	r2, .L15+32
 672 0036 92B2     		uxth	r2, r2
 673 0038 1A80     		strh	r2, [r3]	@ movhi
 626:Generated_Source\PSoC5/cyfitter_cfg.c **** 	CY_SET_REG16((void CYXDATA *)(CYREG_PHUB_TDMEM0_ORIG_TD1+2u), CYDEV_PHUB_TDMEM1_BASE);	/* set td0'
 674              		.loc 1 626 0
 675 003a 414B     		ldr	r3, .L15+36
 676 003c 47F60802 		movw	r2, #30728
 677 0040 1A80     		strh	r2, [r3]	@ movhi
 627:Generated_Source\PSoC5/cyfitter_cfg.c **** 	CY_SET_REG16((void CYXDATA *)CYREG_PHUB_CFGMEM0_CFG1, (uint16)(CYDEV_FLASH_BASE >> 16));	/* set ch
 678              		.loc 1 627 0
 679 0042 404B     		ldr	r3, .L15+40
 680 0044 0022     		movs	r2, #0
 681 0046 1A80     		strh	r2, [r3]	@ movhi
 628:Generated_Source\PSoC5/cyfitter_cfg.c **** 	CY_SET_REG16((void CYXDATA *)(CYREG_PHUB_CFGMEM0_CFG1+2u), (uint16)(CYDEV_PHUB_TDMEM1_BASE >> 16))
 682              		.loc 1 628 0
 683 0048 3F4B     		ldr	r3, .L15+44
ARM GAS  C:\Users\Jona\AppData\Local\Temp\cc6fh2gk.s 			page 24


 684 004a 4FF48042 		mov	r2, #16384
 685 004e 1A80     		strh	r2, [r3]	@ movhi
 629:Generated_Source\PSoC5/cyfitter_cfg.c **** 	CY_SET_REG8((void CYXDATA *)(CYREG_PHUB_CH1_BASIC_STATUS+1u), 0x09u);	/* ch1 first TD: 9 */
 686              		.loc 1 629 0
 687 0050 3E4B     		ldr	r3, .L15+48
 688 0052 0922     		movs	r2, #9
 689 0054 1A70     		strb	r2, [r3]
 630:Generated_Source\PSoC5/cyfitter_cfg.c **** 	CY_SET_REG8((void CYXDATA *)(CYREG_PHUB_CH2_BASIC_STATUS+1u), 0x0Au);	/* ch2 first TD: 10 */
 690              		.loc 1 630 0
 691 0056 3E4B     		ldr	r3, .L15+52
 692 0058 0A22     		movs	r2, #10
 693 005a 1A70     		strb	r2, [r3]
 631:Generated_Source\PSoC5/cyfitter_cfg.c **** 	CY_SET_REG8((void CYXDATA *)(CYREG_PHUB_CH5_BASIC_STATUS+1u), 0x12u);	/* ch5 first TD: 18 */
 694              		.loc 1 631 0
 695 005c 3D4B     		ldr	r3, .L15+56
 696 005e 1222     		movs	r2, #18
 697 0060 1A70     		strb	r2, [r3]
 632:Generated_Source\PSoC5/cyfitter_cfg.c **** 	CY_SET_REG8((void CYXDATA *)(CYREG_PHUB_CH6_BASIC_STATUS+1u), 0x18u);	/* ch6 first TD: 24 */
 698              		.loc 1 632 0
 699 0062 3D4B     		ldr	r3, .L15+60
 700 0064 1822     		movs	r2, #24
 701 0066 1A70     		strb	r2, [r3]
 633:Generated_Source\PSoC5/cyfitter_cfg.c **** 
 634:Generated_Source\PSoC5/cyfitter_cfg.c **** 	CY_CFG_MEMORY_BARRIER();
 702              		.loc 1 634 0
 703 0068 BFF35F8F 		dmb	sy
 635:Generated_Source\PSoC5/cyfitter_cfg.c **** 	CY_SET_REG8((void CYXDATA *)CYREG_PHUB_CH0_ACTION, 0x01u); /* cpu_req */
 704              		.loc 1 635 0
 705 006c 3B4B     		ldr	r3, .L15+64
 706 006e 0122     		movs	r2, #1
 707 0070 1A70     		strb	r2, [r3]
 636:Generated_Source\PSoC5/cyfitter_cfg.c **** 	CY_CFG_MEMORY_BARRIER();
 708              		.loc 1 636 0
 709 0072 BFF35F8F 		dmb	sy
 637:Generated_Source\PSoC5/cyfitter_cfg.c **** 
 638:Generated_Source\PSoC5/cyfitter_cfg.c **** 	/* Wait for TDs to be copied into TDMEM */
 639:Generated_Source\PSoC5/cyfitter_cfg.c **** 	while (CY_GET_REG16((void CYXDATA *)CYREG_PHUB_TDMEM0_ORIG_TD0) != 0u) { }
 710              		.loc 1 639 0
 711 0076 00BF     		nop
 712              	.L7:
 713              		.loc 1 639 0 is_stmt 0 discriminator 1
 714 0078 2C4B     		ldr	r3, .L15+16
 715 007a 1B88     		ldrh	r3, [r3]	@ movhi
 716 007c 9BB2     		uxth	r3, r3
 717 007e 002B     		cmp	r3, #0
 718 0080 FAD1     		bne	.L7
 640:Generated_Source\PSoC5/cyfitter_cfg.c **** 
 641:Generated_Source\PSoC5/cyfitter_cfg.c **** 	/* Recombine TD source table (CFG_TD_ADDR0) with full TD table (CFG_TD_LIST0) */
 642:Generated_Source\PSoC5/cyfitter_cfg.c **** 	for (i = 0u; i < 80u; i++)
 719              		.loc 1 642 0 is_stmt 1
 720 0082 0023     		movs	r3, #0
 721 0084 7B60     		str	r3, [r7, #4]
 722 0086 0DE0     		b	.L8
 723              	.L9:
 643:Generated_Source\PSoC5/cyfitter_cfg.c **** 	{
 644:Generated_Source\PSoC5/cyfitter_cfg.c **** 		CY_SET_REG16((void CYXDATA *)(CYREG_PHUB_TDMEM1_ORIG_TD1 + (sizeof(struct td_t)*i)), (uint16)(uin
 724              		.loc 1 644 0 discriminator 3
ARM GAS  C:\Users\Jona\AppData\Local\Temp\cc6fh2gk.s 			page 25


 725 0088 7B68     		ldr	r3, [r7, #4]
 726 008a DA00     		lsls	r2, r3, #3
 727 008c 344B     		ldr	r3, .L15+68
 728 008e 1344     		add	r3, r3, r2
 729 0090 1946     		mov	r1, r3
 730 0092 344A     		ldr	r2, .L15+72
 731 0094 7B68     		ldr	r3, [r7, #4]
 732 0096 52F82330 		ldr	r3, [r2, r3, lsl #2]
 733 009a 9BB2     		uxth	r3, r3
 734 009c 0B80     		strh	r3, [r1]	@ movhi
 642:Generated_Source\PSoC5/cyfitter_cfg.c **** 	{
 735              		.loc 1 642 0 discriminator 3
 736 009e 7B68     		ldr	r3, [r7, #4]
 737 00a0 0133     		adds	r3, r3, #1
 738 00a2 7B60     		str	r3, [r7, #4]
 739              	.L8:
 642:Generated_Source\PSoC5/cyfitter_cfg.c **** 	{
 740              		.loc 1 642 0 is_stmt 0 discriminator 1
 741 00a4 7B68     		ldr	r3, [r7, #4]
 742 00a6 4F2B     		cmp	r3, #79
 743 00a8 EED9     		bls	.L9
 645:Generated_Source\PSoC5/cyfitter_cfg.c **** 	}
 646:Generated_Source\PSoC5/cyfitter_cfg.c **** 
 647:Generated_Source\PSoC5/cyfitter_cfg.c **** 	CY_CFG_MEMORY_BARRIER();
 744              		.loc 1 647 0 is_stmt 1
 745 00aa BFF35F8F 		dmb	sy
 648:Generated_Source\PSoC5/cyfitter_cfg.c **** 	CY_SET_REG8((void CYXDATA *)CYREG_PHUB_CH0_ACTION, 0x01u); /* cpu_req */
 746              		.loc 1 648 0
 747 00ae 2B4B     		ldr	r3, .L15+64
 748 00b0 0122     		movs	r2, #1
 749 00b2 1A70     		strb	r2, [r3]
 649:Generated_Source\PSoC5/cyfitter_cfg.c **** 	CY_CFG_MEMORY_BARRIER();
 750              		.loc 1 649 0
 751 00b4 BFF35F8F 		dmb	sy
 650:Generated_Source\PSoC5/cyfitter_cfg.c **** 
 651:Generated_Source\PSoC5/cyfitter_cfg.c **** 	/* Wait for all DMA transfers to complete */
 652:Generated_Source\PSoC5/cyfitter_cfg.c **** 	while(0u != (CY_GET_REG8((void CYXDATA *)CYREG_PHUB_CH0_BASIC_STATUS) & 0x01u)){}
 752              		.loc 1 652 0
 753 00b8 00BF     		nop
 754              	.L10:
 755              		.loc 1 652 0 is_stmt 0 discriminator 1
 756 00ba 2B4B     		ldr	r3, .L15+76
 757 00bc 1B78     		ldrb	r3, [r3]
 758 00be DBB2     		uxtb	r3, r3
 759 00c0 03F00103 		and	r3, r3, #1
 760 00c4 002B     		cmp	r3, #0
 761 00c6 F8D1     		bne	.L10
 653:Generated_Source\PSoC5/cyfitter_cfg.c **** 	while(0u != (CY_GET_REG8((void CYXDATA *)CYREG_PHUB_CH1_BASIC_STATUS) & 0x01u)){}
 762              		.loc 1 653 0 is_stmt 1
 763 00c8 00BF     		nop
 764              	.L11:
 765              		.loc 1 653 0 is_stmt 0 discriminator 1
 766 00ca 284B     		ldr	r3, .L15+80
 767 00cc 1B78     		ldrb	r3, [r3]
 768 00ce DBB2     		uxtb	r3, r3
 769 00d0 03F00103 		and	r3, r3, #1
 770 00d4 002B     		cmp	r3, #0
ARM GAS  C:\Users\Jona\AppData\Local\Temp\cc6fh2gk.s 			page 26


 771 00d6 F8D1     		bne	.L11
 654:Generated_Source\PSoC5/cyfitter_cfg.c **** 	while(0u != (CY_GET_REG8((void CYXDATA *)CYREG_PHUB_CH2_BASIC_STATUS) & 0x01u)){}
 772              		.loc 1 654 0 is_stmt 1
 773 00d8 00BF     		nop
 774              	.L12:
 775              		.loc 1 654 0 is_stmt 0 discriminator 1
 776 00da 254B     		ldr	r3, .L15+84
 777 00dc 1B78     		ldrb	r3, [r3]
 778 00de DBB2     		uxtb	r3, r3
 779 00e0 03F00103 		and	r3, r3, #1
 780 00e4 002B     		cmp	r3, #0
 781 00e6 F8D1     		bne	.L12
 655:Generated_Source\PSoC5/cyfitter_cfg.c **** 	while(0u != (CY_GET_REG8((void CYXDATA *)CYREG_PHUB_CH5_BASIC_STATUS) & 0x01u)){}
 782              		.loc 1 655 0 is_stmt 1
 783 00e8 00BF     		nop
 784              	.L13:
 785              		.loc 1 655 0 is_stmt 0 discriminator 1
 786 00ea 224B     		ldr	r3, .L15+88
 787 00ec 1B78     		ldrb	r3, [r3]
 788 00ee DBB2     		uxtb	r3, r3
 789 00f0 03F00103 		and	r3, r3, #1
 790 00f4 002B     		cmp	r3, #0
 791 00f6 F8D1     		bne	.L13
 656:Generated_Source\PSoC5/cyfitter_cfg.c **** 	while(0u != (CY_GET_REG8((void CYXDATA *)CYREG_PHUB_CH6_BASIC_STATUS) & 0x01u)){}
 792              		.loc 1 656 0 is_stmt 1
 793 00f8 00BF     		nop
 794              	.L14:
 795              		.loc 1 656 0 is_stmt 0 discriminator 1
 796 00fa 1F4B     		ldr	r3, .L15+92
 797 00fc 1B78     		ldrb	r3, [r3]
 798 00fe DBB2     		uxtb	r3, r3
 799 0100 03F00103 		and	r3, r3, #1
 800 0104 002B     		cmp	r3, #0
 801 0106 F8D1     		bne	.L14
 657:Generated_Source\PSoC5/cyfitter_cfg.c **** 
 658:Generated_Source\PSoC5/cyfitter_cfg.c **** 
 659:Generated_Source\PSoC5/cyfitter_cfg.c **** 	CYCONFIGCPY((void CYFAR *)(CYREG_IDMUX_DRQ_CTL0), (const void CYFAR *)(BS_IDMUX_VAL), 6u);
 802              		.loc 1 659 0 is_stmt 1
 803 0108 0622     		movs	r2, #6
 804 010a 4FF09041 		mov	r1, #1207959552
 805 010e 1B48     		ldr	r0, .L15+96
 806 0110 FFF7FEFF 		bl	CYCONFIGCPY
 660:Generated_Source\PSoC5/cyfitter_cfg.c **** 
 661:Generated_Source\PSoC5/cyfitter_cfg.c **** }
 807              		.loc 1 661 0
 808 0114 00BF     		nop
 809 0116 0837     		adds	r7, r7, #8
 810              		.cfi_def_cfa_offset 8
 811 0118 BD46     		mov	sp, r7
 812              		.cfi_def_cfa_register 13
 813              		@ sp needed
 814 011a 80BD     		pop	{r7, pc}
 815              	.L16:
 816              		.align	2
 817              	.L15:
 818 011c 00000000 		.word	DMA_ZERO_VAL.4971
 819 0120 00760040 		.word	1073772032
ARM GAS  C:\Users\Jona\AppData\Local\Temp\cc6fh2gk.s 			page 27


 820 0124 10700040 		.word	1073770512
 821 0128 19700040 		.word	1073770521
 822 012c 00780040 		.word	1073772544
 823 0130 02780040 		.word	1073772546
 824 0134 03780040 		.word	1073772547
 825 0138 04780040 		.word	1073772548
 826 013c 28000000 		.word	CFG_TD_LIST0.4972
 827 0140 06780040 		.word	1073772550
 828 0144 04760040 		.word	1073772036
 829 0148 06760040 		.word	1073772038
 830 014c 29700040 		.word	1073770537
 831 0150 39700040 		.word	1073770553
 832 0154 69700040 		.word	1073770601
 833 0158 79700040 		.word	1073770617
 834 015c 14700040 		.word	1073770516
 835 0160 0C780040 		.word	1073772556
 836 0164 00000000 		.word	CFG_TD_ADDR0.4973
 837 0168 18700040 		.word	1073770520
 838 016c 28700040 		.word	1073770536
 839 0170 38700040 		.word	1073770552
 840 0174 68700040 		.word	1073770600
 841 0178 78700040 		.word	1073770616
 842 017c 10510140 		.word	1073828112
 843              		.cfi_endproc
 844              	.LFE4:
 845              		.size	cfg_dma_init, .-cfg_dma_init
 846              		.section	.text.ClockSetup,"ax",%progbits
 847              		.align	2
 848              		.thumb
 849              		.thumb_func
 850              		.type	ClockSetup, %function
 851              	ClockSetup:
 852              	.LFB5:
 662:Generated_Source\PSoC5/cyfitter_cfg.c **** /*******************************************************************************
 663:Generated_Source\PSoC5/cyfitter_cfg.c **** * Function Name: ClockSetup
 664:Generated_Source\PSoC5/cyfitter_cfg.c **** ********************************************************************************
 665:Generated_Source\PSoC5/cyfitter_cfg.c **** *
 666:Generated_Source\PSoC5/cyfitter_cfg.c **** * Summary:
 667:Generated_Source\PSoC5/cyfitter_cfg.c **** *  Performs the initialization of all of the clocks in the device based on the
 668:Generated_Source\PSoC5/cyfitter_cfg.c **** *  settings in the Clock tab of the DWR.  This includes enabling the requested
 669:Generated_Source\PSoC5/cyfitter_cfg.c **** *  clocks and setting the necessary dividers to produce the desired frequency. 
 670:Generated_Source\PSoC5/cyfitter_cfg.c **** *
 671:Generated_Source\PSoC5/cyfitter_cfg.c **** * Parameters:
 672:Generated_Source\PSoC5/cyfitter_cfg.c **** *  void
 673:Generated_Source\PSoC5/cyfitter_cfg.c **** *
 674:Generated_Source\PSoC5/cyfitter_cfg.c **** * Return:
 675:Generated_Source\PSoC5/cyfitter_cfg.c **** *  void
 676:Generated_Source\PSoC5/cyfitter_cfg.c **** *
 677:Generated_Source\PSoC5/cyfitter_cfg.c **** *******************************************************************************/
 678:Generated_Source\PSoC5/cyfitter_cfg.c **** static void ClockSetup(void);
 679:Generated_Source\PSoC5/cyfitter_cfg.c **** static void ClockSetup(void)
 680:Generated_Source\PSoC5/cyfitter_cfg.c **** {
 853              		.loc 1 680 0
 854              		.cfi_startproc
 855              		@ args = 0, pretend = 0, frame = 8
 856              		@ frame_needed = 1, uses_anonymous_args = 0
 857 0000 80B5     		push	{r7, lr}
ARM GAS  C:\Users\Jona\AppData\Local\Temp\cc6fh2gk.s 			page 28


 858              		.cfi_def_cfa_offset 8
 859              		.cfi_offset 7, -8
 860              		.cfi_offset 14, -4
 861 0002 82B0     		sub	sp, sp, #8
 862              		.cfi_def_cfa_offset 16
 863 0004 00AF     		add	r7, sp, #0
 864              		.cfi_def_cfa_register 7
 681:Generated_Source\PSoC5/cyfitter_cfg.c **** 	uint32 timeout;
 682:Generated_Source\PSoC5/cyfitter_cfg.c **** 	uint8 pllLock;
 683:Generated_Source\PSoC5/cyfitter_cfg.c **** 
 684:Generated_Source\PSoC5/cyfitter_cfg.c **** 
 685:Generated_Source\PSoC5/cyfitter_cfg.c **** 	/* Configure Digital Clocks based on settings from Clock DWR */
 686:Generated_Source\PSoC5/cyfitter_cfg.c **** 	CY_SET_XTND_REG16((void CYFAR *)(CYREG_CLKDIST_DCFG0_CFG0), 0x0004u);
 865              		.loc 1 686 0
 866 0006 404B     		ldr	r3, .L22
 867 0008 0422     		movs	r2, #4
 868 000a 1A80     		strh	r2, [r3]	@ movhi
 687:Generated_Source\PSoC5/cyfitter_cfg.c **** 	CY_SET_XTND_REG8((void CYFAR *)(CYREG_CLKDIST_DCFG0_CFG0 + 0x2u), 0x18u);
 869              		.loc 1 687 0
 870 000c 3F4B     		ldr	r3, .L22+4
 871 000e 1822     		movs	r2, #24
 872 0010 1A70     		strb	r2, [r3]
 688:Generated_Source\PSoC5/cyfitter_cfg.c **** 	CY_SET_XTND_REG16((void CYFAR *)(CYREG_CLKDIST_DCFG1_CFG0), 0x3A97u);
 873              		.loc 1 688 0
 874 0012 3F4B     		ldr	r3, .L22+8
 875 0014 43F69722 		movw	r2, #14999
 876 0018 1A80     		strh	r2, [r3]	@ movhi
 689:Generated_Source\PSoC5/cyfitter_cfg.c **** 	CY_SET_XTND_REG8((void CYFAR *)(CYREG_CLKDIST_DCFG1_CFG0 + 0x2u), 0x19u);
 877              		.loc 1 689 0
 878 001a 3E4B     		ldr	r3, .L22+12
 879 001c 1922     		movs	r2, #25
 880 001e 1A70     		strb	r2, [r3]
 690:Generated_Source\PSoC5/cyfitter_cfg.c **** 
 691:Generated_Source\PSoC5/cyfitter_cfg.c **** 	/* Configure Analog Clocks based on settings from Clock DWR */
 692:Generated_Source\PSoC5/cyfitter_cfg.c **** 	CYCONFIGCPY((void CYFAR *)(CYREG_CLKDIST_ACFG0_CFG0), (const void CYFAR *)(BS_CYDEV_CLKDIST_ACFG0_
 881              		.loc 1 692 0
 882 0020 0822     		movs	r2, #8
 883 0022 3D49     		ldr	r1, .L22+16
 884 0024 3D48     		ldr	r0, .L22+20
 885 0026 FFF7FEFF 		bl	CYCONFIGCPY
 693:Generated_Source\PSoC5/cyfitter_cfg.c **** 
 694:Generated_Source\PSoC5/cyfitter_cfg.c **** 	/* Configure ILO based on settings from Clock DWR */
 695:Generated_Source\PSoC5/cyfitter_cfg.c **** 	CY_SET_XTND_REG8((void CYFAR *)(CYREG_SLOWCLK_ILO_CR0), 0x02u);
 886              		.loc 1 695 0
 887 002a 3D4B     		ldr	r3, .L22+24
 888 002c 0222     		movs	r2, #2
 889 002e 1A70     		strb	r2, [r3]
 696:Generated_Source\PSoC5/cyfitter_cfg.c **** 	CY_SET_XTND_REG8((void CYFAR *)(CYREG_CLKDIST_CR), 0x08u);
 890              		.loc 1 696 0
 891 0030 4FF04023 		mov	r3, #1073758208
 892 0034 0822     		movs	r2, #8
 893 0036 1A70     		strb	r2, [r3]
 697:Generated_Source\PSoC5/cyfitter_cfg.c **** 
 698:Generated_Source\PSoC5/cyfitter_cfg.c **** 	/* Configure IMO based on settings from Clock DWR */
 699:Generated_Source\PSoC5/cyfitter_cfg.c **** 	CY_SET_XTND_REG8((void CYFAR *)(CYREG_FASTCLK_IMO_CR), 0x03u);
 894              		.loc 1 699 0
 895 0038 3A4B     		ldr	r3, .L22+28
ARM GAS  C:\Users\Jona\AppData\Local\Temp\cc6fh2gk.s 			page 29


 896 003a 0322     		movs	r2, #3
 897 003c 1A70     		strb	r2, [r3]
 700:Generated_Source\PSoC5/cyfitter_cfg.c **** 	CY_SET_XTND_REG8((void CYFAR *)(CYREG_IMO_TR1), (CY_GET_XTND_REG8((void CYFAR *)CYREG_FLSHID_CUST_
 898              		.loc 1 700 0
 899 003e 3A4B     		ldr	r3, .L22+32
 900 0040 3A4A     		ldr	r2, .L22+36
 901 0042 1278     		ldrb	r2, [r2]
 902 0044 D2B2     		uxtb	r2, r2
 903 0046 1A70     		strb	r2, [r3]
 701:Generated_Source\PSoC5/cyfitter_cfg.c **** 
 702:Generated_Source\PSoC5/cyfitter_cfg.c **** 	/* Configure PLL based on settings from Clock DWR */
 703:Generated_Source\PSoC5/cyfitter_cfg.c **** 	CY_SET_XTND_REG16((void CYFAR *)(CYREG_FASTCLK_PLL_P), 0x001Au);
 904              		.loc 1 703 0
 905 0048 394B     		ldr	r3, .L22+40
 906 004a 1A22     		movs	r2, #26
 907 004c 1A80     		strh	r2, [r3]	@ movhi
 704:Generated_Source\PSoC5/cyfitter_cfg.c **** 	CY_SET_XTND_REG16((void CYFAR *)(CYREG_FASTCLK_PLL_CFG0), 0x2251u);
 908              		.loc 1 704 0
 909 004e 394B     		ldr	r3, .L22+44
 910 0050 42F25122 		movw	r2, #8785
 911 0054 1A80     		strh	r2, [r3]	@ movhi
 705:Generated_Source\PSoC5/cyfitter_cfg.c **** 	/* Wait up to 250us for the PLL to lock */
 706:Generated_Source\PSoC5/cyfitter_cfg.c **** 	pllLock = 0u;
 912              		.loc 1 706 0
 913 0056 0023     		movs	r3, #0
 914 0058 FB70     		strb	r3, [r7, #3]
 707:Generated_Source\PSoC5/cyfitter_cfg.c **** 	for (timeout = 250u / 10u; (timeout > 0u) && (pllLock != 0x03u); timeout--)
 915              		.loc 1 707 0
 916 005a 1923     		movs	r3, #25
 917 005c 7B60     		str	r3, [r7, #4]
 918 005e 14E0     		b	.L18
 919              	.L20:
 708:Generated_Source\PSoC5/cyfitter_cfg.c **** 	{ 
 709:Generated_Source\PSoC5/cyfitter_cfg.c **** 		pllLock = 0x03u & ((uint8)((uint8)pllLock << 1) | ((CY_GET_XTND_REG8((void CYFAR *)CYREG_FASTCLK_
 920              		.loc 1 709 0 discriminator 4
 921 0060 FB78     		ldrb	r3, [r7, #3]
 922 0062 5B00     		lsls	r3, r3, #1
 923 0064 DAB2     		uxtb	r2, r3
 924 0066 344B     		ldr	r3, .L22+48
 925 0068 1B78     		ldrb	r3, [r3]
 926 006a DBB2     		uxtb	r3, r3
 927 006c 03F00103 		and	r3, r3, #1
 928 0070 DBB2     		uxtb	r3, r3
 929 0072 1343     		orrs	r3, r3, r2
 930 0074 DBB2     		uxtb	r3, r3
 931 0076 03F00303 		and	r3, r3, #3
 932 007a FB70     		strb	r3, [r7, #3]
 710:Generated_Source\PSoC5/cyfitter_cfg.c **** 		CyDelayCycles(10u * 48u); /* Delay 10us based on 48MHz clock */
 933              		.loc 1 710 0 discriminator 4
 934 007c 4FF4F070 		mov	r0, #480
 935 0080 FFF7FEFF 		bl	CyDelayCycles
 707:Generated_Source\PSoC5/cyfitter_cfg.c **** 	for (timeout = 250u / 10u; (timeout > 0u) && (pllLock != 0x03u); timeout--)
 936              		.loc 1 707 0 discriminator 4
 937 0084 7B68     		ldr	r3, [r7, #4]
 938 0086 013B     		subs	r3, r3, #1
 939 0088 7B60     		str	r3, [r7, #4]
 940              	.L18:
ARM GAS  C:\Users\Jona\AppData\Local\Temp\cc6fh2gk.s 			page 30


 707:Generated_Source\PSoC5/cyfitter_cfg.c **** 	for (timeout = 250u / 10u; (timeout > 0u) && (pllLock != 0x03u); timeout--)
 941              		.loc 1 707 0 is_stmt 0 discriminator 1
 942 008a 7B68     		ldr	r3, [r7, #4]
 943 008c 002B     		cmp	r3, #0
 944 008e 02D0     		beq	.L19
 707:Generated_Source\PSoC5/cyfitter_cfg.c **** 	for (timeout = 250u / 10u; (timeout > 0u) && (pllLock != 0x03u); timeout--)
 945              		.loc 1 707 0 discriminator 3
 946 0090 FB78     		ldrb	r3, [r7, #3]	@ zero_extendqisi2
 947 0092 032B     		cmp	r3, #3
 948 0094 E4D1     		bne	.L20
 949              	.L19:
 711:Generated_Source\PSoC5/cyfitter_cfg.c **** 	}
 712:Generated_Source\PSoC5/cyfitter_cfg.c **** 	/* If we ran out of time the PLL didn't lock so go to the error function */
 713:Generated_Source\PSoC5/cyfitter_cfg.c **** 	if (timeout == 0u)
 950              		.loc 1 713 0 is_stmt 1
 951 0096 7B68     		ldr	r3, [r7, #4]
 952 0098 002B     		cmp	r3, #0
 953 009a 02D1     		bne	.L21
 714:Generated_Source\PSoC5/cyfitter_cfg.c **** 	{
 715:Generated_Source\PSoC5/cyfitter_cfg.c **** 		CyClockStartupError(CYCLOCKSTART_PLL_ERROR);
 954              		.loc 1 715 0
 955 009c 0320     		movs	r0, #3
 956 009e FFF7FEFF 		bl	CyClockStartupError
 957              	.L21:
 716:Generated_Source\PSoC5/cyfitter_cfg.c **** 	}
 717:Generated_Source\PSoC5/cyfitter_cfg.c **** 
 718:Generated_Source\PSoC5/cyfitter_cfg.c **** 	/* Configure Bus/Master Clock based on settings from Clock DWR */
 719:Generated_Source\PSoC5/cyfitter_cfg.c **** 	CY_SET_XTND_REG16((void CYFAR *)(CYREG_CLKDIST_MSTR0), 0x0100u);
 958              		.loc 1 719 0
 959 00a2 264B     		ldr	r3, .L22+52
 960 00a4 4FF48072 		mov	r2, #256
 961 00a8 1A80     		strh	r2, [r3]	@ movhi
 720:Generated_Source\PSoC5/cyfitter_cfg.c **** 	CY_SET_XTND_REG8((void CYFAR *)(CYREG_CLKDIST_MSTR0), 0x07u);
 962              		.loc 1 720 0
 963 00aa 244B     		ldr	r3, .L22+52
 964 00ac 0722     		movs	r2, #7
 965 00ae 1A70     		strb	r2, [r3]
 721:Generated_Source\PSoC5/cyfitter_cfg.c **** 	CY_SET_XTND_REG8((void CYFAR *)(CYREG_CLKDIST_BCFG0), 0x00u);
 966              		.loc 1 721 0
 967 00b0 234B     		ldr	r3, .L22+56
 968 00b2 0022     		movs	r2, #0
 969 00b4 1A70     		strb	r2, [r3]
 722:Generated_Source\PSoC5/cyfitter_cfg.c **** 	CY_SET_XTND_REG8((void CYFAR *)(CYREG_CLKDIST_BCFG2), 0x48u);
 970              		.loc 1 722 0
 971 00b6 234B     		ldr	r3, .L22+60
 972 00b8 4822     		movs	r2, #72
 973 00ba 1A70     		strb	r2, [r3]
 723:Generated_Source\PSoC5/cyfitter_cfg.c **** 	CY_SET_XTND_REG8((void CYFAR *)(CYREG_CLKDIST_MSTR0), 0x00u);
 974              		.loc 1 723 0
 975 00bc 1F4B     		ldr	r3, .L22+52
 976 00be 0022     		movs	r2, #0
 977 00c0 1A70     		strb	r2, [r3]
 724:Generated_Source\PSoC5/cyfitter_cfg.c **** 	CY_SET_XTND_REG8((void CYFAR *)(CYREG_CLKDIST_LD), 0x02u);
 978              		.loc 1 724 0
 979 00c2 214B     		ldr	r3, .L22+64
 980 00c4 0222     		movs	r2, #2
 981 00c6 1A70     		strb	r2, [r3]
ARM GAS  C:\Users\Jona\AppData\Local\Temp\cc6fh2gk.s 			page 31


 725:Generated_Source\PSoC5/cyfitter_cfg.c **** 	CY_SET_XTND_REG8((void CYFAR *)(CYREG_CLKDIST_DLY1), 0x04u);
 982              		.loc 1 725 0
 983 00c8 204B     		ldr	r3, .L22+68
 984 00ca 0422     		movs	r2, #4
 985 00cc 1A70     		strb	r2, [r3]
 726:Generated_Source\PSoC5/cyfitter_cfg.c **** 
 727:Generated_Source\PSoC5/cyfitter_cfg.c **** 	CY_SET_XTND_REG8((void CYFAR *)(CYREG_PM_ACT_CFG2), ((CY_GET_XTND_REG8((void CYFAR *)CYREG_PM_ACT_
 986              		.loc 1 727 0
 987 00ce 204A     		ldr	r2, .L22+72
 988 00d0 1F4B     		ldr	r3, .L22+72
 989 00d2 1B78     		ldrb	r3, [r3]
 990 00d4 DBB2     		uxtb	r3, r3
 991 00d6 43F00303 		orr	r3, r3, #3
 992 00da DBB2     		uxtb	r3, r3
 993 00dc 1370     		strb	r3, [r2]
 728:Generated_Source\PSoC5/cyfitter_cfg.c **** 	CY_SET_XTND_REG8((void CYFAR *)(CYREG_PM_ACT_CFG1), ((CY_GET_XTND_REG8((void CYFAR *)CYREG_PM_ACT_
 994              		.loc 1 728 0
 995 00de 1D4A     		ldr	r2, .L22+76
 996 00e0 1C4B     		ldr	r3, .L22+76
 997 00e2 1B78     		ldrb	r3, [r3]
 998 00e4 DBB2     		uxtb	r3, r3
 999 00e6 43F00303 		orr	r3, r3, #3
 1000 00ea DBB2     		uxtb	r3, r3
 1001 00ec 1370     		strb	r3, [r2]
 729:Generated_Source\PSoC5/cyfitter_cfg.c **** 	CY_SET_XTND_REG8((void CYFAR *)(CYREG_PM_ACT_CFG0), ((CY_GET_XTND_REG8((void CYFAR *)CYREG_PM_ACT_
 1002              		.loc 1 729 0
 1003 00ee 1A4A     		ldr	r2, .L22+80
 1004 00f0 194B     		ldr	r3, .L22+80
 1005 00f2 1B78     		ldrb	r3, [r3]
 1006 00f4 DBB2     		uxtb	r3, r3
 1007 00f6 63F07F03 		orn	r3, r3, #127
 1008 00fa DBB2     		uxtb	r3, r3
 1009 00fc 1370     		strb	r3, [r2]
 730:Generated_Source\PSoC5/cyfitter_cfg.c **** }
 1010              		.loc 1 730 0
 1011 00fe 00BF     		nop
 1012 0100 0837     		adds	r7, r7, #8
 1013              		.cfi_def_cfa_offset 8
 1014 0102 BD46     		mov	sp, r7
 1015              		.cfi_def_cfa_register 13
 1016              		@ sp needed
 1017 0104 80BD     		pop	{r7, pc}
 1018              	.L23:
 1019 0106 00BF     		.align	2
 1020              	.L22:
 1021 0108 80400040 		.word	1073758336
 1022 010c 82400040 		.word	1073758338
 1023 0110 84400040 		.word	1073758340
 1024 0114 86400040 		.word	1073758342
 1025 0118 DC1B0048 		.word	1207966684
 1026 011c 00410040 		.word	1073758464
 1027 0120 00430040 		.word	1073758976
 1028 0124 00420040 		.word	1073758720
 1029 0128 A1460040 		.word	1073759905
 1030 012c 08010049 		.word	1224737032
 1031 0130 22420040 		.word	1073758754
 1032 0134 20420040 		.word	1073758752
ARM GAS  C:\Users\Jona\AppData\Local\Temp\cc6fh2gk.s 			page 32


 1033 0138 25420040 		.word	1073758757
 1034 013c 04400040 		.word	1073758212
 1035 0140 06400040 		.word	1073758214
 1036 0144 08400040 		.word	1073758216
 1037 0148 01400040 		.word	1073758209
 1038 014c 0B400040 		.word	1073758219
 1039 0150 A2430040 		.word	1073759138
 1040 0154 A1430040 		.word	1073759137
 1041 0158 A0430040 		.word	1073759136
 1042              		.cfi_endproc
 1043              	.LFE5:
 1044              		.size	ClockSetup, .-ClockSetup
 1045              		.section	.text.AnalogSetDefault,"ax",%progbits
 1046              		.align	2
 1047              		.thumb
 1048              		.thumb_func
 1049              		.type	AnalogSetDefault, %function
 1050              	AnalogSetDefault:
 1051              	.LFB6:
 731:Generated_Source\PSoC5/cyfitter_cfg.c **** 
 732:Generated_Source\PSoC5/cyfitter_cfg.c **** 
 733:Generated_Source\PSoC5/cyfitter_cfg.c **** /* Analog API Functions */
 734:Generated_Source\PSoC5/cyfitter_cfg.c **** 
 735:Generated_Source\PSoC5/cyfitter_cfg.c **** 
 736:Generated_Source\PSoC5/cyfitter_cfg.c **** /*******************************************************************************
 737:Generated_Source\PSoC5/cyfitter_cfg.c **** * Function Name: AnalogSetDefault
 738:Generated_Source\PSoC5/cyfitter_cfg.c **** ********************************************************************************
 739:Generated_Source\PSoC5/cyfitter_cfg.c **** *
 740:Generated_Source\PSoC5/cyfitter_cfg.c **** * Summary:
 741:Generated_Source\PSoC5/cyfitter_cfg.c **** *  Sets up the analog portions of the chip to default values based on chip
 742:Generated_Source\PSoC5/cyfitter_cfg.c **** *  configuration options from the project.
 743:Generated_Source\PSoC5/cyfitter_cfg.c **** *
 744:Generated_Source\PSoC5/cyfitter_cfg.c **** * Parameters:
 745:Generated_Source\PSoC5/cyfitter_cfg.c **** *  void
 746:Generated_Source\PSoC5/cyfitter_cfg.c **** *
 747:Generated_Source\PSoC5/cyfitter_cfg.c **** * Return:
 748:Generated_Source\PSoC5/cyfitter_cfg.c **** *  void
 749:Generated_Source\PSoC5/cyfitter_cfg.c **** *
 750:Generated_Source\PSoC5/cyfitter_cfg.c **** *******************************************************************************/
 751:Generated_Source\PSoC5/cyfitter_cfg.c **** static void AnalogSetDefault(void);
 752:Generated_Source\PSoC5/cyfitter_cfg.c **** static void AnalogSetDefault(void)
 753:Generated_Source\PSoC5/cyfitter_cfg.c **** {
 1052              		.loc 1 753 0
 1053              		.cfi_startproc
 1054              		@ args = 0, pretend = 0, frame = 8
 1055              		@ frame_needed = 1, uses_anonymous_args = 0
 1056 0000 80B5     		push	{r7, lr}
 1057              		.cfi_def_cfa_offset 8
 1058              		.cfi_offset 7, -8
 1059              		.cfi_offset 14, -4
 1060 0002 82B0     		sub	sp, sp, #8
 1061              		.cfi_def_cfa_offset 16
 1062 0004 00AF     		add	r7, sp, #0
 1063              		.cfi_def_cfa_register 7
 754:Generated_Source\PSoC5/cyfitter_cfg.c **** 	uint8 bg_xover_inl_trim = CY_GET_XTND_REG8((void CYFAR *)(CYREG_FLSHID_MFG_CFG_BG_XOVER_INL_TRIM +
 1064              		.loc 1 754 0
 1065 0006 274B     		ldr	r3, .L25
ARM GAS  C:\Users\Jona\AppData\Local\Temp\cc6fh2gk.s 			page 33


 1066 0008 1B78     		ldrb	r3, [r3]
 1067 000a FB71     		strb	r3, [r7, #7]
 755:Generated_Source\PSoC5/cyfitter_cfg.c **** 	uint8 cr4 = CY_GET_XTND_REG8((void CYFAR *)(CYREG_RESET_CR4));
 1068              		.loc 1 755 0
 1069 000c 264B     		ldr	r3, .L25+4
 1070 000e 1B78     		ldrb	r3, [r3]
 1071 0010 BB71     		strb	r3, [r7, #6]
 756:Generated_Source\PSoC5/cyfitter_cfg.c **** 	uint8 cr5 = CY_GET_XTND_REG8((void CYFAR *)(CYREG_RESET_CR5));
 1072              		.loc 1 756 0
 1073 0012 264B     		ldr	r3, .L25+8
 1074 0014 1B78     		ldrb	r3, [r3]
 1075 0016 7B71     		strb	r3, [r7, #5]
 757:Generated_Source\PSoC5/cyfitter_cfg.c **** 	CY_SET_XTND_REG8((void CYFAR *)(CYREG_BG_DFT0), (bg_xover_inl_trim & 0x07u));
 1076              		.loc 1 757 0
 1077 0018 254A     		ldr	r2, .L25+12
 1078 001a FB79     		ldrb	r3, [r7, #7]
 1079 001c 03F00703 		and	r3, r3, #7
 1080 0020 DBB2     		uxtb	r3, r3
 1081 0022 1370     		strb	r3, [r2]
 758:Generated_Source\PSoC5/cyfitter_cfg.c **** 	CY_SET_XTND_REG8((void CYFAR *)(CYREG_BG_DFT1), ((bg_xover_inl_trim >> 4) & 0x0Fu));
 1082              		.loc 1 758 0
 1083 0024 234A     		ldr	r2, .L25+16
 1084 0026 FB79     		ldrb	r3, [r7, #7]	@ zero_extendqisi2
 1085 0028 1B09     		lsrs	r3, r3, #4
 1086 002a DBB2     		uxtb	r3, r3
 1087 002c 1370     		strb	r3, [r2]
 759:Generated_Source\PSoC5/cyfitter_cfg.c **** 	/* Disable PRES while setting up SAR voltage reference */
 760:Generated_Source\PSoC5/cyfitter_cfg.c **** 	CY_SET_XTND_REG8((void CYFAR *)(CYREG_RESET_CR4), (cr4 | 0x03u));
 1088              		.loc 1 760 0
 1089 002e 1E4A     		ldr	r2, .L25+4
 1090 0030 BB79     		ldrb	r3, [r7, #6]
 1091 0032 43F00303 		orr	r3, r3, #3
 1092 0036 DBB2     		uxtb	r3, r3
 1093 0038 1370     		strb	r3, [r2]
 761:Generated_Source\PSoC5/cyfitter_cfg.c **** 	CY_SET_XTND_REG8((void CYFAR *)(CYREG_RESET_CR5), (cr5 | 0x03u));
 1094              		.loc 1 761 0
 1095 003a 1C4A     		ldr	r2, .L25+8
 1096 003c 7B79     		ldrb	r3, [r7, #5]
 1097 003e 43F00303 		orr	r3, r3, #3
 1098 0042 DBB2     		uxtb	r3, r3
 1099 0044 1370     		strb	r3, [r2]
 762:Generated_Source\PSoC5/cyfitter_cfg.c **** 	CY_SET_XTND_REG8((void CYFAR *)CYREG_PRT0_AG, 0x18u);
 1100              		.loc 1 762 0
 1101 0046 1C4B     		ldr	r3, .L25+20
 1102 0048 1822     		movs	r2, #24
 1103 004a 1A70     		strb	r2, [r3]
 763:Generated_Source\PSoC5/cyfitter_cfg.c **** 	CY_SET_XTND_REG8((void CYFAR *)CYREG_SAR0_CSR1, 0x40u);
 1104              		.loc 1 763 0
 1105 004c 1B4B     		ldr	r3, .L25+24
 1106 004e 4022     		movs	r2, #64
 1107 0050 1A70     		strb	r2, [r3]
 764:Generated_Source\PSoC5/cyfitter_cfg.c **** 	CY_SET_XTND_REG8((void CYFAR *)CYREG_SAR0_CSR3, 0x40u);
 1108              		.loc 1 764 0
 1109 0052 1B4B     		ldr	r3, .L25+28
 1110 0054 4022     		movs	r2, #64
 1111 0056 1A70     		strb	r2, [r3]
 765:Generated_Source\PSoC5/cyfitter_cfg.c **** 	CY_SET_XTND_REG8((void CYFAR *)CYREG_SAR1_CSR1, 0x40u);
ARM GAS  C:\Users\Jona\AppData\Local\Temp\cc6fh2gk.s 			page 34


 1112              		.loc 1 765 0
 1113 0058 1A4B     		ldr	r3, .L25+32
 1114 005a 4022     		movs	r2, #64
 1115 005c 1A70     		strb	r2, [r3]
 766:Generated_Source\PSoC5/cyfitter_cfg.c **** 	CY_SET_XTND_REG8((void CYFAR *)CYREG_SAR1_CSR3, 0x40u);
 1116              		.loc 1 766 0
 1117 005e 1A4B     		ldr	r3, .L25+36
 1118 0060 4022     		movs	r2, #64
 1119 0062 1A70     		strb	r2, [r3]
 767:Generated_Source\PSoC5/cyfitter_cfg.c **** 	CY_SET_XTND_REG8((void CYFAR *)CYREG_SAR0_SW0, 0x10u);
 1120              		.loc 1 767 0
 1121 0064 194B     		ldr	r3, .L25+40
 1122 0066 1022     		movs	r2, #16
 1123 0068 1A70     		strb	r2, [r3]
 768:Generated_Source\PSoC5/cyfitter_cfg.c **** 	CY_SET_XTND_REG8((void CYFAR *)CYREG_SAR0_SW3, 0x20u);
 1124              		.loc 1 768 0
 1125 006a 194B     		ldr	r3, .L25+44
 1126 006c 2022     		movs	r2, #32
 1127 006e 1A70     		strb	r2, [r3]
 769:Generated_Source\PSoC5/cyfitter_cfg.c **** 	CY_SET_XTND_REG8((void CYFAR *)CYREG_SAR1_SW0, 0x80u);
 1128              		.loc 1 769 0
 1129 0070 184B     		ldr	r3, .L25+48
 1130 0072 8022     		movs	r2, #128
 1131 0074 1A70     		strb	r2, [r3]
 770:Generated_Source\PSoC5/cyfitter_cfg.c **** 	CY_SET_XTND_REG8((void CYFAR *)CYREG_SAR1_SW3, 0x20u);
 1132              		.loc 1 770 0
 1133 0076 184B     		ldr	r3, .L25+52
 1134 0078 2022     		movs	r2, #32
 1135 007a 1A70     		strb	r2, [r3]
 771:Generated_Source\PSoC5/cyfitter_cfg.c **** 	CY_SET_XTND_REG8((void CYFAR *)CYREG_BUS_SW0, 0x80u);
 1136              		.loc 1 771 0
 1137 007c 174B     		ldr	r3, .L25+56
 1138 007e 8022     		movs	r2, #128
 1139 0080 1A70     		strb	r2, [r3]
 772:Generated_Source\PSoC5/cyfitter_cfg.c **** 	CyDelayUs(10u); /* Allow vref to settle before re-enabling PRES */
 1140              		.loc 1 772 0
 1141 0082 0A20     		movs	r0, #10
 1142 0084 FFF7FEFF 		bl	CyDelayUs
 773:Generated_Source\PSoC5/cyfitter_cfg.c **** 	CY_SET_XTND_REG8((void CYFAR *)(CYREG_RESET_CR5), (cr5));
 1143              		.loc 1 773 0
 1144 0088 084A     		ldr	r2, .L25+8
 1145 008a 7B79     		ldrb	r3, [r7, #5]
 1146 008c 1370     		strb	r3, [r2]
 774:Generated_Source\PSoC5/cyfitter_cfg.c **** 	CY_SET_XTND_REG8((void CYFAR *)(CYREG_RESET_CR4), (cr4));
 1147              		.loc 1 774 0
 1148 008e 064A     		ldr	r2, .L25+4
 1149 0090 BB79     		ldrb	r3, [r7, #6]
 1150 0092 1370     		strb	r3, [r2]
 775:Generated_Source\PSoC5/cyfitter_cfg.c **** 	CY_SET_XTND_REG8((void CYFAR *)CYREG_PUMP_CR0, 0x44u);
 1151              		.loc 1 775 0
 1152 0094 124B     		ldr	r3, .L25+60
 1153 0096 4422     		movs	r2, #68
 1154 0098 1A70     		strb	r2, [r3]
 776:Generated_Source\PSoC5/cyfitter_cfg.c **** }
 1155              		.loc 1 776 0
 1156 009a 00BF     		nop
 1157 009c 0837     		adds	r7, r7, #8
ARM GAS  C:\Users\Jona\AppData\Local\Temp\cc6fh2gk.s 			page 35


 1158              		.cfi_def_cfa_offset 8
 1159 009e BD46     		mov	sp, r7
 1160              		.cfi_def_cfa_register 13
 1161              		@ sp needed
 1162 00a0 80BD     		pop	{r7, pc}
 1163              	.L26:
 1164 00a2 00BF     		.align	2
 1165              	.L25:
 1166 00a4 CF010049 		.word	1224737231
 1167 00a8 F8460040 		.word	1073759992
 1168 00ac F9460040 		.word	1073759993
 1169 00b0 6E580040 		.word	1073764462
 1170 00b4 6F580040 		.word	1073764463
 1171 00b8 0D510040 		.word	1073762573
 1172 00bc 01590040 		.word	1073764609
 1173 00c0 03590040 		.word	1073764611
 1174 00c4 09590040 		.word	1073764617
 1175 00c8 0B590040 		.word	1073764619
 1176 00cc 205B0040 		.word	1073765152
 1177 00d0 235B0040 		.word	1073765155
 1178 00d4 285B0040 		.word	1073765160
 1179 00d8 2B5B0040 		.word	1073765163
 1180 00dc 585B0040 		.word	1073765208
 1181 00e0 76580040 		.word	1073764470
 1182              		.cfi_endproc
 1183              	.LFE6:
 1184              		.size	AnalogSetDefault, .-AnalogSetDefault
 1185              		.section	.text.SetAnalogRoutingPumps,"ax",%progbits
 1186              		.align	2
 1187              		.global	SetAnalogRoutingPumps
 1188              		.thumb
 1189              		.thumb_func
 1190              		.type	SetAnalogRoutingPumps, %function
 1191              	SetAnalogRoutingPumps:
 1192              	.LFB7:
 777:Generated_Source\PSoC5/cyfitter_cfg.c **** 
 778:Generated_Source\PSoC5/cyfitter_cfg.c **** 
 779:Generated_Source\PSoC5/cyfitter_cfg.c **** /*******************************************************************************
 780:Generated_Source\PSoC5/cyfitter_cfg.c **** * Function Name: SetAnalogRoutingPumps
 781:Generated_Source\PSoC5/cyfitter_cfg.c **** ********************************************************************************
 782:Generated_Source\PSoC5/cyfitter_cfg.c **** *
 783:Generated_Source\PSoC5/cyfitter_cfg.c **** * Summary:
 784:Generated_Source\PSoC5/cyfitter_cfg.c **** * Enables or disables the analog pumps feeding analog routing switches.
 785:Generated_Source\PSoC5/cyfitter_cfg.c **** * Intended to be called at startup, based on the Vdda system configuration;
 786:Generated_Source\PSoC5/cyfitter_cfg.c **** * may be called during operation when the user informs us that the Vdda voltage
 787:Generated_Source\PSoC5/cyfitter_cfg.c **** * crossed the pump threshold.
 788:Generated_Source\PSoC5/cyfitter_cfg.c **** *
 789:Generated_Source\PSoC5/cyfitter_cfg.c **** * Parameters:
 790:Generated_Source\PSoC5/cyfitter_cfg.c **** *  enabled - 1 to enable the pumps, 0 to disable the pumps
 791:Generated_Source\PSoC5/cyfitter_cfg.c **** *
 792:Generated_Source\PSoC5/cyfitter_cfg.c **** * Return:
 793:Generated_Source\PSoC5/cyfitter_cfg.c **** *  void
 794:Generated_Source\PSoC5/cyfitter_cfg.c **** *
 795:Generated_Source\PSoC5/cyfitter_cfg.c **** *******************************************************************************/
 796:Generated_Source\PSoC5/cyfitter_cfg.c **** void SetAnalogRoutingPumps(uint8 enabled)
 797:Generated_Source\PSoC5/cyfitter_cfg.c **** {
 1193              		.loc 1 797 0
ARM GAS  C:\Users\Jona\AppData\Local\Temp\cc6fh2gk.s 			page 36


 1194              		.cfi_startproc
 1195              		@ args = 0, pretend = 0, frame = 16
 1196              		@ frame_needed = 1, uses_anonymous_args = 0
 1197              		@ link register save eliminated.
 1198 0000 80B4     		push	{r7}
 1199              		.cfi_def_cfa_offset 4
 1200              		.cfi_offset 7, -4
 1201 0002 85B0     		sub	sp, sp, #20
 1202              		.cfi_def_cfa_offset 24
 1203 0004 00AF     		add	r7, sp, #0
 1204              		.cfi_def_cfa_register 7
 1205 0006 0346     		mov	r3, r0
 1206 0008 FB71     		strb	r3, [r7, #7]
 798:Generated_Source\PSoC5/cyfitter_cfg.c **** 	uint8 regValue = CY_GET_XTND_REG8((void CYFAR *)CYREG_PUMP_CR0);
 1207              		.loc 1 798 0
 1208 000a 0B4B     		ldr	r3, .L30
 1209 000c 1B78     		ldrb	r3, [r3]
 1210 000e FB73     		strb	r3, [r7, #15]
 799:Generated_Source\PSoC5/cyfitter_cfg.c **** 	if (enabled != 0u)
 1211              		.loc 1 799 0
 1212 0010 FB79     		ldrb	r3, [r7, #7]	@ zero_extendqisi2
 1213 0012 002B     		cmp	r3, #0
 1214 0014 04D0     		beq	.L28
 800:Generated_Source\PSoC5/cyfitter_cfg.c **** 	{
 801:Generated_Source\PSoC5/cyfitter_cfg.c **** 		regValue |= 0x22u;
 1215              		.loc 1 801 0
 1216 0016 FB7B     		ldrb	r3, [r7, #15]
 1217 0018 43F02203 		orr	r3, r3, #34
 1218 001c FB73     		strb	r3, [r7, #15]
 1219 001e 03E0     		b	.L29
 1220              	.L28:
 802:Generated_Source\PSoC5/cyfitter_cfg.c **** 	}
 803:Generated_Source\PSoC5/cyfitter_cfg.c **** 	else
 804:Generated_Source\PSoC5/cyfitter_cfg.c **** 	{
 805:Generated_Source\PSoC5/cyfitter_cfg.c **** 		regValue &= (uint8)~0x22u;
 1221              		.loc 1 805 0
 1222 0020 FB7B     		ldrb	r3, [r7, #15]
 1223 0022 23F02203 		bic	r3, r3, #34
 1224 0026 FB73     		strb	r3, [r7, #15]
 1225              	.L29:
 806:Generated_Source\PSoC5/cyfitter_cfg.c **** 	}
 807:Generated_Source\PSoC5/cyfitter_cfg.c **** 	CY_SET_XTND_REG8((void CYFAR *)CYREG_PUMP_CR0, regValue);
 1226              		.loc 1 807 0
 1227 0028 034A     		ldr	r2, .L30
 1228 002a FB7B     		ldrb	r3, [r7, #15]
 1229 002c 1370     		strb	r3, [r2]
 808:Generated_Source\PSoC5/cyfitter_cfg.c **** }
 1230              		.loc 1 808 0
 1231 002e 00BF     		nop
 1232 0030 1437     		adds	r7, r7, #20
 1233              		.cfi_def_cfa_offset 4
 1234 0032 BD46     		mov	sp, r7
 1235              		.cfi_def_cfa_register 13
 1236              		@ sp needed
 1237 0034 80BC     		pop	{r7}
 1238              		.cfi_restore 7
 1239              		.cfi_def_cfa_offset 0
ARM GAS  C:\Users\Jona\AppData\Local\Temp\cc6fh2gk.s 			page 37


 1240 0036 7047     		bx	lr
 1241              	.L31:
 1242              		.align	2
 1243              	.L30:
 1244 0038 76580040 		.word	1073764470
 1245              		.cfi_endproc
 1246              	.LFE7:
 1247              		.size	SetAnalogRoutingPumps, .-SetAnalogRoutingPumps
 1248              		.section	.text.cyfitter_cfg,"ax",%progbits
 1249              		.align	2
 1250              		.global	cyfitter_cfg
 1251              		.thumb
 1252              		.thumb_func
 1253              		.type	cyfitter_cfg, %function
 1254              	cyfitter_cfg:
 1255              	.LFB8:
 809:Generated_Source\PSoC5/cyfitter_cfg.c **** 
 810:Generated_Source\PSoC5/cyfitter_cfg.c **** 
 811:Generated_Source\PSoC5/cyfitter_cfg.c **** 
 812:Generated_Source\PSoC5/cyfitter_cfg.c **** 
 813:Generated_Source\PSoC5/cyfitter_cfg.c **** /*******************************************************************************
 814:Generated_Source\PSoC5/cyfitter_cfg.c **** * Function Name: cyfitter_cfg
 815:Generated_Source\PSoC5/cyfitter_cfg.c **** ********************************************************************************
 816:Generated_Source\PSoC5/cyfitter_cfg.c **** * Summary:
 817:Generated_Source\PSoC5/cyfitter_cfg.c **** *  This function is called by the start-up code for the selected device. It
 818:Generated_Source\PSoC5/cyfitter_cfg.c **** *  performs all of the necessary device configuration based on the design
 819:Generated_Source\PSoC5/cyfitter_cfg.c **** *  settings.  This includes settings from the Design Wide Resources (DWR) such
 820:Generated_Source\PSoC5/cyfitter_cfg.c **** *  as Clocks and Pins as well as any component configuration that is necessary.
 821:Generated_Source\PSoC5/cyfitter_cfg.c **** *
 822:Generated_Source\PSoC5/cyfitter_cfg.c **** * Parameters:
 823:Generated_Source\PSoC5/cyfitter_cfg.c **** *   void
 824:Generated_Source\PSoC5/cyfitter_cfg.c **** *
 825:Generated_Source\PSoC5/cyfitter_cfg.c **** * Return:
 826:Generated_Source\PSoC5/cyfitter_cfg.c **** *   void
 827:Generated_Source\PSoC5/cyfitter_cfg.c **** *
 828:Generated_Source\PSoC5/cyfitter_cfg.c **** *******************************************************************************/
 829:Generated_Source\PSoC5/cyfitter_cfg.c **** 
 830:Generated_Source\PSoC5/cyfitter_cfg.c **** void cyfitter_cfg(void)
 831:Generated_Source\PSoC5/cyfitter_cfg.c **** {
 1256              		.loc 1 831 0
 1257              		.cfi_startproc
 1258              		@ args = 0, pretend = 0, frame = 0
 1259              		@ frame_needed = 1, uses_anonymous_args = 0
 1260 0000 80B5     		push	{r7, lr}
 1261              		.cfi_def_cfa_offset 8
 1262              		.cfi_offset 7, -8
 1263              		.cfi_offset 14, -4
 1264 0002 00AF     		add	r7, sp, #0
 1265              		.cfi_def_cfa_register 7
 832:Generated_Source\PSoC5/cyfitter_cfg.c **** #ifdef CYGlobalIntDisable
 833:Generated_Source\PSoC5/cyfitter_cfg.c **** 	/* Disable interrupts by default. Let user enable if/when they want. */
 834:Generated_Source\PSoC5/cyfitter_cfg.c **** 	CYGlobalIntDisable
 1266              		.loc 1 834 0
 1267              		.syntax unified
 1268              	@ 834 "Generated_Source\PSoC5\cyfitter_cfg.c" 1
 1269 0004 72B6     		CPSID   i
 1270              	@ 0 "" 2
ARM GAS  C:\Users\Jona\AppData\Local\Temp\cc6fh2gk.s 			page 38


 835:Generated_Source\PSoC5/cyfitter_cfg.c **** #endif
 836:Generated_Source\PSoC5/cyfitter_cfg.c **** 
 837:Generated_Source\PSoC5/cyfitter_cfg.c **** 
 838:Generated_Source\PSoC5/cyfitter_cfg.c **** 	/* Set Flash Cycles based on max possible frequency in case a glitch occurs during ClockSetup(). *
 839:Generated_Source\PSoC5/cyfitter_cfg.c **** 	CY_SET_XTND_REG8((void CYFAR *)(CYREG_CACHE_CC_CTL), (((CYDEV_INSTRUCT_CACHE_ENABLED) != 0) ? 0x61
 1271              		.loc 1 839 0
 1272              		.thumb
 1273              		.syntax unified
 1274 0006 314B     		ldr	r3, .L33
 1275 0008 6022     		movs	r2, #96
 1276 000a 1A70     		strb	r2, [r3]
 840:Generated_Source\PSoC5/cyfitter_cfg.c **** 	/* Setup clocks based on selections from Clock DWR */
 841:Generated_Source\PSoC5/cyfitter_cfg.c **** 	ClockSetup();
 1277              		.loc 1 841 0
 1278 000c FFF7FEFF 		bl	ClockSetup
 842:Generated_Source\PSoC5/cyfitter_cfg.c **** 	/* Enable/Disable Debug functionality based on settings from System DWR */
 843:Generated_Source\PSoC5/cyfitter_cfg.c **** 	CY_SET_XTND_REG8((void CYFAR *)CYREG_MLOGIC_DEBUG, (CY_GET_XTND_REG8((void CYFAR *)CYREG_MLOGIC_DE
 1279              		.loc 1 843 0
 1280 0010 2F4A     		ldr	r2, .L33+4
 1281 0012 2F4B     		ldr	r3, .L33+4
 1282 0014 1B78     		ldrb	r3, [r3]
 1283 0016 DBB2     		uxtb	r3, r3
 1284 0018 43F00403 		orr	r3, r3, #4
 1285 001c DBB2     		uxtb	r3, r3
 1286 001e 1370     		strb	r3, [r2]
 844:Generated_Source\PSoC5/cyfitter_cfg.c **** 
 845:Generated_Source\PSoC5/cyfitter_cfg.c **** 	{
 846:Generated_Source\PSoC5/cyfitter_cfg.c **** 		cfg_dma_init();
 1287              		.loc 1 846 0
 1288 0020 FFF7FEFF 		bl	cfg_dma_init
 847:Generated_Source\PSoC5/cyfitter_cfg.c **** 
 848:Generated_Source\PSoC5/cyfitter_cfg.c **** 		/* Perform normal device configuration. Order is not critical for these items. */
 849:Generated_Source\PSoC5/cyfitter_cfg.c **** 		CYMEMZERO((void CYFAR *)(CYREG_PHUB_CFGMEM0_CFG0), 4u);
 1289              		.loc 1 849 0
 1290 0024 0421     		movs	r1, #4
 1291 0026 2B48     		ldr	r0, .L33+8
 1292 0028 FFF7FEFF 		bl	CYMEMZERO
 850:Generated_Source\PSoC5/cyfitter_cfg.c **** 		CYCONFIGCPY((void CYFAR *)(CYREG_PHUB_CFGMEM1_CFG0), (const void CYFAR *)(BS_PHUB_CFGMEM1_VAL), 4
 1293              		.loc 1 850 0
 1294 002c 0422     		movs	r2, #4
 1295 002e 2A49     		ldr	r1, .L33+12
 1296 0030 2A48     		ldr	r0, .L33+16
 1297 0032 FFF7FEFF 		bl	CYCONFIGCPY
 851:Generated_Source\PSoC5/cyfitter_cfg.c **** 
 852:Generated_Source\PSoC5/cyfitter_cfg.c **** 		/* Enable digital routing */
 853:Generated_Source\PSoC5/cyfitter_cfg.c **** 		CY_SET_XTND_REG8((void CYFAR *)CYREG_BCTL0_BANK_CTL, CY_GET_XTND_REG8((void CYFAR *)CYREG_BCTL0_B
 1298              		.loc 1 853 0
 1299 0036 2A4A     		ldr	r2, .L33+20
 1300 0038 294B     		ldr	r3, .L33+20
 1301 003a 1B78     		ldrb	r3, [r3]
 1302 003c DBB2     		uxtb	r3, r3
 1303 003e 43F00203 		orr	r3, r3, #2
 1304 0042 DBB2     		uxtb	r3, r3
 1305 0044 1370     		strb	r3, [r2]
 854:Generated_Source\PSoC5/cyfitter_cfg.c **** 		CY_SET_XTND_REG8((void CYFAR *)CYREG_BCTL1_BANK_CTL, CY_GET_XTND_REG8((void CYFAR *)CYREG_BCTL1_B
 1306              		.loc 1 854 0
 1307 0046 274A     		ldr	r2, .L33+24
ARM GAS  C:\Users\Jona\AppData\Local\Temp\cc6fh2gk.s 			page 39


 1308 0048 264B     		ldr	r3, .L33+24
 1309 004a 1B78     		ldrb	r3, [r3]
 1310 004c DBB2     		uxtb	r3, r3
 1311 004e 43F00203 		orr	r3, r3, #2
 1312 0052 DBB2     		uxtb	r3, r3
 1313 0054 1370     		strb	r3, [r2]
 855:Generated_Source\PSoC5/cyfitter_cfg.c **** 
 856:Generated_Source\PSoC5/cyfitter_cfg.c **** 		/* Enable UDB array */
 857:Generated_Source\PSoC5/cyfitter_cfg.c **** 		CY_SET_XTND_REG8((void CYFAR *)CYREG_PM_ACT_CFG0, CY_GET_XTND_REG8((void CYFAR *)CYREG_PM_ACT_CFG
 1314              		.loc 1 857 0
 1315 0056 244A     		ldr	r2, .L33+28
 1316 0058 234B     		ldr	r3, .L33+28
 1317 005a 1B78     		ldrb	r3, [r3]
 1318 005c DBB2     		uxtb	r3, r3
 1319 005e 43F04003 		orr	r3, r3, #64
 1320 0062 DBB2     		uxtb	r3, r3
 1321 0064 1370     		strb	r3, [r2]
 858:Generated_Source\PSoC5/cyfitter_cfg.c **** 		CY_SET_XTND_REG8((void CYFAR *)CYREG_PM_AVAIL_CR2, CY_GET_XTND_REG8((void CYFAR *)CYREG_PM_AVAIL_
 1322              		.loc 1 858 0
 1323 0066 214A     		ldr	r2, .L33+32
 1324 0068 204B     		ldr	r3, .L33+32
 1325 006a 1B78     		ldrb	r3, [r3]
 1326 006c DBB2     		uxtb	r3, r3
 1327 006e 43F01003 		orr	r3, r3, #16
 1328 0072 DBB2     		uxtb	r3, r3
 1329 0074 1370     		strb	r3, [r2]
 859:Generated_Source\PSoC5/cyfitter_cfg.c **** 	}
 860:Generated_Source\PSoC5/cyfitter_cfg.c **** 
 861:Generated_Source\PSoC5/cyfitter_cfg.c **** 
 862:Generated_Source\PSoC5/cyfitter_cfg.c **** 	/* Perform second pass device configuration. These items must be configured in specific order afte
 863:Generated_Source\PSoC5/cyfitter_cfg.c **** 	CYCONFIGCPY((void CYFAR *)(CYREG_PRT0_DM0), (const void CYFAR *)(BS_IOPINS0_0_VAL), 8u);
 1330              		.loc 1 863 0
 1331 0076 0822     		movs	r2, #8
 1332 0078 1D49     		ldr	r1, .L33+36
 1333 007a 1E48     		ldr	r0, .L33+40
 1334 007c FFF7FEFF 		bl	CYCONFIGCPY
 864:Generated_Source\PSoC5/cyfitter_cfg.c **** 	CYCONFIGCPY((void CYFAR *)(CYREG_PRT12_DR), (const void CYFAR *)(BS_IOPINS0_7_VAL), 10u);
 1335              		.loc 1 864 0
 1336 0080 0A22     		movs	r2, #10
 1337 0082 1D49     		ldr	r1, .L33+44
 1338 0084 1D48     		ldr	r0, .L33+48
 1339 0086 FFF7FEFF 		bl	CYCONFIGCPY
 865:Generated_Source\PSoC5/cyfitter_cfg.c **** 	CYCONFIGCPY((void CYFAR *)(CYREG_PRT15_DM0), (const void CYFAR *)(BS_IOPINS0_8_VAL), 8u);
 1340              		.loc 1 865 0
 1341 008a 0822     		movs	r2, #8
 1342 008c 1C49     		ldr	r1, .L33+52
 1343 008e 1D48     		ldr	r0, .L33+56
 1344 0090 FFF7FEFF 		bl	CYCONFIGCPY
 866:Generated_Source\PSoC5/cyfitter_cfg.c **** 	CYCONFIGCPY((void CYFAR *)(CYREG_PRT1_DM0), (const void CYFAR *)(BS_IOPINS0_1_VAL), 8u);
 1345              		.loc 1 866 0
 1346 0094 0822     		movs	r2, #8
 1347 0096 1C49     		ldr	r1, .L33+60
 1348 0098 1C48     		ldr	r0, .L33+64
 1349 009a FFF7FEFF 		bl	CYCONFIGCPY
 867:Generated_Source\PSoC5/cyfitter_cfg.c **** 	CYCONFIGCPY((void CYFAR *)(CYREG_PRT2_DM0), (const void CYFAR *)(BS_IOPINS0_2_VAL), 8u);
 1350              		.loc 1 867 0
 1351 009e 0822     		movs	r2, #8
ARM GAS  C:\Users\Jona\AppData\Local\Temp\cc6fh2gk.s 			page 40


 1352 00a0 1B49     		ldr	r1, .L33+68
 1353 00a2 1C48     		ldr	r0, .L33+72
 1354 00a4 FFF7FEFF 		bl	CYCONFIGCPY
 868:Generated_Source\PSoC5/cyfitter_cfg.c **** 	/* Switch Boost to the precision bandgap reference from its internal reference */
 869:Generated_Source\PSoC5/cyfitter_cfg.c **** 	CY_SET_REG8((void CYXDATA *)CYREG_BOOST_CR2, (CY_GET_REG8((void CYXDATA *)CYREG_BOOST_CR2) | 0x08u
 1355              		.loc 1 869 0
 1356 00a8 1B4A     		ldr	r2, .L33+76
 1357 00aa 1B4B     		ldr	r3, .L33+76
 1358 00ac 1B78     		ldrb	r3, [r3]
 1359 00ae DBB2     		uxtb	r3, r3
 1360 00b0 43F00803 		orr	r3, r3, #8
 1361 00b4 DBB2     		uxtb	r3, r3
 1362 00b6 1370     		strb	r3, [r2]
 870:Generated_Source\PSoC5/cyfitter_cfg.c **** 
 871:Generated_Source\PSoC5/cyfitter_cfg.c **** 	/* Perform basic analog initialization to defaults */
 872:Generated_Source\PSoC5/cyfitter_cfg.c **** 	AnalogSetDefault();
 1363              		.loc 1 872 0
 1364 00b8 FFF7FEFF 		bl	AnalogSetDefault
 873:Generated_Source\PSoC5/cyfitter_cfg.c **** 
 874:Generated_Source\PSoC5/cyfitter_cfg.c **** 	/* Configure alternate active mode */
 875:Generated_Source\PSoC5/cyfitter_cfg.c **** 	CYCONFIGCPY((void CYFAR *)CYDEV_PM_STBY_BASE, (const void CYFAR *)CYDEV_PM_ACT_BASE, 14u);
 1365              		.loc 1 875 0
 1366 00bc 0E22     		movs	r2, #14
 1367 00be 0A49     		ldr	r1, .L33+28
 1368 00c0 1648     		ldr	r0, .L33+80
 1369 00c2 FFF7FEFF 		bl	CYCONFIGCPY
 876:Generated_Source\PSoC5/cyfitter_cfg.c **** }
 1370              		.loc 1 876 0
 1371 00c6 00BF     		nop
 1372 00c8 80BD     		pop	{r7, pc}
 1373              	.L34:
 1374 00ca 00BF     		.align	2
 1375              	.L33:
 1376 00cc 00480040 		.word	1073760256
 1377 00d0 E8460040 		.word	1073759976
 1378 00d4 00760040 		.word	1073772032
 1379 00d8 E41B0048 		.word	1207966692
 1380 00dc 08760040 		.word	1073772040
 1381 00e0 03500140 		.word	1073827843
 1382 00e4 13500140 		.word	1073827859
 1383 00e8 A0430040 		.word	1073759136
 1384 00ec C2430040 		.word	1073759170
 1385 00f0 B01B0048 		.word	1207966640
 1386 00f4 02510040 		.word	1073762562
 1387 00f8 B81B0048 		.word	1207966648
 1388 00fc C0510040 		.word	1073762752
 1389 0100 C41B0048 		.word	1207966660
 1390 0104 F2510040 		.word	1073762802
 1391 0108 CC1B0048 		.word	1207966668
 1392 010c 12510040 		.word	1073762578
 1393 0110 D41B0048 		.word	1207966676
 1394 0114 22510040 		.word	1073762594
 1395 0118 22430040 		.word	1073759010
 1396 011c B0430040 		.word	1073759152
 1397              		.cfi_endproc
 1398              	.LFE8:
 1399              		.size	cyfitter_cfg, .-cyfitter_cfg
ARM GAS  C:\Users\Jona\AppData\Local\Temp\cc6fh2gk.s 			page 41


 1400              		.bss
 1401              		.align	3
 1402              	DMA_ZERO_VAL.4971:
 1403 0000 00000000 		.space	4
 1404              		.section	.rodata
 1405              		.align	2
 1406              		.type	CFG_TD_ADDR0.4973, %object
 1407              		.size	CFG_TD_ADDR0.4973, 320
 1408              	CFG_TD_ADDR0.4973:
 1409 0000 00000000 		.word	CH1_ADDR_DATA0.4966
 1410 0004 08000000 		.word	CH2_ADDR_DATA0.4967
 1411 0008 10000000 		.word	CH5_ADDR_DATA0.4968
 1412 000c 18000000 		.word	CH6_ADDR_DATA0.4969
 1413 0010 20000000 		.word	DMA_TD_START_CMD.4970
 1414 0014 20000000 		.word	DMA_TD_START_CMD.4970
 1415 0018 20000000 		.word	DMA_TD_START_CMD.4970
 1416 001c 20000000 		.word	DMA_TD_START_CMD.4970
 1417 0020 00000000 		.word	DMA_ZERO_VAL.4971
 1418 0024 00000000 		.word	DMA_ZERO_VAL.4971
 1419 0028 00000000 		.word	DMA_ZERO_VAL.4971
 1420 002c 00000000 		.word	DMA_ZERO_VAL.4971
 1421 0030 00000000 		.word	DMA_ZERO_VAL.4971
 1422 0034 00000000 		.word	DMA_ZERO_VAL.4971
 1423 0038 00000000 		.word	DMA_ZERO_VAL.4971
 1424 003c 00000000 		.word	DMA_ZERO_VAL.4971
 1425 0040 00000000 		.word	DMA_ZERO_VAL.4971
 1426 0044 08000048 		.word	1207959560
 1427 0048 10000048 		.word	1207959568
 1428 004c 18000048 		.word	1207959576
 1429 0050 28000048 		.word	1207959592
 1430 0054 30070048 		.word	1207961392
 1431 0058 70070048 		.word	1207961456
 1432 005c 20000048 		.word	1207959584
 1433 0060 30000048 		.word	1207959600
 1434 0064 B0000048 		.word	1207959728
 1435 0068 30010048 		.word	1207959856
 1436 006c B0010048 		.word	1207959984
 1437 0070 30020048 		.word	1207960112
 1438 0074 B0020048 		.word	1207960240
 1439 0078 30030048 		.word	1207960368
 1440 007c B0030048 		.word	1207960496
 1441 0080 30040048 		.word	1207960624
 1442 0084 B0040048 		.word	1207960752
 1443 0088 30050048 		.word	1207960880
 1444 008c B0050048 		.word	1207961008
 1445 0090 30060048 		.word	1207961136
 1446 0094 B0060048 		.word	1207961264
 1447 0098 90070048 		.word	1207961488
 1448 009c A0070048 		.word	1207961504
 1449 00a0 B0070048 		.word	1207961520
 1450 00a4 30080048 		.word	1207961648
 1451 00a8 B0080048 		.word	1207961776
 1452 00ac 30090048 		.word	1207961904
 1453 00b0 B0090048 		.word	1207962032
 1454 00b4 300A0048 		.word	1207962160
 1455 00b8 B00A0048 		.word	1207962288
 1456 00bc 300B0048 		.word	1207962416
ARM GAS  C:\Users\Jona\AppData\Local\Temp\cc6fh2gk.s 			page 42


 1457 00c0 B00B0048 		.word	1207962544
 1458 00c4 300C0048 		.word	1207962672
 1459 00c8 B00C0048 		.word	1207962800
 1460 00cc 300D0048 		.word	1207962928
 1461 00d0 B00D0048 		.word	1207963056
 1462 00d4 300E0048 		.word	1207963184
 1463 00d8 B00E0048 		.word	1207963312
 1464 00dc 300F0048 		.word	1207963440
 1465 00e0 B00F0048 		.word	1207963568
 1466 00e4 30100048 		.word	1207963696
 1467 00e8 B0100048 		.word	1207963824
 1468 00ec 30110048 		.word	1207963952
 1469 00f0 B0110048 		.word	1207964080
 1470 00f4 30120048 		.word	1207964208
 1471 00f8 B0120048 		.word	1207964336
 1472 00fc 30130048 		.word	1207964464
 1473 0100 B0130048 		.word	1207964592
 1474 0104 30140048 		.word	1207964720
 1475 0108 B0140048 		.word	1207964848
 1476 010c 30150048 		.word	1207964976
 1477 0110 B0150048 		.word	1207965104
 1478 0114 30160048 		.word	1207965232
 1479 0118 B0160048 		.word	1207965360
 1480 011c 30170048 		.word	1207965488
 1481 0120 B0170048 		.word	1207965616
 1482 0124 30180048 		.word	1207965744
 1483 0128 B0180048 		.word	1207965872
 1484 012c 30190048 		.word	1207966000
 1485 0130 B0190048 		.word	1207966128
 1486 0134 301A0048 		.word	1207966256
 1487 0138 B01A0048 		.word	1207966384
 1488 013c 301B0048 		.word	1207966512
 1489              		.text
 1490              	.Letext0:
 1491              		.file 2 "c:\\program files (x86)\\cypress\\psoc creator\\4.1\\psoc creator\\import\\gnu\\arm\\5.4.
 1492              		.file 3 "Generated_Source\\PSoC5\\cytypes.h"